---
triple:          'arm64-apple-darwin'
binary-path:     '/Users/lynnette/tweaks/RigelMobile/.theos/obj/arm64/SubwaySuck.dylib'
relocations:
  - { offset: 0x58, size: 0x8, addend: 0x0, symName: "__ZN6Config15修改昵称为E", symObjAddr: 0x20C0, symBinAddr: 0xF3808, symSize: 0x0 }
  - { offset: 0x76, size: 0x8, addend: 0x0, symName: "__ZN6Config24要发送的消息内容E", symObjAddr: 0x20E0, symBinAddr: 0xF3828, symSize: 0x0 }
  - { offset: 0x94, size: 0x8, addend: 0x0, symName: "__ZN6Config12修改金币E", symObjAddr: 0x21D8, symBinAddr: 0xF3920, symSize: 0x0 }
  - { offset: 0xB2, size: 0x8, addend: 0x0, symName: "__ZN6Config21修改成多少金币E", symObjAddr: 0x21DC, symBinAddr: 0xF3924, symSize: 0x0 }
  - { offset: 0xD0, size: 0x8, addend: 0x0, symName: "__ZN6Config18修改宝物钥匙E", symObjAddr: 0x21E0, symBinAddr: 0xF3928, symSize: 0x0 }
  - { offset: 0xEE, size: 0x8, addend: 0x0, symName: "__ZN6Config27修改成多少宝物钥匙E", symObjAddr: 0x21E4, symBinAddr: 0xF392C, symSize: 0x0 }
  - { offset: 0x10C, size: 0x8, addend: 0x0, symName: "__ZN6Config12修改钥匙E", symObjAddr: 0x21E8, symBinAddr: 0xF3930, symSize: 0x0 }
  - { offset: 0x12A, size: 0x8, addend: 0x0, symName: "__ZN6Config12修改分数E", symObjAddr: 0x21F0, symBinAddr: 0xF3938, symSize: 0x0 }
  - { offset: 0x148, size: 0x8, addend: 0x0, symName: "__ZN6Config18修改成多少分E", symObjAddr: 0x21F4, symBinAddr: 0xF393C, symSize: 0x0 }
  - { offset: 0x166, size: 0x8, addend: 0x0, symName: "__ZN6Config12双倍充能E", symObjAddr: 0x21F8, symBinAddr: 0xF3940, symSize: 0x0 }
  - { offset: 0x184, size: 0x8, addend: 0x0, symName: "__ZN6Config12疯狂加速E", symObjAddr: 0x21F9, symBinAddr: 0xF3941, symSize: 0x0 }
  - { offset: 0x1A2, size: 0x8, addend: 0x0, symName: "__ZN6Config18修改模型大小E", symObjAddr: 0x21FA, symBinAddr: 0xF3942, symSize: 0x0 }
  - { offset: 0x1C0, size: 0x8, addend: 0x0, symName: "__ZN6Config12上帝视角E", symObjAddr: 0x2200, symBinAddr: 0xF3948, symSize: 0x0 }
  - { offset: 0x1DE, size: 0x8, addend: 0x0, symName: "__ZN6Config12修改重力E", symObjAddr: 0x2420, symBinAddr: 0xF3B68, symSize: 0x0 }
  - { offset: 0x1FC, size: 0x8, addend: 0x0, symName: "__ZN6Config12修改速度E", symObjAddr: 0x2428, symBinAddr: 0xF3B70, symSize: 0x0 }
  - { offset: 0x21A, size: 0x8, addend: 0x0, symName: "__ZN6Config15速度修改为E", symObjAddr: 0x242C, symBinAddr: 0xF3B74, symSize: 0x0 }
  - { offset: 0x238, size: 0x8, addend: 0x0, symName: "__ZN6Config12修改昵称E", symObjAddr: 0x2430, symBinAddr: 0xF3B78, symSize: 0x0 }
  - { offset: 0x76FE, size: 0x8, addend: 0x0, symName: __ZNSt3__119__allocate_at_leastB8nn180100INS_9allocatorIDsEEEENS_19__allocation_resultINS_16allocator_traitsIT_E7pointerEEERS5_m, symObjAddr: 0x1604, symBinAddr: 0x9560, symSize: 0x30 }
  - { offset: 0x7706, size: 0x8, addend: 0x0, symName: __ZSt28__throw_bad_array_new_lengthB8nn180100v, symObjAddr: 0x1634, symBinAddr: 0x9590, symSize: 0xC }
  - { offset: 0x7FA9, size: 0x8, addend: 0x0, symName: __ZSt28__throw_bad_array_new_lengthB8nn180100v, symObjAddr: 0x1634, symBinAddr: 0x9590, symSize: 0xC }
  - { offset: 0x7FB1, size: 0x8, addend: 0x0, symName: __ZNSt3__112basic_stringIDsNS_11char_traitsIDsEENS_9allocatorIDsEEE9__grow_byEmmmmmm, symObjAddr: 0x1640, symBinAddr: 0x959C, symSize: 0x11C }
  - { offset: 0x82A8, size: 0x8, addend: 0x0, symName: __ZN15FunctionAddress35HPowerupManager__IncEnergy_funcaddrE, symObjAddr: 0x2158, symBinAddr: 0xF38A0, symSize: 0x0 }
  - { offset: 0x82C6, size: 0x8, addend: 0x0, symName: __ZN15FunctionAddress38HPowerupManager__get_instance_funcaddrE, symObjAddr: 0x2160, symBinAddr: 0xF38A8, symSize: 0x0 }
  - { offset: 0x82E4, size: 0x8, addend: 0x0, symName: __ZN15FunctionAddress39PlayerInfo__set_NewTreasureKey_funcaddrE, symObjAddr: 0x2168, symBinAddr: 0xF38B0, symSize: 0x0 }
  - { offset: 0x8302, size: 0x8, addend: 0x0, symName: __ZN15FunctionAddress51SYBO_Subway_Characters_Character__get_Instance_AddrE, symObjAddr: 0x2170, symBinAddr: 0xF38B8, symSize: 0x0 }
  - { offset: 0x8320, size: 0x8, addend: 0x0, symName: __ZN15FunctionAddress37UnityEngine_Camera__get_main_funcaddrE, symObjAddr: 0x2178, symBinAddr: 0xF38C0, symSize: 0x0 }
  - { offset: 0x833E, size: 0x8, addend: 0x0, symName: __ZN15FunctionAddress43UnityEngine_Camera__WorldToScreenPoint_addrE, symObjAddr: 0x2180, symBinAddr: 0xF38C8, symSize: 0x0 }
  - { offset: 0x835C, size: 0x8, addend: 0x0, symName: __ZN15FunctionAddress27DummyMgr__get_Instance_addrE, symObjAddr: 0x2188, symBinAddr: 0xF38D0, symSize: 0x0 }
  - { offset: 0x837A, size: 0x8, addend: 0x0, symName: __ZN15FunctionAddress27DummyMgr__get_allDummy_addrE, symObjAddr: 0x2190, symBinAddr: 0xF38D8, symSize: 0x0 }
  - { offset: 0x83CA, size: 0x8, addend: 0x0, symName: __ZN12GameFunction29HPowerupManager__get_instanceE, symObjAddr: 0x2198, symBinAddr: 0xF38E0, symSize: 0x0 }
  - { offset: 0x83E8, size: 0x8, addend: 0x0, symName: __ZN12GameFunction26HPowerupManager__IncEnergyE, symObjAddr: 0x21A0, symBinAddr: 0xF38E8, symSize: 0x0 }
  - { offset: 0x8406, size: 0x8, addend: 0x0, symName: __ZN12GameFunction30PlayerInfo__set_NewTreasureKeyE, symObjAddr: 0x21A8, symBinAddr: 0xF38F0, symSize: 0x0 }
  - { offset: 0x8424, size: 0x8, addend: 0x0, symName: __ZN12GameFunction46SYBO_Subway_Characters_Character__get_InstanceE, symObjAddr: 0x21B0, symBinAddr: 0xF38F8, symSize: 0x0 }
  - { offset: 0x8442, size: 0x8, addend: 0x0, symName: __ZN12GameFunction28UnityEngine_Camera__get_mainE, symObjAddr: 0x21B8, symBinAddr: 0xF3900, symSize: 0x0 }
  - { offset: 0x8460, size: 0x8, addend: 0x0, symName: __ZN12GameFunction38UnityEngine_Camera__WorldToScreenPointE, symObjAddr: 0x21C0, symBinAddr: 0xF3908, symSize: 0x0 }
  - { offset: 0x847E, size: 0x8, addend: 0x0, symName: __ZN12GameFunction22DummyMgr__get_InstanceE, symObjAddr: 0x21C8, symBinAddr: 0xF3910, symSize: 0x0 }
  - { offset: 0x849C, size: 0x8, addend: 0x0, symName: __ZN12GameFunction22DummyMgr__get_allDummyE, symObjAddr: 0x21D0, symBinAddr: 0xF3918, symSize: 0x0 }
  - { offset: 0x89A3, size: 0x8, addend: 0x0, symName: __ZN5hooks33org_PlayerInfo__set_amountOfCoinsE, symObjAddr: 0x2100, symBinAddr: 0xF3848, symSize: 0x0 }
  - { offset: 0x89C1, size: 0x8, addend: 0x0, symName: __ZN5hooks32org_PlayerInfo__set_amountOfKeysE, symObjAddr: 0x2108, symBinAddr: 0xF3850, symSize: 0x0 }
  - { offset: 0x89DF, size: 0x8, addend: 0x0, symName: __ZN5hooks24org_GameStats__set_scoreE, symObjAddr: 0x2110, symBinAddr: 0xF3858, symSize: 0x0 }
  - { offset: 0x89FD, size: 0x8, addend: 0x0, symName: __ZN5hooks30org_HPowerupEnergy___TriggerInE, symObjAddr: 0x2118, symBinAddr: 0xF3860, symSize: 0x0 }
  - { offset: 0x8A1B, size: 0x8, addend: 0x0, symName: __ZN5hooks28org_HCharSpeed___ChangeStateE, symObjAddr: 0x2120, symBinAddr: 0xF3868, symSize: 0x0 }
  - { offset: 0x8A39, size: 0x8, addend: 0x0, symName: __ZN5hooks28org_CharacterModel__GetScaleE, symObjAddr: 0x2128, symBinAddr: 0xF3870, symSize: 0x0 }
  - { offset: 0x8A57, size: 0x8, addend: 0x0, symName: __ZN5hooks39org_UnityEngine_Transform__set_positionE, symObjAddr: 0x2130, symBinAddr: 0xF3878, symSize: 0x0 }
  - { offset: 0x8A75, size: 0x8, addend: 0x0, symName: __ZN5hooks10newcontentE, symObjAddr: 0x2208, symBinAddr: 0xF3950, symSize: 0x0 }
  - { offset: 0x8A93, size: 0x8, addend: 0x0, symName: __ZN5hooks39org_HRealPVPRoomManager__CommitGameChatE, symObjAddr: 0x2138, symBinAddr: 0xF3880, symSize: 0x0 }
  - { offset: 0x8AB1, size: 0x8, addend: 0x0, symName: __ZN5hooks50org_SYBO_Subway_Characters_Character__ApplyGravityE, symObjAddr: 0x2140, symBinAddr: 0xF3888, symSize: 0x0 }
  - { offset: 0x8ACF, size: 0x8, addend: 0x0, symName: __ZN5hooks25org_HCharSpeed__get_speedE, symObjAddr: 0x2148, symBinAddr: 0xF3890, symSize: 0x0 }
  - { offset: 0x8AEE, size: 0x8, addend: 0x0, symName: __ZN5hooks11newNicknameE, symObjAddr: 0x2438, symBinAddr: 0xF3B80, symSize: 0x0 }
  - { offset: 0x8B0D, size: 0x8, addend: 0x0, symName: __ZN5hooks34org_PlayerInfo__get_playerNickNameE, symObjAddr: 0x2150, symBinAddr: 0xF3898, symSize: 0x0 }
  - { offset: 0x8B1A, size: 0x8, addend: 0x0, symName: __ZN5hooks33new_PlayerInfo__set_amountOfCoinsEPviS0_, symObjAddr: 0x5F8, symBinAddr: 0x8554, symSize: 0x88 }
  - { offset: 0x8B22, size: 0x8, addend: 0x0, symName: __ZN5hooks32new_PlayerInfo__set_amountOfKeysEPviS0_, symObjAddr: 0x680, symBinAddr: 0x85DC, symSize: 0x30 }
  - { offset: 0x8BCC, size: 0x8, addend: 0x0, symName: __ZN5hooks32new_PlayerInfo__set_amountOfKeysEPviS0_, symObjAddr: 0x680, symBinAddr: 0x85DC, symSize: 0x30 }
  - { offset: 0x8BD4, size: 0x8, addend: 0x0, symName: __ZN5hooks24new_GameStats__set_scoreEPviS0_, symObjAddr: 0x6B0, symBinAddr: 0x860C, symSize: 0x30 }
  - { offset: 0x8C1E, size: 0x8, addend: 0x0, symName: __ZN5hooks24new_GameStats__set_scoreEPviS0_, symObjAddr: 0x6B0, symBinAddr: 0x860C, symSize: 0x30 }
  - { offset: 0x8C26, size: 0x8, addend: 0x0, symName: __ZN5hooks30new_HPowerupEnergy___TriggerInEPvS0_, symObjAddr: 0x6E0, symBinAddr: 0x863C, symSize: 0x60 }
  - { offset: 0x8C70, size: 0x8, addend: 0x0, symName: __ZN5hooks30new_HPowerupEnergy___TriggerInEPvS0_, symObjAddr: 0x6E0, symBinAddr: 0x863C, symSize: 0x60 }
  - { offset: 0x8C78, size: 0x8, addend: 0x0, symName: __ZN5hooks28new_HCharSpeed___ChangeStateEPvhfibS0_, symObjAddr: 0x740, symBinAddr: 0x869C, symSize: 0x48 }
  - { offset: 0x8CDF, size: 0x8, addend: 0x0, symName: __ZN5hooks28new_HCharSpeed___ChangeStateEPvhfibS0_, symObjAddr: 0x740, symBinAddr: 0x869C, symSize: 0x48 }
  - { offset: 0x8CE7, size: 0x8, addend: 0x0, symName: __ZN5hooks28new_CharacterModel__GetScaleEPviS0_, symObjAddr: 0x788, symBinAddr: 0x86E4, symSize: 0x50 }
  - { offset: 0x8D67, size: 0x8, addend: 0x0, symName: __ZN5hooks28new_CharacterModel__GetScaleEPviS0_, symObjAddr: 0x788, symBinAddr: 0x86E4, symSize: 0x50 }
  - { offset: 0x8D6F, size: 0x8, addend: 0x0, symName: __ZN5hooks39new_UnityEngine_Transform__set_positionEPv21UnityEngine_Vector3_oS0_, symObjAddr: 0x7D8, symBinAddr: 0x8734, symSize: 0x2C }
  - { offset: 0x8DDA, size: 0x8, addend: 0x0, symName: __ZN5hooks39new_UnityEngine_Transform__set_positionEPv21UnityEngine_Vector3_oS0_, symObjAddr: 0x7D8, symBinAddr: 0x8734, symSize: 0x2C }
  - { offset: 0x8DE2, size: 0x8, addend: 0x0, symName: __ZN5hooks39new_HRealPVPRoomManager__CommitGameChatEPviiP15System_String_oS0_, symObjAddr: 0x804, symBinAddr: 0x8760, symSize: 0xF4 }
  - { offset: 0x8E2E, size: 0x8, addend: 0x0, symName: __ZN5hooks39new_HRealPVPRoomManager__CommitGameChatEPviiP15System_String_oS0_, symObjAddr: 0x804, symBinAddr: 0x8760, symSize: 0xF4 }
  - { offset: 0x8E36, size: 0x8, addend: 0x0, symName: __ZN5hooks50new_SYBO_Subway_Characters_Character__ApplyGravityEPvS0_, symObjAddr: 0x8F8, symBinAddr: 0x8854, symSize: 0x3C }
  - { offset: 0x9230, size: 0x8, addend: 0x0, symName: __ZN5hooks50new_SYBO_Subway_Characters_Character__ApplyGravityEPvS0_, symObjAddr: 0x8F8, symBinAddr: 0x8854, symSize: 0x3C }
  - { offset: 0x9238, size: 0x8, addend: 0x0, symName: __ZN5hooks25new_HCharSpeed__get_speedEPvS0_, symObjAddr: 0x934, symBinAddr: 0x8890, symSize: 0x48 }
  - { offset: 0x9271, size: 0x8, addend: 0x0, symName: __ZN5hooks25new_HCharSpeed__get_speedEPvS0_, symObjAddr: 0x934, symBinAddr: 0x8890, symSize: 0x48 }
  - { offset: 0x9279, size: 0x8, addend: 0x0, symName: __ZN5hooks34new_PlayerInfo__get_playerNickNameEPvS0_, symObjAddr: 0x97C, symBinAddr: 0x88D8, symSize: 0xD4 }
  - { offset: 0x92D1, size: 0x8, addend: 0x0, symName: __ZN5hooks34new_PlayerInfo__get_playerNickNameEPvS0_, symObjAddr: 0x97C, symBinAddr: 0x88D8, symSize: 0xD4 }
  - { offset: 0x92D9, size: 0x8, addend: 0x0, symName: __Z14patch_at_startv, symObjAddr: 0xA50, symBinAddr: 0x89AC, symSize: 0x6E4 }
  - { offset: 0xA45F, size: 0x8, addend: 0x0, symName: __Z12InstallHooksv, symObjAddr: 0x0, symBinAddr: 0x7F5C, symSize: 0x5F8 }
  - { offset: 0xA467, size: 0x8, addend: 0x0, symName: __ZN5hooks33new_PlayerInfo__set_amountOfCoinsEPviS0_, symObjAddr: 0x5F8, symBinAddr: 0x8554, symSize: 0x88 }
  - { offset: 0xAEDA, size: 0x8, addend: 0x0, symName: __Z14patch_at_startv, symObjAddr: 0xA50, symBinAddr: 0x89AC, symSize: 0x6E4 }
  - { offset: 0xAEE2, size: 0x8, addend: 0x0, symName: __Z10Initializev, symObjAddr: 0x1134, symBinAddr: 0x9090, symSize: 0x18 }
  - { offset: 0xCA8F, size: 0x8, addend: 0x0, symName: __Z10Initializev, symObjAddr: 0x1134, symBinAddr: 0x9090, symSize: 0x18 }
  - { offset: 0xCA97, size: 0x8, addend: 0x0, symName: __Z5setupv, symObjAddr: 0x114C, symBinAddr: 0x90A8, symSize: 0x4 }
  - { offset: 0xCAAA, size: 0x8, addend: 0x0, symName: __Z5setupv, symObjAddr: 0x114C, symBinAddr: 0x90A8, symSize: 0x4 }
  - { offset: 0xCAB2, size: 0x8, addend: 0x0, symName: __Z9setupMenuv, symObjAddr: 0x1150, symBinAddr: 0x90AC, symSize: 0xC }
  - { offset: 0xCAC8, size: 0x8, addend: 0x0, symName: __Z9setupMenuv, symObjAddr: 0x1150, symBinAddr: 0x90AC, symSize: 0xC }
  - { offset: 0xCAD0, size: 0x8, addend: 0x0, symName: __ZL24_logosLocalCtor_b78ddeb5iPPcS0_, symObjAddr: 0x115C, symBinAddr: 0x90B8, symSize: 0x34 }
  - { offset: 0xCAE3, size: 0x8, addend: 0x0, symName: __ZL24_logosLocalCtor_b78ddeb5iPPcS0_, symObjAddr: 0x115C, symBinAddr: 0x90B8, symSize: 0x34 }
  - { offset: 0xCAEB, size: 0x8, addend: 0x0, symName: __ZL18didFinishLaunchingP22__CFNotificationCenterPvPK10__CFStringPKvPK14__CFDictionary, symObjAddr: 0x1190, symBinAddr: 0x90EC, symSize: 0x3C }
  - { offset: 0xCB3B, size: 0x8, addend: 0x0, symName: __ZL18didFinishLaunchingP22__CFNotificationCenterPvPK10__CFStringPKvPK14__CFDictionary, symObjAddr: 0x1190, symBinAddr: 0x90EC, symSize: 0x3C }
  - { offset: 0xCB43, size: 0x8, addend: 0x0, symName: __Z15utf8_to_utf16leRKNSt3__112basic_stringIcNS_11char_traitsIcEENS_9allocatorIcEEEEbPb, symObjAddr: 0x11CC, symBinAddr: 0x9128, symSize: 0x20C }
  - { offset: 0xCD2C, size: 0x8, addend: 0x0, symName: __Z15utf8_to_utf16leRKNSt3__112basic_stringIcNS_11char_traitsIcEENS_9allocatorIcEEEEbPb, symObjAddr: 0x11CC, symBinAddr: 0x9128, symSize: 0x20C }
  - { offset: 0xCD34, size: 0x8, addend: 0x0, symName: __ZNSt3__112basic_stringIDsNS_11char_traitsIDsEENS_9allocatorIDsEEE7reserveEm, symObjAddr: 0x13D8, symBinAddr: 0x9334, symSize: 0x184 }
  - { offset: 0xD52D, size: 0x8, addend: 0x0, symName: __ZNSt3__112basic_stringIDsNS_11char_traitsIDsEENS_9allocatorIDsEEE7reserveEm, symObjAddr: 0x13D8, symBinAddr: 0x9334, symSize: 0x184 }
  - { offset: 0xD535, size: 0x8, addend: 0x0, symName: __ZNSt3__112basic_stringIDsNS_11char_traitsIDsEENS_9allocatorIDsEEE9push_backEDs, symObjAddr: 0x155C, symBinAddr: 0x94B8, symSize: 0xA8 }
  - { offset: 0xDBFA, size: 0x8, addend: 0x0, symName: __ZNSt3__112basic_stringIDsNS_11char_traitsIDsEENS_9allocatorIDsEEE9push_backEDs, symObjAddr: 0x155C, symBinAddr: 0x94B8, symSize: 0xA8 }
  - { offset: 0xDC17, size: 0x8, addend: 0x0, symName: __ZNSt3__112basic_stringIDsNS_11char_traitsIDsEENS_9allocatorIDsEEE9push_backEDs, symObjAddr: 0x155C, symBinAddr: 0x94B8, symSize: 0xA8 }
  - { offset: 0xDCFD, size: 0x8, addend: 0x0, symName: __ZNSt3__112basic_stringIDsNS_11char_traitsIDsEENS_9allocatorIDsEEE9push_backEDs, symObjAddr: 0x155C, symBinAddr: 0x94B8, symSize: 0xA8 }
  - { offset: 0xDD05, size: 0x8, addend: 0x0, symName: __ZNSt3__119__allocate_at_leastB8nn180100INS_9allocatorIDsEEEENS_19__allocation_resultINS_16allocator_traitsIT_E7pointerEEERS5_m, symObjAddr: 0x1604, symBinAddr: 0x9560, symSize: 0x30 }
  - { offset: 0xDF58, size: 0x8, addend: 0x0, symName: __ZNSt3__112basic_stringIDsNS_11char_traitsIDsEENS_9allocatorIDsEEE9__grow_byEmmmmmm, symObjAddr: 0x1640, symBinAddr: 0x959C, symSize: 0x11C }
  - { offset: 0xDF60, size: 0x8, addend: 0x0, symName: ____ZL18didFinishLaunchingP22__CFNotificationCenterPvPK10__CFStringPKvPK14__CFDictionary_block_invoke, symObjAddr: 0x175C, symBinAddr: 0x96B8, symSize: 0x2EC }
  - { offset: 0xE091, size: 0x8, addend: 0x0, symName: ____ZL18didFinishLaunchingP22__CFNotificationCenterPvPK10__CFStringPKvPK14__CFDictionary_block_invoke, symObjAddr: 0x175C, symBinAddr: 0x96B8, symSize: 0x2EC }
  - { offset: 0xE0AE, size: 0x8, addend: 0x0, symName: ____ZL18didFinishLaunchingP22__CFNotificationCenterPvPK10__CFStringPKvPK14__CFDictionary_block_invoke, symObjAddr: 0x175C, symBinAddr: 0x96B8, symSize: 0x2EC }
  - { offset: 0xE827, size: 0x8, addend: 0x0, symName: ____ZL18didFinishLaunchingP22__CFNotificationCenterPvPK10__CFStringPKvPK14__CFDictionary_block_invoke, symObjAddr: 0x175C, symBinAddr: 0x96B8, symSize: 0x2EC }
  - { offset: 0xE82F, size: 0x8, addend: 0x0, symName: ____ZL18didFinishLaunchingP22__CFNotificationCenterPvPK10__CFStringPKvPK14__CFDictionary_block_invoke_2, symObjAddr: 0x1A48, symBinAddr: 0x99A4, symSize: 0x174 }
  - { offset: 0xEAA4, size: 0x8, addend: 0x0, symName: ____ZL18didFinishLaunchingP22__CFNotificationCenterPvPK10__CFStringPKvPK14__CFDictionary_block_invoke_2, symObjAddr: 0x1A48, symBinAddr: 0x99A4, symSize: 0x174 }
  - { offset: 0xEAAC, size: 0x8, addend: 0x0, symName: ____ZL18didFinishLaunchingP22__CFNotificationCenterPvPK10__CFStringPKvPK14__CFDictionary_block_invoke_3, symObjAddr: 0x1BBC, symBinAddr: 0x9B18, symSize: 0xC }
  - { offset: 0xEB6A, size: 0x8, addend: 0x0, symName: ____ZL18didFinishLaunchingP22__CFNotificationCenterPvPK10__CFStringPKvPK14__CFDictionary_block_invoke_3, symObjAddr: 0x1BBC, symBinAddr: 0x9B18, symSize: 0xC }
  - { offset: 0xEB72, size: 0x8, addend: 0x0, symName: ____ZL18didFinishLaunchingP22__CFNotificationCenterPvPK10__CFStringPKvPK14__CFDictionary_block_invoke_4, symObjAddr: 0x1BC8, symBinAddr: 0x9B24, symSize: 0x30 }
  - { offset: 0xEBA0, size: 0x8, addend: 0x0, symName: ____ZL18didFinishLaunchingP22__CFNotificationCenterPvPK10__CFStringPKvPK14__CFDictionary_block_invoke_3, symObjAddr: 0x1BBC, symBinAddr: 0x9B18, symSize: 0xC }
  - { offset: 0xEBA8, size: 0x8, addend: 0x0, symName: ____ZL18didFinishLaunchingP22__CFNotificationCenterPvPK10__CFStringPKvPK14__CFDictionary_block_invoke_4, symObjAddr: 0x1BC8, symBinAddr: 0x9B24, symSize: 0x30 }
  - { offset: 0xEBB5, size: 0x8, addend: 0x0, symName: ____ZL18didFinishLaunchingP22__CFNotificationCenterPvPK10__CFStringPKvPK14__CFDictionary_block_invoke_4, symObjAddr: 0x1BC8, symBinAddr: 0x9B24, symSize: 0x30 }
  - { offset: 0xEBBD, size: 0x8, addend: 0x0, symName: ____ZL18didFinishLaunchingP22__CFNotificationCenterPvPK10__CFStringPKvPK14__CFDictionary_block_invoke_5, symObjAddr: 0x1BF8, symBinAddr: 0x9B54, symSize: 0xC }
  - { offset: 0xEBE4, size: 0x8, addend: 0x0, symName: ____ZL18didFinishLaunchingP22__CFNotificationCenterPvPK10__CFStringPKvPK14__CFDictionary_block_invoke_5, symObjAddr: 0x1BF8, symBinAddr: 0x9B54, symSize: 0xC }
  - { offset: 0xEBEC, size: 0x8, addend: 0x0, symName: __ZNSt3__112basic_stringIcNS_11char_traitsIcEENS_9allocatorIcEEEC2B8nn180100ILi0EEEPKc, symObjAddr: 0x1C04, symBinAddr: 0x9B60, symSize: 0xAC }
  - { offset: 0xEC1A, size: 0x8, addend: 0x0, symName: ____ZL18didFinishLaunchingP22__CFNotificationCenterPvPK10__CFStringPKvPK14__CFDictionary_block_invoke_5, symObjAddr: 0x1BF8, symBinAddr: 0x9B54, symSize: 0xC }
  - { offset: 0xEC22, size: 0x8, addend: 0x0, symName: __ZNSt3__112basic_stringIcNS_11char_traitsIcEENS_9allocatorIcEEEC2B8nn180100ILi0EEEPKc, symObjAddr: 0x1C04, symBinAddr: 0x9B60, symSize: 0xAC }
  - { offset: 0xEEF8, size: 0x8, addend: 0x0, symName: __ZNSt3__112basic_stringIcNS_11char_traitsIcEENS_9allocatorIcEEEC2B8nn180100ILi0EEEPKc, symObjAddr: 0x1C04, symBinAddr: 0x9B60, symSize: 0xAC }
  - { offset: 0x13C40, size: 0x8, addend: 0x0, symName: "__ZN6Config18加载一次参数E", symObjAddr: 0x1424, symBinAddr: 0xF3EA4, symSize: 0x0 }
  - { offset: 0x22BFF, size: 0x8, addend: 0x0, symName: __ZNSt3__112__destroy_atB8nn180100INS_4pairIKNS_12basic_stringIcNS_11char_traitsIcEENS_9allocatorIcEEEES7_EELi0EEEvPT_, symObjAddr: 0xEBC, symBinAddr: 0xAB44, symSize: 0x44 }
  - { offset: 0x22C07, size: 0x8, addend: 0x0, symName: __ZNSt3__16__treeINS_12__value_typeINS_12basic_stringIcNS_11char_traitsIcEENS_9allocatorIcEEEEbEENS_19__map_value_compareIS7_S8_NS_4lessIS7_EELb1EEENS5_IS8_EEE7destroyEPNS_11__tree_nodeIS8_PvEE, symObjAddr: 0xF00, symBinAddr: 0xAB88, symSize: 0x50 }
  - { offset: 0x22E8A, size: 0x8, addend: 0x0, symName: __ZNSt3__16__treeINS_12__value_typeINS_12basic_stringIcNS_11char_traitsIcEENS_9allocatorIcEEEEbEENS_19__map_value_compareIS7_S8_NS_4lessIS7_EELb1EEENS5_IS8_EEE7destroyEPNS_11__tree_nodeIS8_PvEE, symObjAddr: 0xF00, symBinAddr: 0xAB88, symSize: 0x50 }
  - { offset: 0x22EB2, size: 0x8, addend: 0x0, symName: __ZNSt3__16__treeINS_12__value_typeINS_12basic_stringIcNS_11char_traitsIcEENS_9allocatorIcEEEEbEENS_19__map_value_compareIS7_S8_NS_4lessIS7_EELb1EEENS5_IS8_EEE7destroyEPNS_11__tree_nodeIS8_PvEE, symObjAddr: 0xF00, symBinAddr: 0xAB88, symSize: 0x50 }
  - { offset: 0x22EDA, size: 0x8, addend: 0x0, symName: __ZNSt3__16__treeINS_12__value_typeINS_12basic_stringIcNS_11char_traitsIcEENS_9allocatorIcEEEEbEENS_19__map_value_compareIS7_S8_NS_4lessIS7_EELb1EEENS5_IS8_EEE7destroyEPNS_11__tree_nodeIS8_PvEE, symObjAddr: 0xF00, symBinAddr: 0xAB88, symSize: 0x50 }
  - { offset: 0x22F0B, size: 0x8, addend: 0x0, symName: __ZNSt3__16__treeINS_12__value_typeINS_12basic_stringIcNS_11char_traitsIcEENS_9allocatorIcEEEEbEENS_19__map_value_compareIS7_S8_NS_4lessIS7_EELb1EEENS5_IS8_EEE7destroyEPNS_11__tree_nodeIS8_PvEE, symObjAddr: 0xF00, symBinAddr: 0xAB88, symSize: 0x50 }
  - { offset: 0x22F33, size: 0x8, addend: 0x0, symName: __ZNSt3__16__treeINS_12__value_typeINS_12basic_stringIcNS_11char_traitsIcEENS_9allocatorIcEEEEbEENS_19__map_value_compareIS7_S8_NS_4lessIS7_EELb1EEENS5_IS8_EEE7destroyEPNS_11__tree_nodeIS8_PvEE, symObjAddr: 0xF00, symBinAddr: 0xAB88, symSize: 0x50 }
  - { offset: 0x232EA, size: 0x8, addend: 0x0, symName: _Entities, symObjAddr: 0x1318, symBinAddr: 0xF3D98, symSize: 0x0 }
  - { offset: 0x23645, size: 0x8, addend: 0x0, symName: _Patches, symObjAddr: 0x1338, symBinAddr: 0xF3DB8, symSize: 0x0 }
  - { offset: 0x23C2C, size: 0x8, addend: 0x0, symName: _enabledFeatures, symObjAddr: 0x1358, symBinAddr: 0xF3DD8, symSize: 0x0 }
  - { offset: 0x23DE5, size: 0x8, addend: 0x0, symName: _Descriptions, symObjAddr: 0x1378, symBinAddr: 0xF3DF8, symSize: 0x0 }
  - { offset: 0x2433D, size: 0x8, addend: 0x0, symName: _ChildColor, symObjAddr: 0x1398, symBinAddr: 0xF3E18, symSize: 0x0 }
  - { offset: 0x2436C, size: 0x8, addend: 0x0, symName: _BGColor, symObjAddr: 0x13A8, symBinAddr: 0xF3E28, symSize: 0x0 }
  - { offset: 0x24387, size: 0x8, addend: 0x0, symName: _IconChildColor, symObjAddr: 0x13B8, symBinAddr: 0xF3E38, symSize: 0x0 }
  - { offset: 0x243A2, size: 0x8, addend: 0x0, symName: _InactiveTextColor, symObjAddr: 0x13C8, symBinAddr: 0xF3E48, symSize: 0x0 }
  - { offset: 0x243BD, size: 0x8, addend: 0x0, symName: _ActiveTextColor, symObjAddr: 0x13D8, symBinAddr: 0xF3E58, symSize: 0x0 }
  - { offset: 0x243D8, size: 0x8, addend: 0x0, symName: _GrabColor, symObjAddr: 0x13E8, symBinAddr: 0xF3E68, symSize: 0x0 }
  - { offset: 0x243F3, size: 0x8, addend: 0x0, symName: _childVisibilityMap, symObjAddr: 0x4C978, symBinAddr: 0x37A768, symSize: 0x0 }
  - { offset: 0x24834, size: 0x8, addend: 0x0, symName: _animation_text, symObjAddr: 0x13F8, symBinAddr: 0xF3E78, symSize: 0x0 }
  - { offset: 0x2484F, size: 0x8, addend: 0x0, symName: _speed, symObjAddr: 0x13FC, symBinAddr: 0xF3E7C, symSize: 0x0 }
  - { offset: 0x2486A, size: 0x8, addend: 0x0, symName: _animationSpeed, symObjAddr: 0x1400, symBinAddr: 0xF3E80, symSize: 0x0 }
  - { offset: 0x24885, size: 0x8, addend: 0x0, symName: _newChildVisible, symObjAddr: 0x4C990, symBinAddr: 0x37A780, symSize: 0x0 }
  - { offset: 0x248A0, size: 0x8, addend: 0x0, symName: _ToggleAnimations, symObjAddr: 0x4C991, symBinAddr: 0x37A781, symSize: 0x0 }
  - { offset: 0x248BB, size: 0x8, addend: 0x0, symName: _baseimage, symObjAddr: 0x1408, symBinAddr: 0xF3E88, symSize: 0x0 }
  - { offset: 0x248CD, size: 0x8, addend: 0x0, symName: __Z8LoadMenuv, symObjAddr: 0x424, symBinAddr: 0xA158, symSize: 0x7BC }
  - { offset: 0x248D5, size: 0x8, addend: 0x0, symName: ____Z8LoadMenuv_block_invoke, symObjAddr: 0xBE0, symBinAddr: 0xA914, symSize: 0x68 }
  - { offset: 0x248FC, size: 0x8, addend: 0x0, symName: __ZZ8LoadMenuvE9onceToken, symObjAddr: 0x4C998, symBinAddr: 0x37A858, symSize: 0x0 }
  - { offset: 0x24917, size: 0x8, addend: 0x0, symName: __ZZ8LoadMenuvE12currentWidth, symObjAddr: 0x4C9B0, symBinAddr: 0x37A870, symSize: 0x0 }
  - { offset: 0x251E1, size: 0x8, addend: 0x0, symName: __ZL12targetOffset, symObjAddr: 0x1410, symBinAddr: 0xF3E90, symSize: 0x0 }
  - { offset: 0x251FF, size: 0x8, addend: 0x0, symName: __ZL12columnOffset, symObjAddr: 0x1414, symBinAddr: 0xF3E94, symSize: 0x0 }
  - { offset: 0x2521D, size: 0x8, addend: 0x0, symName: __ZL11sidebarTab0, symObjAddr: 0x4C9A0, symBinAddr: 0x37A860, symSize: 0x0 }
  - { offset: 0x25242, size: 0x8, addend: 0x0, symName: __ZL10PageNumber, symObjAddr: 0x4C9A4, symBinAddr: 0x37A864, symSize: 0x0 }
  - { offset: 0x25260, size: 0x8, addend: 0x0, symName: __ZL8position, symObjAddr: 0x1418, symBinAddr: 0xF3E98, symSize: 0x0 }
  - { offset: 0x2527E, size: 0x8, addend: 0x0, symName: __ZL11animationEx, symObjAddr: 0x4C9A8, symBinAddr: 0x37A868, symSize: 0x0 }
  - { offset: 0x252A2, size: 0x8, addend: 0x0, symName: __ZL11sidebarTab1, symObjAddr: 0x4C9A9, symBinAddr: 0x37A869, symSize: 0x0 }
  - { offset: 0x252C6, size: 0x8, addend: 0x0, symName: __ZL11sidebarTab2, symObjAddr: 0x4C9AA, symBinAddr: 0x37A86A, symSize: 0x0 }
  - { offset: 0x252EA, size: 0x8, addend: 0x0, symName: __ZL11sidebarTab3, symObjAddr: 0x4C9AB, symBinAddr: 0x37A86B, symSize: 0x0 }
  - { offset: 0x2530E, size: 0x8, addend: 0x0, symName: __ZL11sidebarTab4, symObjAddr: 0x4C9AC, symBinAddr: 0x37A86C, symSize: 0x0 }
  - { offset: 0x25332, size: 0x8, addend: 0x0, symName: __ZL17deepFadeAnimation, symObjAddr: 0x141C, symBinAddr: 0xF3E9C, symSize: 0x0 }
  - { offset: 0x25350, size: 0x8, addend: 0x0, symName: __ZL15animationButton, symObjAddr: 0x1420, symBinAddr: 0xF3EA0, symSize: 0x0 }
  - { offset: 0x254F3, size: 0x8, addend: 0x0, symName: __ZNSt3__16vectorI6EntityNS_9allocatorIS1_EEED1B8nn180100Ev, symObjAddr: 0x0, symBinAddr: 0x9D34, symSize: 0x30 }
  - { offset: 0x254FB, size: 0x8, addend: 0x0, symName: __ZNSt3__16vectorI11MemoryPatchNS_9allocatorIS1_EEED1B8nn180100Ev, symObjAddr: 0x30, symBinAddr: 0x9D64, symSize: 0x34 }
  - { offset: 0x2574B, size: 0x8, addend: 0x0, symName: __ZNSt3__16vectorI11MemoryPatchNS_9allocatorIS1_EEED1B8nn180100Ev, symObjAddr: 0x30, symBinAddr: 0x9D64, symSize: 0x34 }
  - { offset: 0x25753, size: 0x8, addend: 0x0, symName: __ZNSt3__16vectorINS_12basic_stringIcNS_11char_traitsIcEENS_9allocatorIcEEEENS4_IS6_EEED1B8nn180100Ev, symObjAddr: 0x64, symBinAddr: 0x9D98, symSize: 0x34 }
  - { offset: 0x258A4, size: 0x8, addend: 0x0, symName: __ZNSt3__16vectorINS_12basic_stringIcNS_11char_traitsIcEENS_9allocatorIcEEEENS4_IS6_EEED1B8nn180100Ev, symObjAddr: 0x64, symBinAddr: 0x9D98, symSize: 0x34 }
  - { offset: 0x258AC, size: 0x8, addend: 0x0, symName: __ZNSt3__13mapINS_12basic_stringIcNS_11char_traitsIcEENS_9allocatorIcEEEES6_NS_4lessIS6_EENS4_INS_4pairIKS6_S6_EEEEED1B8nn180100Ev, symObjAddr: 0x98, symBinAddr: 0x9DCC, symSize: 0x28 }
  - { offset: 0x25A12, size: 0x8, addend: 0x0, symName: __ZNSt3__13mapINS_12basic_stringIcNS_11char_traitsIcEENS_9allocatorIcEEEES6_NS_4lessIS6_EENS4_INS_4pairIKS6_S6_EEEEED1B8nn180100Ev, symObjAddr: 0x98, symBinAddr: 0x9DCC, symSize: 0x28 }
  - { offset: 0x25A1A, size: 0x8, addend: 0x0, symName: __ZNSt3__13mapINS_12basic_stringIcNS_11char_traitsIcEENS_9allocatorIcEEEEbNS_4lessIS6_EENS4_INS_4pairIKS6_bEEEEED1B8nn180100Ev, symObjAddr: 0xC0, symBinAddr: 0x9DF4, symSize: 0x28 }
  - { offset: 0x25B8E, size: 0x8, addend: 0x0, symName: __ZNSt3__13mapINS_12basic_stringIcNS_11char_traitsIcEENS_9allocatorIcEEEEbNS_4lessIS6_EENS4_INS_4pairIKS6_bEEEEED1B8nn180100Ev, symObjAddr: 0xC0, symBinAddr: 0x9DF4, symSize: 0x28 }
  - { offset: 0x25B96, size: 0x8, addend: 0x0, symName: __Z9SetStylesv, symObjAddr: 0xE8, symBinAddr: 0x9E1C, symSize: 0x33C }
  - { offset: 0x25FC2, size: 0x8, addend: 0x0, symName: __Z9SetStylesv, symObjAddr: 0xE8, symBinAddr: 0x9E1C, symSize: 0x33C }
  - { offset: 0x25FCA, size: 0x8, addend: 0x0, symName: __Z8LoadMenuv, symObjAddr: 0x424, symBinAddr: 0xA158, symSize: 0x7BC }
  - { offset: 0x26441, size: 0x8, addend: 0x0, symName: ____Z8LoadMenuv_block_invoke, symObjAddr: 0xBE0, symBinAddr: 0xA914, symSize: 0x68 }
  - { offset: 0x26449, size: 0x8, addend: 0x0, symName: __ZN7Console6addLogERKNSt3__112basic_stringIcNS0_11char_traitsIcEENS0_9allocatorIcEEEEb, symObjAddr: 0xC48, symBinAddr: 0xA97C, symSize: 0x84 }
  - { offset: 0x26D22, size: 0x8, addend: 0x0, symName: __ZN7Console6addLogERKNSt3__112basic_stringIcNS0_11char_traitsIcEENS0_9allocatorIcEEEEb, symObjAddr: 0xC48, symBinAddr: 0xA97C, symSize: 0x84 }
  - { offset: 0x26F5A, size: 0x8, addend: 0x0, symName: __ZNSt3__16vectorI11MemoryPatchNS_9allocatorIS1_EEE16__destroy_vectorclB8nn180100Ev, symObjAddr: 0xD78, symBinAddr: 0xAA00, symSize: 0x70 }
  - { offset: 0x26F62, size: 0x8, addend: 0x0, symName: __ZNSt3__16vectorINS_12basic_stringIcNS_11char_traitsIcEENS_9allocatorIcEEEENS4_IS6_EEE16__destroy_vectorclB8nn180100Ev, symObjAddr: 0xDE8, symBinAddr: 0xAA70, symSize: 0x40 }
  - { offset: 0x2719E, size: 0x8, addend: 0x0, symName: __ZNSt3__16vectorINS_12basic_stringIcNS_11char_traitsIcEENS_9allocatorIcEEEENS4_IS6_EEE16__destroy_vectorclB8nn180100Ev, symObjAddr: 0xDE8, symBinAddr: 0xAA70, symSize: 0x40 }
  - { offset: 0x271A6, size: 0x8, addend: 0x0, symName: __ZNSt3__16vectorINS_12basic_stringIcNS_11char_traitsIcEENS_9allocatorIcEEEENS4_IS6_EEE7__clearB8nn180100Ev, symObjAddr: 0xE28, symBinAddr: 0xAAB0, symSize: 0x4C }
  - { offset: 0x2734A, size: 0x8, addend: 0x0, symName: __ZNSt3__16vectorINS_12basic_stringIcNS_11char_traitsIcEENS_9allocatorIcEEEENS4_IS6_EEE7__clearB8nn180100Ev, symObjAddr: 0xE28, symBinAddr: 0xAAB0, symSize: 0x4C }
  - { offset: 0x27352, size: 0x8, addend: 0x0, symName: __ZNSt3__16__treeINS_12__value_typeINS_12basic_stringIcNS_11char_traitsIcEENS_9allocatorIcEEEES7_EENS_19__map_value_compareIS7_S8_NS_4lessIS7_EELb1EEENS5_IS8_EEE7destroyEPNS_11__tree_nodeIS8_PvEE, symObjAddr: 0xE74, symBinAddr: 0xAAFC, symSize: 0x48 }
  - { offset: 0x27639, size: 0x8, addend: 0x0, symName: __ZNSt3__16__treeINS_12__value_typeINS_12basic_stringIcNS_11char_traitsIcEENS_9allocatorIcEEEES7_EENS_19__map_value_compareIS7_S8_NS_4lessIS7_EELb1EEENS5_IS8_EEE7destroyEPNS_11__tree_nodeIS8_PvEE, symObjAddr: 0xE74, symBinAddr: 0xAAFC, symSize: 0x48 }
  - { offset: 0x27641, size: 0x8, addend: 0x0, symName: __ZNSt3__112__destroy_atB8nn180100INS_4pairIKNS_12basic_stringIcNS_11char_traitsIcEENS_9allocatorIcEEEES7_EELi0EEEvPT_, symObjAddr: 0xEBC, symBinAddr: 0xAB44, symSize: 0x44 }
  - { offset: 0x2792D, size: 0x8, addend: 0x0, symName: __ZNSt3__16__treeINS_12__value_typeINS_12basic_stringIcNS_11char_traitsIcEENS_9allocatorIcEEEEbEENS_19__map_value_compareIS7_S8_NS_4lessIS7_EELb1EEENS5_IS8_EEE7destroyEPNS_11__tree_nodeIS8_PvEE, symObjAddr: 0xF00, symBinAddr: 0xAB88, symSize: 0x50 }
  - { offset: 0x2EF02, size: 0x8, addend: 0x0, symName: "__ZN6Config12实名认证E", symObjAddr: 0x62F1, symBinAddr: 0xF3EA9, symSize: 0x0 }
  - { offset: 0x2EF20, size: 0x8, addend: 0x0, symName: "__ZN6Config9炫跑卡E", symObjAddr: 0x62F2, symBinAddr: 0xF3EAA, symSize: 0x0 }
  - { offset: 0x2EF3E, size: 0x8, addend: 0x0, symName: "__ZN6Config12广告奖励E", symObjAddr: 0x62F3, symBinAddr: 0xF3EAB, symSize: 0x0 }
  - { offset: 0x2EF5C, size: 0x8, addend: 0x0, symName: "__ZN6Config12解锁角色E", symObjAddr: 0x62F4, symBinAddr: 0xF3EAC, symSize: 0x0 }
  - { offset: 0x2EF7A, size: 0x8, addend: 0x0, symName: "__ZN6Config12解锁滑板E", symObjAddr: 0x62F5, symBinAddr: 0xF3EAD, symSize: 0x0 }
  - { offset: 0x2EF98, size: 0x8, addend: 0x0, symName: "__ZN6Config12解锁主题E", symObjAddr: 0x62F6, symBinAddr: 0xF3EAE, symSize: 0x0 }
  - { offset: 0x2EFB6, size: 0x8, addend: 0x0, symName: "__ZN6Config13解锁stickerE", symObjAddr: 0x62F7, symBinAddr: 0xF3EAF, symSize: 0x0 }
  - { offset: 0x2EFD4, size: 0x8, addend: 0x0, symName: "__ZN6Config12解锁背饰E", symObjAddr: 0x62F8, symBinAddr: 0xF3EB0, symSize: 0x0 }
  - { offset: 0x2EFF2, size: 0x8, addend: 0x0, symName: "__ZN6Config12无视碰撞E", symObjAddr: 0x62FC, symBinAddr: 0xF3EB4, symSize: 0x0 }
  - { offset: 0x2F010, size: 0x8, addend: 0x0, symName: "__ZN6Config12显示方框E", symObjAddr: 0x6300, symBinAddr: 0xF3EB8, symSize: 0x0 }
  - { offset: 0x2F02E, size: 0x8, addend: 0x0, symName: "__ZN6Config21显示已开启功能E", symObjAddr: 0x6302, symBinAddr: 0xF3EBA, symSize: 0x0 }
  - { offset: 0x2F04C, size: 0x8, addend: 0x0, symName: "__ZN6Config12无视道具E", symObjAddr: 0x6304, symBinAddr: 0xF3EBC, symSize: 0x0 }
  - { offset: 0x2F06A, size: 0x8, addend: 0x0, symName: "__ZN6Config12自动充能E", symObjAddr: 0x6306, symBinAddr: 0xF3EBE, symSize: 0x0 }
  - { offset: 0x2F088, size: 0x8, addend: 0x0, symName: "__ZN6Config21自定义消息内容E", symObjAddr: 0x6308, symBinAddr: 0xF3EC0, symSize: 0x0 }
  - { offset: 0x2F0A6, size: 0x8, addend: 0x0, symName: "__ZN6Config21修改成多少钥匙E", symObjAddr: 0x6310, symBinAddr: 0xF3EC8, symSize: 0x0 }
  - { offset: 0x2F0C4, size: 0x8, addend: 0x0, symName: "__ZN6Config18模型大小倍率E", symObjAddr: 0x6318, symBinAddr: 0xF3ED0, symSize: 0x0 }
  - { offset: 0x2F0E2, size: 0x8, addend: 0x0, symName: "__ZN6Config15重力修改为E", symObjAddr: 0x6320, symBinAddr: 0xF3ED8, symSize: 0x0 }
  - { offset: 0x2F100, size: 0x8, addend: 0x0, symName: __ZN6Config11screenScaleE, symObjAddr: 0x6358, symBinAddr: 0xF3EE0, symSize: 0x0 }
  - { offset: 0x3BA53, size: 0x8, addend: 0x0, symName: __ZNSt3__1L19piecewise_constructE, symObjAddr: 0x6FD8, symBinAddr: 0xA57DC, symSize: 0x0 }
  - { offset: 0x45CC2, size: 0x8, addend: 0x0, symName: __ZNSt3__119__allocate_at_leastB8nn180100INS_9allocatorI6EntityEEEENS_19__allocation_resultINS_16allocator_traitsIT_E7pointerEEERS6_m, symObjAddr: 0x47C0, symBinAddr: 0xF564, symSize: 0x44 }
  - { offset: 0x45DA3, size: 0x8, addend: 0x0, symName: __ZNSt3__119__allocate_at_leastB8nn180100INS_9allocatorIyEEEENS_19__allocation_resultINS_16allocator_traitsIT_E7pointerEEERS5_m, symObjAddr: 0x4810, symBinAddr: 0xF5A8, symSize: 0x34 }
  - { offset: 0x45FEF, size: 0x8, addend: 0x0, symName: __ZNSt3__127__tree_balance_after_insertB8nn180100IPNS_16__tree_node_baseIPvEEEEvT_S5_, symObjAddr: 0x4C94, symBinAddr: 0xF7F8, symSize: 0x198 }
  - { offset: 0x45FF7, size: 0x8, addend: 0x0, symName: __ZNSt3__110unique_ptrINS_11__tree_nodeINS_12__value_typeINS_12basic_stringIcNS_11char_traitsIcEENS_9allocatorIcEEEES8_EEPvEENS_22__tree_node_destructorINS6_ISB_EEEEE5resetB8nn180100EPSB_, symObjAddr: 0x4E2C, symBinAddr: 0xF990, symSize: 0x44 }
  - { offset: 0x463E3, size: 0x8, addend: 0x0, symName: __ZNSt3__119__allocate_at_leastB8nn180100INS_9allocatorINS_12basic_stringIcNS_11char_traitsIcEENS1_IcEEEEEEEENS_19__allocation_resultINS_16allocator_traitsIT_E7pointerEEERSA_m, symObjAddr: 0x4FF8, symBinAddr: 0xFB5C, symSize: 0x44 }
  - { offset: 0x463EB, size: 0x8, addend: 0x0, symName: __ZNSt3__114__split_bufferINS_12basic_stringIcNS_11char_traitsIcEENS_9allocatorIcEEEERNS4_IS6_EEED2Ev, symObjAddr: 0x503C, symBinAddr: 0xFBA0, symSize: 0x34 }
  - { offset: 0x46BAE, size: 0x8, addend: 0x0, symName: __ZNSt3__119__allocate_at_leastB8nn180100INS_9allocatorI11MemoryPatchEEEENS_19__allocation_resultINS_16allocator_traitsIT_E7pointerEEERS6_m, symObjAddr: 0x52DC, symBinAddr: 0xFE40, symSize: 0x34 }
  - { offset: 0x46BB6, size: 0x8, addend: 0x0, symName: __ZNSt3__19allocatorI11MemoryPatchE9constructB8nn180100IS1_JS1_EEEvPT_DpOT0_, symObjAddr: 0x5310, symBinAddr: 0xFE74, symSize: 0xD0 }
  - { offset: 0x471B7, size: 0x8, addend: 0x0, symName: __ZNSt3__130__uninitialized_allocator_copyB8nn180100INS_9allocatorINS_12basic_stringIcNS_11char_traitsIcEENS1_IcEEEEEEPKS6_S9_PS6_EET2_RT_T0_T1_SB_, symObjAddr: 0x5754, symBinAddr: 0x102B8, symSize: 0x70 }
  - { offset: 0x471BF, size: 0x8, addend: 0x0, symName: __ZNSt3__112basic_stringIcNS_11char_traitsIcEENS_9allocatorIcEEE25__init_copy_ctor_externalEPKcm, symObjAddr: 0x57C4, symBinAddr: 0x10328, symSize: 0x88 }
  - { offset: 0x48845, size: 0x8, addend: 0x0, symName: _showLogs, symObjAddr: 0xA4522, symBinAddr: 0x37A782, symSize: 0x0 }
  - { offset: 0x48860, size: 0x8, addend: 0x0, symName: _lightTheme, symObjAddr: 0x62F0, symBinAddr: 0xF3EA8, symSize: 0x0 }
  - { offset: 0x4886A, size: 0x8, addend: 0x0, symName: __Z9ChildViewRKNSt3__13mapINS_12basic_stringIcNS_11char_traitsIcEENS_9allocatorIcEEEEbNS_4lessIS6_EENS4_INS_4pairIKS6_bEEEEEEb, symObjAddr: 0x2E08, symBinAddr: 0xDC30, symSize: 0xB50 }
  - { offset: 0x48872, size: 0x8, addend: 0x0, symName: __Z3ESPv, symObjAddr: 0x3958, symBinAddr: 0xE780, symSize: 0x770 }
  - { offset: 0x4889B, size: 0x8, addend: 0x0, symName: __ZZ9ChildViewRKNSt3__13mapINS_12basic_stringIcNS_11char_traitsIcEENS_9allocatorIcEEEEbNS_4lessIS6_EENS4_INS_4pairIKS6_bEEEEEEbE9scoreText, symObjAddr: 0xA4528, symBinAddr: 0x37A878, symSize: 0x0 }
  - { offset: 0x4AB7B, size: 0x8, addend: 0x0, symName: __Z3ESPv, symObjAddr: 0x3958, symBinAddr: 0xE780, symSize: 0x770 }
  - { offset: 0x4AB83, size: 0x8, addend: 0x0, symName: __Z12mainFunctionv, symObjAddr: 0x40C8, symBinAddr: 0xEEF0, symSize: 0x2E8 }
  - { offset: 0x4ABAC, size: 0x8, addend: 0x0, symName: __ZZ3ESPvE9onceToken, symObjAddr: 0xA4548, symBinAddr: 0x37A898, symSize: 0x0 }
  - { offset: 0x4ABC7, size: 0x8, addend: 0x0, symName: __ZZ3ESPvE9loopTimer, symObjAddr: 0xA4550, symBinAddr: 0x37A8A0, symSize: 0x0 }
  - { offset: 0x4C1F1, size: 0x8, addend: 0x0, symName: __ZNSt3__16vectorI11MemoryPatchNS_9allocatorIS1_EEE26__swap_out_circular_bufferERNS_14__split_bufferIS1_RS3_EE, symObjAddr: 0x5240, symBinAddr: 0xFDA4, symSize: 0x9C }
  - { offset: 0x4C1F9, size: 0x8, addend: 0x0, symName: __ZNSt3__119__allocate_at_leastB8nn180100INS_9allocatorI11MemoryPatchEEEENS_19__allocation_resultINS_16allocator_traitsIT_E7pointerEEERS6_m, symObjAddr: 0x52DC, symBinAddr: 0xFE40, symSize: 0x34 }
  - { offset: 0x4C4D2, size: 0x8, addend: 0x0, symName: __ZNSt3__16vectorINS_12basic_stringIcNS_11char_traitsIcEENS_9allocatorIcEEEENS4_IS6_EEE26__swap_out_circular_bufferERNS_14__split_bufferIS6_RS7_EEPS6_, symObjAddr: 0x560C, symBinAddr: 0x10170, symSize: 0xC4 }
  - { offset: 0x4C4DA, size: 0x8, addend: 0x0, symName: __ZNKSt3__120__move_backward_loopINS_17_ClassicAlgPolicyEEclB8nn180100IPNS_12basic_stringIcNS_11char_traitsIcEENS_9allocatorIcEEEESA_SA_EENS_4pairIT_T1_EESC_T0_SD_, symObjAddr: 0x56D0, symBinAddr: 0x10234, symSize: 0x84 }
  - { offset: 0x4D7B2, size: 0x8, addend: 0x0, symName: __Z22ToggleButtonWithOffsetRNSt3__13mapINS_12basic_stringIcNS_11char_traitsIcEENS_9allocatorIcEEEEbNS_4lessIS6_EENS4_INS_4pairIKS6_bEEEEEEPKcSG_PbNS_6vectorIyNS4_IyEEEENSI_IS6_NS4_IS6_EEEEbS6_b, symObjAddr: 0xC0, symBinAddr: 0xAEE8, symSize: 0x844 }
  - { offset: 0x4D7BA, size: 0x8, addend: 0x0, symName: __ZNSt3__16vectorI11MemoryPatchNS_9allocatorIS1_EEE9push_backB8nn180100ERKS1_, symObjAddr: 0x904, symBinAddr: 0xB72C, symSize: 0x11C }
  - { offset: 0x4FC9D, size: 0x8, addend: 0x0, symName: __ZNSt3__16vectorI11MemoryPatchNS_9allocatorIS1_EEE9push_backB8nn180100ERKS1_, symObjAddr: 0x904, symBinAddr: 0xB72C, symSize: 0x11C }
  - { offset: 0x4FCA5, size: 0x8, addend: 0x0, symName: __Z18SimpleToggleButtonRNSt3__13mapINS_12basic_stringIcNS_11char_traitsIcEENS_9allocatorIcEEEEbNS_4lessIS6_EENS4_INS_4pairIKS6_bEEEEEEPKcSG_PbbS6_b, symObjAddr: 0xA20, symBinAddr: 0xB848, symSize: 0x690 }
  - { offset: 0x500C5, size: 0x8, addend: 0x0, symName: __Z18SimpleToggleButtonRNSt3__13mapINS_12basic_stringIcNS_11char_traitsIcEENS_9allocatorIcEEEEbNS_4lessIS6_EENS4_INS_4pairIKS6_bEEEEEEPKcSG_PbbS6_b, symObjAddr: 0xA20, symBinAddr: 0xB848, symSize: 0x690 }
  - { offset: 0x500CD, size: 0x8, addend: 0x0, symName: __ZNSt3__16vectorINS_12basic_stringIcNS_11char_traitsIcEENS_9allocatorIcEEEENS4_IS6_EEE6insertENS_11__wrap_iterIPKS6_EEOS6_, symObjAddr: 0x10B0, symBinAddr: 0xBED8, symSize: 0x180 }
  - { offset: 0x51E99, size: 0x8, addend: 0x0, symName: __ZNSt3__16vectorINS_12basic_stringIcNS_11char_traitsIcEENS_9allocatorIcEEEENS4_IS6_EEE6insertENS_11__wrap_iterIPKS6_EEOS6_, symObjAddr: 0x10B0, symBinAddr: 0xBED8, symSize: 0x180 }
  - { offset: 0x51EA1, size: 0x8, addend: 0x0, symName: __Z17Submenu0_PersonalRNSt3__13mapINS_12basic_stringIcNS_11char_traitsIcEENS_9allocatorIcEEEEbNS_4lessIS6_EENS4_INS_4pairIKS6_bEEEEEEbb, symObjAddr: 0x1230, symBinAddr: 0xC058, symSize: 0xF68 }
  - { offset: 0x524A1, size: 0x8, addend: 0x0, symName: __Z17Submenu0_PersonalRNSt3__13mapINS_12basic_stringIcNS_11char_traitsIcEENS_9allocatorIcEEEEbNS_4lessIS6_EENS4_INS_4pairIKS6_bEEEEEEbb, symObjAddr: 0x1230, symBinAddr: 0xC058, symSize: 0xF68 }
  - { offset: 0x52C22, size: 0x8, addend: 0x0, symName: __Z17Submenu0_PersonalRNSt3__13mapINS_12basic_stringIcNS_11char_traitsIcEENS_9allocatorIcEEEEbNS_4lessIS6_EENS4_INS_4pairIKS6_bEEEEEEbb, symObjAddr: 0x1230, symBinAddr: 0xC058, symSize: 0xF68 }
  - { offset: 0x52C2A, size: 0x8, addend: 0x0, symName: __Z12Submenu1_AimRNSt3__13mapINS_12basic_stringIcNS_11char_traitsIcEENS_9allocatorIcEEEEbNS_4lessIS6_EENS4_INS_4pairIKS6_bEEEEEEbb, symObjAddr: 0x2198, symBinAddr: 0xCFC0, symSize: 0x40C }
  - { offset: 0x5A297, size: 0x8, addend: 0x0, symName: __Z12Submenu1_AimRNSt3__13mapINS_12basic_stringIcNS_11char_traitsIcEENS_9allocatorIcEEEEbNS_4lessIS6_EENS4_INS_4pairIKS6_bEEEEEEbb, symObjAddr: 0x2198, symBinAddr: 0xCFC0, symSize: 0x40C }
  - { offset: 0x5A29F, size: 0x8, addend: 0x0, symName: __Z15Submenu2_VisualRNSt3__13mapINS_12basic_stringIcNS_11char_traitsIcEENS_9allocatorIcEEEEbNS_4lessIS6_EENS4_INS_4pairIKS6_bEEEEEEbb, symObjAddr: 0x25A4, symBinAddr: 0xD3CC, symSize: 0x1D0 }
  - { offset: 0x5BB02, size: 0x8, addend: 0x0, symName: __Z15Submenu2_VisualRNSt3__13mapINS_12basic_stringIcNS_11char_traitsIcEENS_9allocatorIcEEEEbNS_4lessIS6_EENS4_INS_4pairIKS6_bEEEEEEbb, symObjAddr: 0x25A4, symBinAddr: 0xD3CC, symSize: 0x1D0 }
  - { offset: 0x5BB0A, size: 0x8, addend: 0x0, symName: __Z15Submenu3_ServerRNSt3__13mapINS_12basic_stringIcNS_11char_traitsIcEENS_9allocatorIcEEEEbNS_4lessIS6_EENS4_INS_4pairIKS6_bEEEEEEbb, symObjAddr: 0x2774, symBinAddr: 0xD59C, symSize: 0x4A8 }
  - { offset: 0x5C4F9, size: 0x8, addend: 0x0, symName: __Z15Submenu3_ServerRNSt3__13mapINS_12basic_stringIcNS_11char_traitsIcEENS_9allocatorIcEEEEbNS_4lessIS6_EENS4_INS_4pairIKS6_bEEEEEEbb, symObjAddr: 0x2774, symBinAddr: 0xD59C, symSize: 0x4A8 }
  - { offset: 0x5C501, size: 0x8, addend: 0x0, symName: __Z17Submenu4_SettingsRNSt3__13mapINS_12basic_stringIcNS_11char_traitsIcEENS_9allocatorIcEEEEbNS_4lessIS6_EENS4_INS_4pairIKS6_bEEEEEEbb, symObjAddr: 0x2C1C, symBinAddr: 0xDA44, symSize: 0x184 }
  - { offset: 0x5E392, size: 0x8, addend: 0x0, symName: __Z17Submenu4_SettingsRNSt3__13mapINS_12basic_stringIcNS_11char_traitsIcEENS_9allocatorIcEEEEbNS_4lessIS6_EENS4_INS_4pairIKS6_bEEEEEEbb, symObjAddr: 0x2C1C, symBinAddr: 0xDA44, symSize: 0x184 }
  - { offset: 0x5E39A, size: 0x8, addend: 0x0, symName: __ZN7Console6renderEv, symObjAddr: 0x2DA0, symBinAddr: 0xDBC8, symSize: 0x68 }
  - { offset: 0x5F026, size: 0x8, addend: 0x0, symName: __ZN7Console6renderEv, symObjAddr: 0x2DA0, symBinAddr: 0xDBC8, symSize: 0x68 }
  - { offset: 0x5F02E, size: 0x8, addend: 0x0, symName: __Z9ChildViewRKNSt3__13mapINS_12basic_stringIcNS_11char_traitsIcEENS_9allocatorIcEEEEbNS_4lessIS6_EENS4_INS_4pairIKS6_bEEEEEEb, symObjAddr: 0x2E08, symBinAddr: 0xDC30, symSize: 0xB50 }
  - { offset: 0x5FB2B, size: 0x8, addend: 0x0, symName: __Z12mainFunctionv, symObjAddr: 0x40C8, symBinAddr: 0xEEF0, symSize: 0x2E8 }
  - { offset: 0x5FB33, size: 0x8, addend: 0x0, symName: ____Z3ESPv_block_invoke, symObjAddr: 0x43B0, symBinAddr: 0xF1D8, symSize: 0x68 }
  - { offset: 0x6059C, size: 0x8, addend: 0x0, symName: ____Z3ESPv_block_invoke, symObjAddr: 0x43B0, symBinAddr: 0xF1D8, symSize: 0x68 }
  - { offset: 0x60D4F, size: 0x8, addend: 0x0, symName: __Z11getAllDummyP51System_Collections_Generic_Dictionary_int__Dummy__o, symObjAddr: 0x449C, symBinAddr: 0xF240, symSize: 0x1A4 }
  - { offset: 0x60D57, size: 0x8, addend: 0x0, symName: __ZNSt3__16vectorI6EntityNS_9allocatorIS1_EEE18__assign_with_sizeB8nn180100IPKS1_S7_EEvT_T0_l, symObjAddr: 0x4640, symBinAddr: 0xF3E4, symSize: 0x134 }
  - { offset: 0x61757, size: 0x8, addend: 0x0, symName: __ZNSt3__16vectorI6EntityNS_9allocatorIS1_EEE18__assign_with_sizeB8nn180100IPKS1_S7_EEvT_T0_l, symObjAddr: 0x4640, symBinAddr: 0xF3E4, symSize: 0x134 }
  - { offset: 0x6175F, size: 0x8, addend: 0x0, symName: __ZNSt3__16vectorI6EntityNS_9allocatorIS1_EEE11__vallocateB8nn180100Em, symObjAddr: 0x4774, symBinAddr: 0xF518, symSize: 0x4C }
  - { offset: 0x61A18, size: 0x8, addend: 0x0, symName: __ZNSt3__16vectorI6EntityNS_9allocatorIS1_EEE11__vallocateB8nn180100Em, symObjAddr: 0x4774, symBinAddr: 0xF518, symSize: 0x4C }
  - { offset: 0x61A35, size: 0x8, addend: 0x0, symName: __ZNSt3__16vectorI6EntityNS_9allocatorIS1_EEE11__vallocateB8nn180100Em, symObjAddr: 0x4774, symBinAddr: 0xF518, symSize: 0x4C }
  - { offset: 0x620BF, size: 0x8, addend: 0x0, symName: __ZNSt3__16vectorI6EntityNS_9allocatorIS1_EEE11__vallocateB8nn180100Em, symObjAddr: 0x4774, symBinAddr: 0xF518, symSize: 0x4C }
  - { offset: 0x620C7, size: 0x8, addend: 0x0, symName: __ZNSt3__119__allocate_at_leastB8nn180100INS_9allocatorI6EntityEEEENS_19__allocation_resultINS_16allocator_traitsIT_E7pointerEEERS6_m, symObjAddr: 0x47C0, symBinAddr: 0xF564, symSize: 0x44 }
  - { offset: 0x62151, size: 0x8, addend: 0x0, symName: __ZNSt3__119__allocate_at_leastB8nn180100INS_9allocatorI6EntityEEEENS_19__allocation_resultINS_16allocator_traitsIT_E7pointerEEERS6_m, symObjAddr: 0x47C0, symBinAddr: 0xF564, symSize: 0x44 }
  - { offset: 0x6216E, size: 0x8, addend: 0x0, symName: __ZNSt3__119__allocate_at_leastB8nn180100INS_9allocatorI6EntityEEEENS_19__allocation_resultINS_16allocator_traitsIT_E7pointerEEERS6_m, symObjAddr: 0x47C0, symBinAddr: 0xF564, symSize: 0x44 }
  - { offset: 0x62BC0, size: 0x8, addend: 0x0, symName: __ZNSt3__16__treeINS_12__value_typeINS_12basic_stringIcNS_11char_traitsIcEENS_9allocatorIcEEEES7_EENS_19__map_value_compareIS7_S8_NS_4lessIS7_EELb1EEENS5_IS8_EEE25__emplace_unique_key_argsIS7_JRKNS_21piecewise_construct_tENS_5tupleIJOS7_EEENSJ_IJEEEEEENS_4pairINS_15__tree_iteratorIS8_PNS_11__tree_nodeIS8_PvEElEEbEERKT_DpOT0_, symObjAddr: 0x4A78, symBinAddr: 0xF5DC, symSize: 0xC4 }
  - { offset: 0x62BC8, size: 0x8, addend: 0x0, symName: __ZNSt3__16__treeINS_12__value_typeINS_12basic_stringIcNS_11char_traitsIcEENS_9allocatorIcEEEES7_EENS_19__map_value_compareIS7_S8_NS_4lessIS7_EELb1EEENS5_IS8_EEE12__find_equalIS7_EERPNS_16__tree_node_baseIPvEERPNS_15__tree_end_nodeISJ_EERKT_, symObjAddr: 0x4B3C, symBinAddr: 0xF6A0, symSize: 0x9C }
  - { offset: 0x631EB, size: 0x8, addend: 0x0, symName: __ZNSt3__16__treeINS_12__value_typeINS_12basic_stringIcNS_11char_traitsIcEENS_9allocatorIcEEEES7_EENS_19__map_value_compareIS7_S8_NS_4lessIS7_EELb1EEENS5_IS8_EEE12__find_equalIS7_EERPNS_16__tree_node_baseIPvEERPNS_15__tree_end_nodeISJ_EERKT_, symObjAddr: 0x4B3C, symBinAddr: 0xF6A0, symSize: 0x9C }
  - { offset: 0x631F3, size: 0x8, addend: 0x0, symName: __ZNSt3__16__treeINS_12__value_typeINS_12basic_stringIcNS_11char_traitsIcEENS_9allocatorIcEEEES7_EENS_19__map_value_compareIS7_S8_NS_4lessIS7_EELb1EEENS5_IS8_EEE16__insert_node_atEPNS_15__tree_end_nodeIPNS_16__tree_node_baseIPvEEEERSJ_SJ_, symObjAddr: 0x4BD8, symBinAddr: 0xF73C, symSize: 0x54 }
  - { offset: 0x63323, size: 0x8, addend: 0x0, symName: __ZNSt3__16__treeINS_12__value_typeINS_12basic_stringIcNS_11char_traitsIcEENS_9allocatorIcEEEES7_EENS_19__map_value_compareIS7_S8_NS_4lessIS7_EELb1EEENS5_IS8_EEE16__insert_node_atEPNS_15__tree_end_nodeIPNS_16__tree_node_baseIPvEEEERSJ_SJ_, symObjAddr: 0x4BD8, symBinAddr: 0xF73C, symSize: 0x54 }
  - { offset: 0x6332B, size: 0x8, addend: 0x0, symName: __ZNKSt3__14lessINS_12basic_stringIcNS_11char_traitsIcEENS_9allocatorIcEEEEEclB8nn180100ERKS6_S9_, symObjAddr: 0x4C2C, symBinAddr: 0xF790, symSize: 0x68 }
  - { offset: 0x63466, size: 0x8, addend: 0x0, symName: __ZNKSt3__14lessINS_12basic_stringIcNS_11char_traitsIcEENS_9allocatorIcEEEEEclB8nn180100ERKS6_S9_, symObjAddr: 0x4C2C, symBinAddr: 0xF790, symSize: 0x68 }
  - { offset: 0x6346E, size: 0x8, addend: 0x0, symName: __ZNSt3__127__tree_balance_after_insertB8nn180100IPNS_16__tree_node_baseIPvEEEEvT_S5_, symObjAddr: 0x4C94, symBinAddr: 0xF7F8, symSize: 0x198 }
  - { offset: 0x636F9, size: 0x8, addend: 0x0, symName: __ZNSt3__110unique_ptrINS_11__tree_nodeINS_12__value_typeINS_12basic_stringIcNS_11char_traitsIcEENS_9allocatorIcEEEES8_EEPvEENS_22__tree_node_destructorINS6_ISB_EEEEE5resetB8nn180100EPSB_, symObjAddr: 0x4E2C, symBinAddr: 0xF990, symSize: 0x44 }
  - { offset: 0x63701, size: 0x8, addend: 0x0, symName: __ZNSt3__16__treeINS_12__value_typeINS_12basic_stringIcNS_11char_traitsIcEENS_9allocatorIcEEEEbEENS_19__map_value_compareIS7_S8_NS_4lessIS7_EELb1EEENS5_IS8_EEE25__emplace_unique_key_argsIS7_JRKNS_21piecewise_construct_tENS_5tupleIJOS7_EEENSJ_IJEEEEEENS_4pairINS_15__tree_iteratorIS8_PNS_11__tree_nodeIS8_PvEElEEbEERKT_DpOT0_, symObjAddr: 0x4E70, symBinAddr: 0xF9D4, symSize: 0x98 }
  - { offset: 0x63C5C, size: 0x8, addend: 0x0, symName: __ZNSt3__16__treeINS_12__value_typeINS_12basic_stringIcNS_11char_traitsIcEENS_9allocatorIcEEEEbEENS_19__map_value_compareIS7_S8_NS_4lessIS7_EELb1EEENS5_IS8_EEE25__emplace_unique_key_argsIS7_JRKNS_21piecewise_construct_tENS_5tupleIJOS7_EEENSJ_IJEEEEEENS_4pairINS_15__tree_iteratorIS8_PNS_11__tree_nodeIS8_PvEElEEbEERKT_DpOT0_, symObjAddr: 0x4E70, symBinAddr: 0xF9D4, symSize: 0x98 }
  - { offset: 0x63C64, size: 0x8, addend: 0x0, symName: __ZNSt3__16__treeINS_12__value_typeINS_12basic_stringIcNS_11char_traitsIcEENS_9allocatorIcEEEEbEENS_19__map_value_compareIS7_S8_NS_4lessIS7_EELb1EEENS5_IS8_EEE12__find_equalIS7_EERPNS_16__tree_node_baseIPvEERPNS_15__tree_end_nodeISJ_EERKT_, symObjAddr: 0x4F08, symBinAddr: 0xFA6C, symSize: 0x9C }
  - { offset: 0x64074, size: 0x8, addend: 0x0, symName: __ZNSt3__16__treeINS_12__value_typeINS_12basic_stringIcNS_11char_traitsIcEENS_9allocatorIcEEEEbEENS_19__map_value_compareIS7_S8_NS_4lessIS7_EELb1EEENS5_IS8_EEE12__find_equalIS7_EERPNS_16__tree_node_baseIPvEERPNS_15__tree_end_nodeISJ_EERKT_, symObjAddr: 0x4F08, symBinAddr: 0xFA6C, symSize: 0x9C }
  - { offset: 0x6407C, size: 0x8, addend: 0x0, symName: __ZNSt3__16__treeINS_12__value_typeINS_12basic_stringIcNS_11char_traitsIcEENS_9allocatorIcEEEEbEENS_19__map_value_compareIS7_S8_NS_4lessIS7_EELb1EEENS5_IS8_EEE16__insert_node_atEPNS_15__tree_end_nodeIPNS_16__tree_node_baseIPvEEEERSJ_SJ_, symObjAddr: 0x4FA4, symBinAddr: 0xFB08, symSize: 0x54 }
  - { offset: 0x641AC, size: 0x8, addend: 0x0, symName: __ZNSt3__16__treeINS_12__value_typeINS_12basic_stringIcNS_11char_traitsIcEENS_9allocatorIcEEEEbEENS_19__map_value_compareIS7_S8_NS_4lessIS7_EELb1EEENS5_IS8_EEE16__insert_node_atEPNS_15__tree_end_nodeIPNS_16__tree_node_baseIPvEEEERSJ_SJ_, symObjAddr: 0x4FA4, symBinAddr: 0xFB08, symSize: 0x54 }
  - { offset: 0x641B4, size: 0x8, addend: 0x0, symName: __ZNSt3__119__allocate_at_leastB8nn180100INS_9allocatorINS_12basic_stringIcNS_11char_traitsIcEENS1_IcEEEEEEEENS_19__allocation_resultINS_16allocator_traitsIT_E7pointerEEERSA_m, symObjAddr: 0x4FF8, symBinAddr: 0xFB5C, symSize: 0x44 }
  - { offset: 0x6423A, size: 0x8, addend: 0x0, symName: __ZNSt3__114__split_bufferINS_12basic_stringIcNS_11char_traitsIcEENS_9allocatorIcEEEERNS4_IS6_EEED2Ev, symObjAddr: 0x503C, symBinAddr: 0xFBA0, symSize: 0x34 }
  - { offset: 0x64242, size: 0x8, addend: 0x0, symName: __ZNSt3__114__split_bufferINS_12basic_stringIcNS_11char_traitsIcEENS_9allocatorIcEEEERNS4_IS6_EEE17__destruct_at_endB8nn180100EPS6_, symObjAddr: 0x5070, symBinAddr: 0xFBD4, symSize: 0x54 }
  - { offset: 0x643AB, size: 0x8, addend: 0x0, symName: __ZNSt3__114__split_bufferINS_12basic_stringIcNS_11char_traitsIcEENS_9allocatorIcEEEERNS4_IS6_EEE17__destruct_at_endB8nn180100EPS6_, symObjAddr: 0x5070, symBinAddr: 0xFBD4, symSize: 0x54 }
  - { offset: 0x643B3, size: 0x8, addend: 0x0, symName: __ZNKSt3__111__move_loopINS_17_ClassicAlgPolicyEEclB8nn180100IPNS_12basic_stringIcNS_11char_traitsIcEENS_9allocatorIcEEEESA_SA_EENS_4pairIT_T1_EESC_T0_SD_, symObjAddr: 0x50C4, symBinAddr: 0xFC28, symSize: 0x70 }
  - { offset: 0x645BB, size: 0x8, addend: 0x0, symName: __ZNKSt3__111__move_loopINS_17_ClassicAlgPolicyEEclB8nn180100IPNS_12basic_stringIcNS_11char_traitsIcEENS_9allocatorIcEEEESA_SA_EENS_4pairIT_T1_EESC_T0_SD_, symObjAddr: 0x50C4, symBinAddr: 0xFC28, symSize: 0x70 }
  - { offset: 0x645C3, size: 0x8, addend: 0x0, symName: __ZNSt3__19allocatorI11MemoryPatchE9constructB8nn180100IS1_JRKS1_EEEvPT_DpOT0_, symObjAddr: 0x5134, symBinAddr: 0xFC98, symSize: 0xD0 }
  - { offset: 0x64CE4, size: 0x8, addend: 0x0, symName: __ZNSt3__19allocatorI11MemoryPatchE9constructB8nn180100IS1_JRKS1_EEEvPT_DpOT0_, symObjAddr: 0x5134, symBinAddr: 0xFC98, symSize: 0xD0 }
  - { offset: 0x64CEC, size: 0x8, addend: 0x0, symName: __ZNSt3__16vectorIhNS_9allocatorIhEEE11__vallocateB8nn180100Em, symObjAddr: 0x5204, symBinAddr: 0xFD68, symSize: 0x3C }
  - { offset: 0x65653, size: 0x8, addend: 0x0, symName: __ZNSt3__16vectorIhNS_9allocatorIhEEE11__vallocateB8nn180100Em, symObjAddr: 0x5204, symBinAddr: 0xFD68, symSize: 0x3C }
  - { offset: 0x6565B, size: 0x8, addend: 0x0, symName: __ZNSt3__16vectorI11MemoryPatchNS_9allocatorIS1_EEE26__swap_out_circular_bufferERNS_14__split_bufferIS1_RS3_EE, symObjAddr: 0x5240, symBinAddr: 0xFDA4, symSize: 0x9C }
  - { offset: 0x6577A, size: 0x8, addend: 0x0, symName: __ZNSt3__16vectorI11MemoryPatchNS_9allocatorIS1_EEE26__swap_out_circular_bufferERNS_14__split_bufferIS1_RS3_EE, symObjAddr: 0x5240, symBinAddr: 0xFDA4, symSize: 0x9C }
  - { offset: 0x65797, size: 0x8, addend: 0x0, symName: __ZNSt3__16vectorI11MemoryPatchNS_9allocatorIS1_EEE26__swap_out_circular_bufferERNS_14__split_bufferIS1_RS3_EE, symObjAddr: 0x5240, symBinAddr: 0xFDA4, symSize: 0x9C }
  - { offset: 0x658AA, size: 0x8, addend: 0x0, symName: __ZNSt3__19allocatorI11MemoryPatchE9constructB8nn180100IS1_JS1_EEEvPT_DpOT0_, symObjAddr: 0x5310, symBinAddr: 0xFE74, symSize: 0xD0 }
  - { offset: 0x658B2, size: 0x8, addend: 0x0, symName: __ZNSt3__114__split_bufferI11MemoryPatchRNS_9allocatorIS1_EEED2Ev, symObjAddr: 0x53E0, symBinAddr: 0xFF44, symSize: 0x4C }
  - { offset: 0x66249, size: 0x8, addend: 0x0, symName: __ZNSt3__114__split_bufferI11MemoryPatchRNS_9allocatorIS1_EEED2Ev, symObjAddr: 0x53E0, symBinAddr: 0xFF44, symSize: 0x4C }
  - { offset: 0x66251, size: 0x8, addend: 0x0, symName: __ZNSt3__16vectorINS_12basic_stringIcNS_11char_traitsIcEENS_9allocatorIcEEEENS4_IS6_EEE12__move_rangeEPS6_S9_S9_, symObjAddr: 0x542C, symBinAddr: 0xFF90, symSize: 0x6C }
  - { offset: 0x66438, size: 0x8, addend: 0x0, symName: __ZNSt3__16vectorINS_12basic_stringIcNS_11char_traitsIcEENS_9allocatorIcEEEENS4_IS6_EEE12__move_rangeEPS6_S9_S9_, symObjAddr: 0x542C, symBinAddr: 0xFF90, symSize: 0x6C }
  - { offset: 0x66440, size: 0x8, addend: 0x0, symName: __ZNSt3__114__split_bufferINS_12basic_stringIcNS_11char_traitsIcEENS_9allocatorIcEEEERNS4_IS6_EEE9push_backEOS6_, symObjAddr: 0x5498, symBinAddr: 0xFFFC, symSize: 0x174 }
  - { offset: 0x66876, size: 0x8, addend: 0x0, symName: __ZNSt3__114__split_bufferINS_12basic_stringIcNS_11char_traitsIcEENS_9allocatorIcEEEERNS4_IS6_EEE9push_backEOS6_, symObjAddr: 0x5498, symBinAddr: 0xFFFC, symSize: 0x174 }
  - { offset: 0x6687E, size: 0x8, addend: 0x0, symName: __ZNSt3__16vectorINS_12basic_stringIcNS_11char_traitsIcEENS_9allocatorIcEEEENS4_IS6_EEE26__swap_out_circular_bufferERNS_14__split_bufferIS6_RS7_EEPS6_, symObjAddr: 0x560C, symBinAddr: 0x10170, symSize: 0xC4 }
  - { offset: 0x66F91, size: 0x8, addend: 0x0, symName: __ZNKSt3__120__move_backward_loopINS_17_ClassicAlgPolicyEEclB8nn180100IPNS_12basic_stringIcNS_11char_traitsIcEENS_9allocatorIcEEEESA_SA_EENS_4pairIT_T1_EESC_T0_SD_, symObjAddr: 0x56D0, symBinAddr: 0x10234, symSize: 0x84 }
  - { offset: 0x66F99, size: 0x8, addend: 0x0, symName: __ZNSt3__130__uninitialized_allocator_copyB8nn180100INS_9allocatorINS_12basic_stringIcNS_11char_traitsIcEENS1_IcEEEEEEPKS6_S9_PS6_EET2_RT_T0_T1_SB_, symObjAddr: 0x5754, symBinAddr: 0x102B8, symSize: 0x70 }
  - { offset: 0x6734C, size: 0x8, addend: 0x0, symName: __ZNSt3__112basic_stringIcNS_11char_traitsIcEENS_9allocatorIcEEE25__init_copy_ctor_externalEPKcm, symObjAddr: 0x57C4, symBinAddr: 0x10328, symSize: 0x88 }
  - { offset: 0x67354, size: 0x8, addend: 0x0, symName: __ZNSt3__112basic_stringIcNS_11char_traitsIcEENS_9allocatorIcEEEC2B8nn180100ENS_24__uninitialized_size_tagEmRKS4_, symObjAddr: 0x584C, symBinAddr: 0x103B0, symSize: 0x80 }
  - { offset: 0x67588, size: 0x8, addend: 0x0, symName: __ZNSt3__112basic_stringIcNS_11char_traitsIcEENS_9allocatorIcEEEC2B8nn180100ENS_24__uninitialized_size_tagEmRKS4_, symObjAddr: 0x584C, symBinAddr: 0x103B0, symSize: 0x80 }
  - { offset: 0x675A5, size: 0x8, addend: 0x0, symName: __ZNSt3__112basic_stringIcNS_11char_traitsIcEENS_9allocatorIcEEEC2B8nn180100ENS_24__uninitialized_size_tagEmRKS4_, symObjAddr: 0x584C, symBinAddr: 0x103B0, symSize: 0x80 }
  - { offset: 0x67856, size: 0x8, addend: 0x0, symName: __ZNSt3__112basic_stringIcNS_11char_traitsIcEENS_9allocatorIcEEEC2B8nn180100ENS_24__uninitialized_size_tagEmRKS4_, symObjAddr: 0x584C, symBinAddr: 0x103B0, symSize: 0x80 }
  - { offset: 0x6785E, size: 0x8, addend: 0x0, symName: __ZNSt3__16__treeINS_12__value_typeINS_12basic_stringIcNS_11char_traitsIcEENS_9allocatorIcEEEES7_EENS_19__map_value_compareIS7_S8_NS_4lessIS7_EELb1EEENS5_IS8_EEE25__emplace_unique_key_argsIS7_JRKNS_21piecewise_construct_tENS_5tupleIJRKS7_EEENSJ_IJEEEEEENS_4pairINS_15__tree_iteratorIS8_PNS_11__tree_nodeIS8_PvEElEEbEERKT_DpOT0_, symObjAddr: 0x58CC, symBinAddr: 0x10430, symSize: 0xA8 }
  - { offset: 0x67AC6, size: 0x8, addend: 0x0, symName: __ZNSt3__16__treeINS_12__value_typeINS_12basic_stringIcNS_11char_traitsIcEENS_9allocatorIcEEEES7_EENS_19__map_value_compareIS7_S8_NS_4lessIS7_EELb1EEENS5_IS8_EEE25__emplace_unique_key_argsIS7_JRKNS_21piecewise_construct_tENS_5tupleIJRKS7_EEENSJ_IJEEEEEENS_4pairINS_15__tree_iteratorIS8_PNS_11__tree_nodeIS8_PvEElEEbEERKT_DpOT0_, symObjAddr: 0x58CC, symBinAddr: 0x10430, symSize: 0xA8 }
  - { offset: 0x67AE3, size: 0x8, addend: 0x0, symName: __ZNSt3__16__treeINS_12__value_typeINS_12basic_stringIcNS_11char_traitsIcEENS_9allocatorIcEEEES7_EENS_19__map_value_compareIS7_S8_NS_4lessIS7_EELb1EEENS5_IS8_EEE25__emplace_unique_key_argsIS7_JRKNS_21piecewise_construct_tENS_5tupleIJRKS7_EEENSJ_IJEEEEEENS_4pairINS_15__tree_iteratorIS8_PNS_11__tree_nodeIS8_PvEElEEbEERKT_DpOT0_, symObjAddr: 0x58CC, symBinAddr: 0x10430, symSize: 0xA8 }
  - { offset: 0x67B18, size: 0x8, addend: 0x0, symName: __ZNSt3__16__treeINS_12__value_typeINS_12basic_stringIcNS_11char_traitsIcEENS_9allocatorIcEEEES7_EENS_19__map_value_compareIS7_S8_NS_4lessIS7_EELb1EEENS5_IS8_EEE25__emplace_unique_key_argsIS7_JRKNS_21piecewise_construct_tENS_5tupleIJRKS7_EEENSJ_IJEEEEEENS_4pairINS_15__tree_iteratorIS8_PNS_11__tree_nodeIS8_PvEElEEbEERKT_DpOT0_, symObjAddr: 0x58CC, symBinAddr: 0x10430, symSize: 0xA8 }
  - { offset: 0x67B20, size: 0x8, addend: 0x0, symName: __ZNSt3__16__treeINS_12__value_typeINS_12basic_stringIcNS_11char_traitsIcEENS_9allocatorIcEEEES7_EENS_19__map_value_compareIS7_S8_NS_4lessIS7_EELb1EEENS5_IS8_EEE16__construct_nodeIJRKNS_21piecewise_construct_tENS_5tupleIJRKS7_EEENSJ_IJEEEEEENS_10unique_ptrINS_11__tree_nodeIS8_PvEENS_22__tree_node_destructorINS5_ISR_EEEEEEDpOT_, symObjAddr: 0x5974, symBinAddr: 0x104D8, symSize: 0x94 }
  - { offset: 0x67FD0, size: 0x8, addend: 0x0, symName: __ZNSt3__16__treeINS_12__value_typeINS_12basic_stringIcNS_11char_traitsIcEENS_9allocatorIcEEEES7_EENS_19__map_value_compareIS7_S8_NS_4lessIS7_EELb1EEENS5_IS8_EEE16__construct_nodeIJRKNS_21piecewise_construct_tENS_5tupleIJRKS7_EEENSJ_IJEEEEEENS_10unique_ptrINS_11__tree_nodeIS8_PvEENS_22__tree_node_destructorINS5_ISR_EEEEEEDpOT_, symObjAddr: 0x5974, symBinAddr: 0x104D8, symSize: 0x94 }
  - { offset: 0x68683, size: 0x8, addend: 0x0, symName: __ZN10KittyArm648bit_fromEji, symObjAddr: 0x0, symBinAddr: 0x1082C, symSize: 0x14 }
  - { offset: 0x686A0, size: 0x8, addend: 0x0, symName: __ZN10KittyArm648bit_fromEji, symObjAddr: 0x0, symBinAddr: 0x1082C, symSize: 0x14 }
  - { offset: 0x686A8, size: 0x8, addend: 0x0, symName: __ZN10KittyArm649bits_fromEjii, symObjAddr: 0x14, symBinAddr: 0x10840, symSize: 0x14 }
  - { offset: 0x686EC, size: 0x8, addend: 0x0, symName: __ZN10KittyArm649bits_fromEjii, symObjAddr: 0x14, symBinAddr: 0x10840, symSize: 0x14 }
  - { offset: 0x686F4, size: 0x8, addend: 0x0, symName: __ZN10KittyArm6411is_insn_adrEj, symObjAddr: 0x28, symBinAddr: 0x10854, symSize: 0x18 }
  - { offset: 0x6872C, size: 0x8, addend: 0x0, symName: __ZN10KittyArm6411is_insn_adrEj, symObjAddr: 0x28, symBinAddr: 0x10854, symSize: 0x18 }
  - { offset: 0x68734, size: 0x8, addend: 0x0, symName: __ZN10KittyArm6412is_insn_adrpEj, symObjAddr: 0x40, symBinAddr: 0x1086C, symSize: 0x18 }
  - { offset: 0x68755, size: 0x8, addend: 0x0, symName: __ZN10KittyArm6412is_insn_adrpEj, symObjAddr: 0x40, symBinAddr: 0x1086C, symSize: 0x18 }
  - { offset: 0x6875D, size: 0x8, addend: 0x0, symName: __ZN10KittyArm6414decode_adr_immEjPx, symObjAddr: 0x58, symBinAddr: 0x10884, symSize: 0x58 }
  - { offset: 0x687B4, size: 0x8, addend: 0x0, symName: __ZN10KittyArm6414decode_adr_immEjPx, symObjAddr: 0x58, symBinAddr: 0x10884, symSize: 0x58 }
  - { offset: 0x687BC, size: 0x8, addend: 0x0, symName: __ZN10KittyArm6417decode_addsub_immEj, symObjAddr: 0xB0, symBinAddr: 0x108DC, symSize: 0x14 }
  - { offset: 0x688B0, size: 0x8, addend: 0x0, symName: __ZN10KittyArm6417decode_addsub_immEj, symObjAddr: 0xB0, symBinAddr: 0x108DC, symSize: 0x14 }
  - { offset: 0x688B8, size: 0x8, addend: 0x0, symName: __ZN10KittyArm6410is_insn_ldEj, symObjAddr: 0xC4, symBinAddr: 0x108F0, symSize: 0x8 }
  - { offset: 0x68913, size: 0x8, addend: 0x0, symName: __ZN10KittyArm6417decode_addsub_immEj, symObjAddr: 0xB0, symBinAddr: 0x108DC, symSize: 0x14 }
  - { offset: 0x6894A, size: 0x8, addend: 0x0, symName: __ZN10KittyArm6410is_insn_ldEj, symObjAddr: 0xC4, symBinAddr: 0x108F0, symSize: 0x8 }
  - { offset: 0x68952, size: 0x8, addend: 0x0, symName: __ZN10KittyArm6412is_insn_ldstEj, symObjAddr: 0xCC, symBinAddr: 0x108F8, symSize: 0x18 }
  - { offset: 0x68984, size: 0x8, addend: 0x0, symName: __ZN10KittyArm6412is_insn_ldstEj, symObjAddr: 0xCC, symBinAddr: 0x108F8, symSize: 0x18 }
  - { offset: 0x6898C, size: 0x8, addend: 0x0, symName: __ZN10KittyArm6417is_insn_ldst_uimmEj, symObjAddr: 0xE4, symBinAddr: 0x10910, symSize: 0x18 }
  - { offset: 0x689BF, size: 0x8, addend: 0x0, symName: __ZN10KittyArm6417is_insn_ldst_uimmEj, symObjAddr: 0xE4, symBinAddr: 0x10910, symSize: 0x18 }
  - { offset: 0x689C7, size: 0x8, addend: 0x0, symName: __ZN10KittyArm6418decode_ldrstr_uimmEjPi, symObjAddr: 0xFC, symBinAddr: 0x10928, symSize: 0x30 }
  - { offset: 0x68A0D, size: 0x8, addend: 0x0, symName: __ZN10KittyArm6418decode_ldrstr_uimmEjPi, symObjAddr: 0xFC, symBinAddr: 0x10928, symSize: 0x30 }
  - { offset: 0x68B40, size: 0x8, addend: 0x0, symName: __ZN11KittyMemory20setAddressProtectionEPvmi, symObjAddr: 0x0, symBinAddr: 0x10958, symSize: 0x88 }
  - { offset: 0x68B68, size: 0x8, addend: 0x0, symName: __Z16findMSHookMemoryPvPKvm, symObjAddr: 0x320, symBinAddr: 0x10C78, symSize: 0x8C }
  - { offset: 0x68B70, size: 0x8, addend: 0x0, symName: __ZN11KittyMemory7memReadEPvPKvm, symObjAddr: 0x3AC, symBinAddr: 0x10D04, symSize: 0x4C }
  - { offset: 0x68B9F, size: 0x8, addend: 0x0, symName: __ZZ16findMSHookMemoryPvPKvmE7checked, symObjAddr: 0x11168, symBinAddr: 0x37A8B0, symSize: 0x0 }
  - { offset: 0x68BBF, size: 0x8, addend: 0x0, symName: __ZZ16findMSHookMemoryPvPKvmE5fnPtr, symObjAddr: 0x11170, symBinAddr: 0x37A8B8, symSize: 0x0 }
  - { offset: 0x68C6D, size: 0x8, addend: 0x0, symName: __ZN11KittyMemory20setAddressProtectionEPvmi, symObjAddr: 0x0, symBinAddr: 0x10958, symSize: 0x88 }
  - { offset: 0x68C75, size: 0x8, addend: 0x0, symName: __ZN11KittyMemory11getPageInfoEPvP30vm_region_submap_short_info_64, symObjAddr: 0x88, symBinAddr: 0x109E0, symSize: 0x4C }
  - { offset: 0x68CF4, size: 0x8, addend: 0x0, symName: __ZN11KittyMemory11getPageInfoEPvP30vm_region_submap_short_info_64, symObjAddr: 0x88, symBinAddr: 0x109E0, symSize: 0x4C }
  - { offset: 0x68CFC, size: 0x8, addend: 0x0, symName: __ZN11KittyMemory8memWriteEPvPKvm, symObjAddr: 0xD4, symBinAddr: 0x10A2C, symSize: 0x24C }
  - { offset: 0x68DCA, size: 0x8, addend: 0x0, symName: __ZN11KittyMemory8memWriteEPvPKvm, symObjAddr: 0xD4, symBinAddr: 0x10A2C, symSize: 0x24C }
  - { offset: 0x68DD2, size: 0x8, addend: 0x0, symName: __Z16findMSHookMemoryPvPKvm, symObjAddr: 0x320, symBinAddr: 0x10C78, symSize: 0x8C }
  - { offset: 0x68F4D, size: 0x8, addend: 0x0, symName: __ZN11KittyMemory7memReadEPvPKvm, symObjAddr: 0x3AC, symBinAddr: 0x10D04, symSize: 0x4C }
  - { offset: 0x68F55, size: 0x8, addend: 0x0, symName: __ZN11KittyMemory11read2HexStrEPKvm, symObjAddr: 0x3F8, symBinAddr: 0x10D50, symSize: 0x114 }
  - { offset: 0x68FD3, size: 0x8, addend: 0x0, symName: __ZN11KittyMemory11read2HexStrEPKvm, symObjAddr: 0x3F8, symBinAddr: 0x10D50, symSize: 0x114 }
  - { offset: 0x68FDB, size: 0x8, addend: 0x0, symName: __ZN11KittyMemory11getBaseInfoEv, symObjAddr: 0x50C, symBinAddr: 0x10E64, symSize: 0x118 }
  - { offset: 0x693EC, size: 0x8, addend: 0x0, symName: __ZN11KittyMemory11getBaseInfoEv, symObjAddr: 0x50C, symBinAddr: 0x10E64, symSize: 0x118 }
  - { offset: 0x693F4, size: 0x8, addend: 0x0, symName: __ZN11KittyMemory17getMemoryFileInfoERKNSt3__112basic_stringIcNS0_11char_traitsIcEENS0_9allocatorIcEEEE, symObjAddr: 0x624, symBinAddr: 0x10F7C, symSize: 0x174 }
  - { offset: 0x69974, size: 0x8, addend: 0x0, symName: __ZN11KittyMemory17getMemoryFileInfoERKNSt3__112basic_stringIcNS0_11char_traitsIcEENS0_9allocatorIcEEEE, symObjAddr: 0x624, symBinAddr: 0x10F7C, symSize: 0x174 }
  - { offset: 0x6997C, size: 0x8, addend: 0x0, symName: __ZN11KittyMemory18getAbsoluteAddressEPKcm, symObjAddr: 0x798, symBinAddr: 0x110F0, symSize: 0x70 }
  - { offset: 0x69C9D, size: 0x8, addend: 0x0, symName: __ZN11KittyMemory18getAbsoluteAddressEPKcm, symObjAddr: 0x798, symBinAddr: 0x110F0, symSize: 0x70 }
  - { offset: 0x69CC3, size: 0x8, addend: 0x0, symName: __ZN11KittyMemory18getAbsoluteAddressEPKcm, symObjAddr: 0x798, symBinAddr: 0x110F0, symSize: 0x70 }
  - { offset: 0x69EEA, size: 0x8, addend: 0x0, symName: __ZN11KittyMemory18getAbsoluteAddressEPKcm, symObjAddr: 0x798, symBinAddr: 0x110F0, symSize: 0x70 }
  - { offset: 0x69EF2, size: 0x8, addend: 0x0, symName: __ZNSt3__112basic_stringIcNS_11char_traitsIcEENS_9allocatorIcEEEC2B8nn180100Emc, symObjAddr: 0x808, symBinAddr: 0x11160, symSize: 0xA4 }
  - { offset: 0x6DB88, size: 0x8, addend: 0x0, symName: __ZNSt3__112basic_stringIcNS_11char_traitsIcEENS_9allocatorIcEEEC2B8nn180100Emc, symObjAddr: 0x808, symBinAddr: 0x11160, symSize: 0xA4 }
  - { offset: 0x6DF73, size: 0x8, addend: 0x0, symName: __ZN12KittyScanner7compareEPKcS1_S1_, symObjAddr: 0x0, symBinAddr: 0x11204, symSize: 0x44 }
  - { offset: 0x74B1F, size: 0x8, addend: 0x0, symName: __ZNSt3__119__allocate_at_leastB8nn180100INS_9allocatorImEEEENS_19__allocation_resultINS_16allocator_traitsIT_E7pointerEEERS5_m, symObjAddr: 0x624, symBinAddr: 0x11828, symSize: 0x34 }
  - { offset: 0x75376, size: 0x8, addend: 0x0, symName: __ZN12KittyScanner7compareEPKcS1_S1_, symObjAddr: 0x0, symBinAddr: 0x11204, symSize: 0x44 }
  - { offset: 0x7537E, size: 0x8, addend: 0x0, symName: __ZN12KittyScanner11findInRangeEmmPKcS1_, symObjAddr: 0x44, symBinAddr: 0x11248, symSize: 0xC0 }
  - { offset: 0x753FA, size: 0x8, addend: 0x0, symName: __ZN12KittyScanner11findInRangeEmmPKcS1_, symObjAddr: 0x44, symBinAddr: 0x11248, symSize: 0xC0 }
  - { offset: 0x75402, size: 0x8, addend: 0x0, symName: __ZN12KittyScanner12findBytesAllEPK11mach_headerPKcS4_S4_, symObjAddr: 0x104, symBinAddr: 0x11308, symSize: 0x188 }
  - { offset: 0x75515, size: 0x8, addend: 0x0, symName: __ZN12KittyScanner12findBytesAllEPK11mach_headerPKcS4_S4_, symObjAddr: 0x104, symBinAddr: 0x11308, symSize: 0x188 }
  - { offset: 0x7551D, size: 0x8, addend: 0x0, symName: __ZN12KittyScanner14findBytesFirstEPK11mach_headerPKcS4_S4_, symObjAddr: 0x28C, symBinAddr: 0x11490, symSize: 0x78 }
  - { offset: 0x75820, size: 0x8, addend: 0x0, symName: __ZN12KittyScanner14findBytesFirstEPK11mach_headerPKcS4_S4_, symObjAddr: 0x28C, symBinAddr: 0x11490, symSize: 0x78 }
  - { offset: 0x7583D, size: 0x8, addend: 0x0, symName: __ZN12KittyScanner14findBytesFirstEPK11mach_headerPKcS4_S4_, symObjAddr: 0x28C, symBinAddr: 0x11490, symSize: 0x78 }
  - { offset: 0x75B82, size: 0x8, addend: 0x0, symName: __ZN12KittyScanner14findBytesFirstEPK11mach_headerPKcS4_S4_, symObjAddr: 0x28C, symBinAddr: 0x11490, symSize: 0x78 }
  - { offset: 0x75B8A, size: 0x8, addend: 0x0, symName: __ZN12KittyScanner10findHexAllEPK11mach_headerPKcNSt3__112basic_stringIcNS5_11char_traitsIcEENS5_9allocatorIcEEEES4_, symObjAddr: 0x304, symBinAddr: 0x11508, symSize: 0xFC }
  - { offset: 0x75C2D, size: 0x8, addend: 0x0, symName: __ZN12KittyScanner10findHexAllEPK11mach_headerPKcNSt3__112basic_stringIcNS5_11char_traitsIcEENS5_9allocatorIcEEEES4_, symObjAddr: 0x304, symBinAddr: 0x11508, symSize: 0xFC }
  - { offset: 0x75C35, size: 0x8, addend: 0x0, symName: __ZN12KittyScanner12findHexFirstEPK11mach_headerPKcNSt3__112basic_stringIcNS5_11char_traitsIcEENS5_9allocatorIcEEEES4_, symObjAddr: 0x400, symBinAddr: 0x11604, symSize: 0xE0 }
  - { offset: 0x75F1E, size: 0x8, addend: 0x0, symName: __ZN12KittyScanner12findHexFirstEPK11mach_headerPKcNSt3__112basic_stringIcNS5_11char_traitsIcEENS5_9allocatorIcEEEES4_, symObjAddr: 0x400, symBinAddr: 0x11604, symSize: 0xE0 }
  - { offset: 0x75F3B, size: 0x8, addend: 0x0, symName: __ZN12KittyScanner12findHexFirstEPK11mach_headerPKcNSt3__112basic_stringIcNS5_11char_traitsIcEENS5_9allocatorIcEEEES4_, symObjAddr: 0x400, symBinAddr: 0x11604, symSize: 0xE0 }
  - { offset: 0x7617D, size: 0x8, addend: 0x0, symName: __ZN12KittyScanner12findHexFirstEPK11mach_headerPKcNSt3__112basic_stringIcNS5_11char_traitsIcEENS5_9allocatorIcEEEES4_, symObjAddr: 0x400, symBinAddr: 0x11604, symSize: 0xE0 }
  - { offset: 0x76185, size: 0x8, addend: 0x0, symName: __ZN12KittyScanner11findDataAllEPK11mach_headerPKcPKvm, symObjAddr: 0x4E0, symBinAddr: 0x116E4, symSize: 0xB0 }
  - { offset: 0x7640A, size: 0x8, addend: 0x0, symName: __ZN12KittyScanner11findDataAllEPK11mach_headerPKcPKvm, symObjAddr: 0x4E0, symBinAddr: 0x116E4, symSize: 0xB0 }
  - { offset: 0x76427, size: 0x8, addend: 0x0, symName: __ZN12KittyScanner11findDataAllEPK11mach_headerPKcPKvm, symObjAddr: 0x4E0, symBinAddr: 0x116E4, symSize: 0xB0 }
  - { offset: 0x76602, size: 0x8, addend: 0x0, symName: __ZN12KittyScanner11findDataAllEPK11mach_headerPKcPKvm, symObjAddr: 0x4E0, symBinAddr: 0x116E4, symSize: 0xB0 }
  - { offset: 0x7660A, size: 0x8, addend: 0x0, symName: __ZN12KittyScanner13findDataFirstEPK11mach_headerPKcPKvm, symObjAddr: 0x590, symBinAddr: 0x11794, symSize: 0x94 }
  - { offset: 0x7698B, size: 0x8, addend: 0x0, symName: __ZN12KittyScanner13findDataFirstEPK11mach_headerPKcPKvm, symObjAddr: 0x590, symBinAddr: 0x11794, symSize: 0x94 }
  - { offset: 0x76993, size: 0x8, addend: 0x0, symName: __ZNSt3__119__allocate_at_leastB8nn180100INS_9allocatorImEEEENS_19__allocation_resultINS_16allocator_traitsIT_E7pointerEEERS5_m, symObjAddr: 0x624, symBinAddr: 0x11828, symSize: 0x34 }
  - { offset: 0x7773D, size: 0x8, addend: 0x0, symName: __ZN10KittyUtils11trim_stringERNSt3__112basic_stringIcNS0_11char_traitsIcEENS0_9allocatorIcEEEE, symObjAddr: 0x0, symBinAddr: 0x1185C, symSize: 0xE0 }
  - { offset: 0x7EF42, size: 0x8, addend: 0x0, symName: __ZNSt3__1lsB8nn180100INS_11char_traitsIcEEEERNS_13basic_ostreamIcT_EES6_RKNS_8__iom_t4IcEE, symObjAddr: 0x3F0, symBinAddr: 0x11C4C, symSize: 0x84 }
  - { offset: 0x7EF4A, size: 0x8, addend: 0x0, symName: __ZNSt3__118basic_stringstreamIcNS_11char_traitsIcEENS_9allocatorIcEEED1Ev, symObjAddr: 0x474, symBinAddr: 0x11CD0, symSize: 0x94 }
  - { offset: 0x7F880, size: 0x8, addend: 0x0, symName: __ZN10KittyUtils11trim_stringERNSt3__112basic_stringIcNS0_11char_traitsIcEENS0_9allocatorIcEEEE, symObjAddr: 0x0, symBinAddr: 0x1185C, symSize: 0xE0 }
  - { offset: 0x7F888, size: 0x8, addend: 0x0, symName: __ZN10KittyUtils17validateHexStringERNSt3__112basic_stringIcNS0_11char_traitsIcEENS0_9allocatorIcEEEE, symObjAddr: 0xE0, symBinAddr: 0x1193C, symSize: 0x108 }
  - { offset: 0x7F8E4, size: 0x8, addend: 0x0, symName: __ZN10KittyUtils11trim_stringERNSt3__112basic_stringIcNS0_11char_traitsIcEENS0_9allocatorIcEEEE, symObjAddr: 0x0, symBinAddr: 0x1185C, symSize: 0xE0 }
  - { offset: 0x7F90B, size: 0x8, addend: 0x0, symName: __ZN10KittyUtils11trim_stringERNSt3__112basic_stringIcNS0_11char_traitsIcEENS0_9allocatorIcEEEE, symObjAddr: 0x0, symBinAddr: 0x1185C, symSize: 0xE0 }
  - { offset: 0x7F933, size: 0x8, addend: 0x0, symName: __ZN10KittyUtils11trim_stringERNSt3__112basic_stringIcNS0_11char_traitsIcEENS0_9allocatorIcEEEE, symObjAddr: 0x0, symBinAddr: 0x1185C, symSize: 0xE0 }
  - { offset: 0x7FAF0, size: 0x8, addend: 0x0, symName: __ZN10KittyUtils17validateHexStringERNSt3__112basic_stringIcNS0_11char_traitsIcEENS0_9allocatorIcEEEE, symObjAddr: 0xE0, symBinAddr: 0x1193C, symSize: 0x108 }
  - { offset: 0x7FB50, size: 0x8, addend: 0x0, symName: __ZN10KittyUtils17validateHexStringERNSt3__112basic_stringIcNS0_11char_traitsIcEENS0_9allocatorIcEEEE, symObjAddr: 0xE0, symBinAddr: 0x1193C, symSize: 0x108 }
  - { offset: 0x7FB58, size: 0x8, addend: 0x0, symName: __ZN10KittyUtils5toHexEPvmRNSt3__112basic_stringIcNS1_11char_traitsIcEENS1_9allocatorIcEEEE, symObjAddr: 0x1E8, symBinAddr: 0x11A44, symSize: 0x150 }
  - { offset: 0x7FD28, size: 0x8, addend: 0x0, symName: __ZN10KittyUtils5toHexEPvmRNSt3__112basic_stringIcNS1_11char_traitsIcEENS1_9allocatorIcEEEE, symObjAddr: 0x1E8, symBinAddr: 0x11A44, symSize: 0x150 }
  - { offset: 0x7FD30, size: 0x8, addend: 0x0, symName: __ZNSt3__118basic_stringstreamIcNS_11char_traitsIcEENS_9allocatorIcEEEC1B8nn180100Ev, symObjAddr: 0x338, symBinAddr: 0x11B94, symSize: 0xB8 }
  - { offset: 0x80299, size: 0x8, addend: 0x0, symName: __ZN10KittyUtils7fromHexERKNSt3__112basic_stringIcNS0_11char_traitsIcEENS0_9allocatorIcEEEEPv, symObjAddr: 0x508, symBinAddr: 0x11D64, symSize: 0x18C }
  - { offset: 0x802A1, size: 0x8, addend: 0x0, symName: __ZThn16_NSt3__118basic_stringstreamIcNS_11char_traitsIcEENS_9allocatorIcEEED1Ev, symObjAddr: 0x694, symBinAddr: 0x11EF0, symSize: 0x8C }
  - { offset: 0x8119E, size: 0x8, addend: 0x0, symName: __ZNSt3__118basic_stringstreamIcNS_11char_traitsIcEENS_9allocatorIcEEEC1B8nn180100Ev, symObjAddr: 0x338, symBinAddr: 0x11B94, symSize: 0xB8 }
  - { offset: 0x811A6, size: 0x8, addend: 0x0, symName: __ZNSt3__1lsB8nn180100INS_11char_traitsIcEEEERNS_13basic_ostreamIcT_EES6_RKNS_8__iom_t4IcEE, symObjAddr: 0x3F0, symBinAddr: 0x11C4C, symSize: 0x84 }
  - { offset: 0x813F5, size: 0x8, addend: 0x0, symName: __ZNSt3__118basic_stringstreamIcNS_11char_traitsIcEENS_9allocatorIcEEED1Ev, symObjAddr: 0x474, symBinAddr: 0x11CD0, symSize: 0x94 }
  - { offset: 0x813FD, size: 0x8, addend: 0x0, symName: __ZN10KittyUtils7fromHexERKNSt3__112basic_stringIcNS0_11char_traitsIcEENS0_9allocatorIcEEEEPv, symObjAddr: 0x508, symBinAddr: 0x11D64, symSize: 0x18C }
  - { offset: 0x81725, size: 0x8, addend: 0x0, symName: __ZThn16_NSt3__118basic_stringstreamIcNS_11char_traitsIcEENS_9allocatorIcEEED1Ev, symObjAddr: 0x694, symBinAddr: 0x11EF0, symSize: 0x8C }
  - { offset: 0x8172D, size: 0x8, addend: 0x0, symName: __ZTv0_n24_NSt3__118basic_stringstreamIcNS_11char_traitsIcEENS_9allocatorIcEEED1Ev, symObjAddr: 0x720, symBinAddr: 0x11F7C, symSize: 0x94 }
  - { offset: 0x81750, size: 0x8, addend: 0x0, symName: __ZTv0_n24_NSt3__118basic_stringstreamIcNS_11char_traitsIcEENS_9allocatorIcEEED1Ev, symObjAddr: 0x720, symBinAddr: 0x11F7C, symSize: 0x94 }
  - { offset: 0x81954, size: 0x8, addend: 0x0, symName: __ZTv0_n24_NSt3__118basic_stringstreamIcNS_11char_traitsIcEENS_9allocatorIcEEED1Ev, symObjAddr: 0x720, symBinAddr: 0x11F7C, symSize: 0x94 }
  - { offset: 0x8195C, size: 0x8, addend: 0x0, symName: __ZNSt3__118basic_stringstreamIcNS_11char_traitsIcEENS_9allocatorIcEEED0Ev, symObjAddr: 0x7B4, symBinAddr: 0x12010, symSize: 0x94 }
  - { offset: 0x8197F, size: 0x8, addend: 0x0, symName: __ZNSt3__118basic_stringstreamIcNS_11char_traitsIcEENS_9allocatorIcEEED0Ev, symObjAddr: 0x7B4, symBinAddr: 0x12010, symSize: 0x94 }
  - { offset: 0x81B81, size: 0x8, addend: 0x0, symName: __ZNSt3__118basic_stringstreamIcNS_11char_traitsIcEENS_9allocatorIcEEED0Ev, symObjAddr: 0x7B4, symBinAddr: 0x12010, symSize: 0x94 }
  - { offset: 0x81B89, size: 0x8, addend: 0x0, symName: __ZThn16_NSt3__118basic_stringstreamIcNS_11char_traitsIcEENS_9allocatorIcEEED0Ev, symObjAddr: 0x848, symBinAddr: 0x120A4, symSize: 0x94 }
  - { offset: 0x81DE2, size: 0x8, addend: 0x0, symName: __ZThn16_NSt3__118basic_stringstreamIcNS_11char_traitsIcEENS_9allocatorIcEEED0Ev, symObjAddr: 0x848, symBinAddr: 0x120A4, symSize: 0x94 }
  - { offset: 0x81DEA, size: 0x8, addend: 0x0, symName: __ZTv0_n24_NSt3__118basic_stringstreamIcNS_11char_traitsIcEENS_9allocatorIcEEED0Ev, symObjAddr: 0x8DC, symBinAddr: 0x12138, symSize: 0x9C }
  - { offset: 0x81E0D, size: 0x8, addend: 0x0, symName: __ZTv0_n24_NSt3__118basic_stringstreamIcNS_11char_traitsIcEENS_9allocatorIcEEED0Ev, symObjAddr: 0x8DC, symBinAddr: 0x12138, symSize: 0x9C }
  - { offset: 0x8203B, size: 0x8, addend: 0x0, symName: __ZTv0_n24_NSt3__118basic_stringstreamIcNS_11char_traitsIcEENS_9allocatorIcEEED0Ev, symObjAddr: 0x8DC, symBinAddr: 0x12138, symSize: 0x9C }
  - { offset: 0x82043, size: 0x8, addend: 0x0, symName: __ZNSt3__115basic_stringbufIcNS_11char_traitsIcEENS_9allocatorIcEEED1Ev, symObjAddr: 0x978, symBinAddr: 0x121D4, symSize: 0x40 }
  - { offset: 0x82066, size: 0x8, addend: 0x0, symName: __ZNSt3__115basic_stringbufIcNS_11char_traitsIcEENS_9allocatorIcEEED1Ev, symObjAddr: 0x978, symBinAddr: 0x121D4, symSize: 0x40 }
  - { offset: 0x82290, size: 0x8, addend: 0x0, symName: __ZNSt3__115basic_stringbufIcNS_11char_traitsIcEENS_9allocatorIcEEED1Ev, symObjAddr: 0x978, symBinAddr: 0x121D4, symSize: 0x40 }
  - { offset: 0x82298, size: 0x8, addend: 0x0, symName: __ZNSt3__115basic_stringbufIcNS_11char_traitsIcEENS_9allocatorIcEEED0Ev, symObjAddr: 0x9B8, symBinAddr: 0x12214, symSize: 0x44 }
  - { offset: 0x822CC, size: 0x8, addend: 0x0, symName: __ZNSt3__115basic_stringbufIcNS_11char_traitsIcEENS_9allocatorIcEEED0Ev, symObjAddr: 0x9B8, symBinAddr: 0x12214, symSize: 0x44 }
  - { offset: 0x8246B, size: 0x8, addend: 0x0, symName: __ZNSt3__115basic_stringbufIcNS_11char_traitsIcEENS_9allocatorIcEEED0Ev, symObjAddr: 0x9B8, symBinAddr: 0x12214, symSize: 0x44 }
  - { offset: 0x82473, size: 0x8, addend: 0x0, symName: __ZNSt3__115basic_stringbufIcNS_11char_traitsIcEENS_9allocatorIcEEE7seekoffExNS_8ios_base7seekdirEj, symObjAddr: 0x9FC, symBinAddr: 0x12258, symSize: 0x100 }
  - { offset: 0x82829, size: 0x8, addend: 0x0, symName: __ZNSt3__115basic_stringbufIcNS_11char_traitsIcEENS_9allocatorIcEEE7seekoffExNS_8ios_base7seekdirEj, symObjAddr: 0x9FC, symBinAddr: 0x12258, symSize: 0x100 }
  - { offset: 0x82831, size: 0x8, addend: 0x0, symName: __ZNSt3__115basic_stringbufIcNS_11char_traitsIcEENS_9allocatorIcEEE7seekposENS_4fposI11__mbstate_tEEj, symObjAddr: 0xAFC, symBinAddr: 0x12358, symSize: 0x18 }
  - { offset: 0x82B29, size: 0x8, addend: 0x0, symName: __ZNSt3__115basic_stringbufIcNS_11char_traitsIcEENS_9allocatorIcEEE7seekposENS_4fposI11__mbstate_tEEj, symObjAddr: 0xAFC, symBinAddr: 0x12358, symSize: 0x18 }
  - { offset: 0x82B31, size: 0x8, addend: 0x0, symName: __ZNSt3__115basic_stringbufIcNS_11char_traitsIcEENS_9allocatorIcEEE9underflowEv, symObjAddr: 0xB14, symBinAddr: 0x12370, symSize: 0x50 }
  - { offset: 0x82BC8, size: 0x8, addend: 0x0, symName: __ZNSt3__115basic_stringbufIcNS_11char_traitsIcEENS_9allocatorIcEEE9underflowEv, symObjAddr: 0xB14, symBinAddr: 0x12370, symSize: 0x50 }
  - { offset: 0x82BD0, size: 0x8, addend: 0x0, symName: __ZNSt3__115basic_stringbufIcNS_11char_traitsIcEENS_9allocatorIcEEE9pbackfailEi, symObjAddr: 0xB64, symBinAddr: 0x123C0, symSize: 0x6C }
  - { offset: 0x82CAB, size: 0x8, addend: 0x0, symName: __ZNSt3__115basic_stringbufIcNS_11char_traitsIcEENS_9allocatorIcEEE9pbackfailEi, symObjAddr: 0xB64, symBinAddr: 0x123C0, symSize: 0x6C }
  - { offset: 0x82CB3, size: 0x8, addend: 0x0, symName: __ZNSt3__115basic_stringbufIcNS_11char_traitsIcEENS_9allocatorIcEEE8overflowEi, symObjAddr: 0xBD0, symBinAddr: 0x1242C, symSize: 0x154 }
  - { offset: 0x82F2E, size: 0x8, addend: 0x0, symName: __ZNSt3__115basic_stringbufIcNS_11char_traitsIcEENS_9allocatorIcEEE8overflowEi, symObjAddr: 0xBD0, symBinAddr: 0x1242C, symSize: 0x154 }
  - { offset: 0x82F36, size: 0x8, addend: 0x0, symName: __ZNKSt3__115basic_stringbufIcNS_11char_traitsIcEENS_9allocatorIcEEE3strEv, symObjAddr: 0xD24, symBinAddr: 0x12580, symSize: 0x4C }
  - { offset: 0x83646, size: 0x8, addend: 0x0, symName: __ZNKSt3__115basic_stringbufIcNS_11char_traitsIcEENS_9allocatorIcEEE3strEv, symObjAddr: 0xD24, symBinAddr: 0x12580, symSize: 0x4C }
  - { offset: 0x8364E, size: 0x8, addend: 0x0, symName: __ZNSt3__112basic_stringIcNS_11char_traitsIcEENS_9allocatorIcEEE16__init_with_sizeB8nn180100IPcS7_EEvT_T0_m, symObjAddr: 0xD70, symBinAddr: 0x125CC, symSize: 0xA0 }
  - { offset: 0x8372D, size: 0x8, addend: 0x0, symName: __ZNSt3__112basic_stringIcNS_11char_traitsIcEENS_9allocatorIcEEE16__init_with_sizeB8nn180100IPcS7_EEvT_T0_m, symObjAddr: 0xD70, symBinAddr: 0x125CC, symSize: 0xA0 }
  - { offset: 0x83748, size: 0x8, addend: 0x0, symName: __ZNSt3__112basic_stringIcNS_11char_traitsIcEENS_9allocatorIcEEE16__init_with_sizeB8nn180100IPcS7_EEvT_T0_m, symObjAddr: 0xD70, symBinAddr: 0x125CC, symSize: 0xA0 }
  - { offset: 0x83765, size: 0x8, addend: 0x0, symName: __ZNSt3__112basic_stringIcNS_11char_traitsIcEENS_9allocatorIcEEE16__init_with_sizeB8nn180100IPcS7_EEvT_T0_m, symObjAddr: 0xD70, symBinAddr: 0x125CC, symSize: 0xA0 }
  - { offset: 0x839C8, size: 0x8, addend: 0x0, symName: __ZNSt3__112basic_stringIcNS_11char_traitsIcEENS_9allocatorIcEEE16__init_with_sizeB8nn180100IPcS7_EEvT_T0_m, symObjAddr: 0xD70, symBinAddr: 0x125CC, symSize: 0xA0 }
  - { offset: 0x839D0, size: 0x8, addend: 0x0, symName: __ZNSt3__115basic_stringbufIcNS_11char_traitsIcEENS_9allocatorIcEEE15__init_buf_ptrsB8nn180100Ev, symObjAddr: 0xE10, symBinAddr: 0x1266C, symSize: 0x110 }
  - { offset: 0x83C88, size: 0x8, addend: 0x0, symName: __ZNSt3__115basic_stringbufIcNS_11char_traitsIcEENS_9allocatorIcEEE15__init_buf_ptrsB8nn180100Ev, symObjAddr: 0xE10, symBinAddr: 0x1266C, symSize: 0x110 }
  - { offset: 0x83CA5, size: 0x8, addend: 0x0, symName: __ZNSt3__115basic_stringbufIcNS_11char_traitsIcEENS_9allocatorIcEEE15__init_buf_ptrsB8nn180100Ev, symObjAddr: 0xE10, symBinAddr: 0x1266C, symSize: 0x110 }
  - { offset: 0x83D17, size: 0x8, addend: 0x0, symName: __ZNSt3__115basic_stringbufIcNS_11char_traitsIcEENS_9allocatorIcEEE15__init_buf_ptrsB8nn180100Ev, symObjAddr: 0xE10, symBinAddr: 0x1266C, symSize: 0x110 }
  - { offset: 0x8407D, size: 0x8, addend: 0x0, symName: __ZN12MemoryBackupC2Ev, symObjAddr: 0x0, symBinAddr: 0x1277C, symSize: 0x10 }
  - { offset: 0x8991C, size: 0x8, addend: 0x0, symName: __ZN12MemoryBackupC2Ev, symObjAddr: 0x0, symBinAddr: 0x1277C, symSize: 0x10 }
  - { offset: 0x89924, size: 0x8, addend: 0x0, symName: __ZN12MemoryBackupC1Ev, symObjAddr: 0x10, symBinAddr: 0x1278C, symSize: 0x10 }
  - { offset: 0x89975, size: 0x8, addend: 0x0, symName: __ZN12MemoryBackupC1Ev, symObjAddr: 0x10, symBinAddr: 0x1278C, symSize: 0x10 }
  - { offset: 0x8997D, size: 0x8, addend: 0x0, symName: __ZN12MemoryBackupD2Ev, symObjAddr: 0x20, symBinAddr: 0x1279C, symSize: 0x30 }
  - { offset: 0x899B3, size: 0x8, addend: 0x0, symName: __ZN12MemoryBackupC1Ev, symObjAddr: 0x10, symBinAddr: 0x1278C, symSize: 0x10 }
  - { offset: 0x89B72, size: 0x8, addend: 0x0, symName: __ZN12MemoryBackupD2Ev, symObjAddr: 0x20, symBinAddr: 0x1279C, symSize: 0x30 }
  - { offset: 0x89B7A, size: 0x8, addend: 0x0, symName: __ZN12MemoryBackupD1Ev, symObjAddr: 0x50, symBinAddr: 0x127CC, symSize: 0x30 }
  - { offset: 0x89DBD, size: 0x8, addend: 0x0, symName: __ZN12MemoryBackupD1Ev, symObjAddr: 0x50, symBinAddr: 0x127CC, symSize: 0x30 }
  - { offset: 0x89DC5, size: 0x8, addend: 0x0, symName: __ZN12MemoryBackupC2EPKcmm, symObjAddr: 0x80, symBinAddr: 0x127FC, symSize: 0xA0 }
  - { offset: 0x8A0C2, size: 0x8, addend: 0x0, symName: __ZN12MemoryBackupC2EPKcmm, symObjAddr: 0x80, symBinAddr: 0x127FC, symSize: 0xA0 }
  - { offset: 0x8A0CA, size: 0x8, addend: 0x0, symName: __ZN12MemoryBackupC1EPKcmm, symObjAddr: 0x120, symBinAddr: 0x1289C, symSize: 0x4 }
  - { offset: 0x8A1FF, size: 0x8, addend: 0x0, symName: __ZN12MemoryBackupC1EPKcmm, symObjAddr: 0x120, symBinAddr: 0x1289C, symSize: 0x4 }
  - { offset: 0x8A207, size: 0x8, addend: 0x0, symName: __ZN12MemoryBackupC2Emm, symObjAddr: 0x124, symBinAddr: 0x128A0, symSize: 0x58 }
  - { offset: 0x8A26A, size: 0x8, addend: 0x0, symName: __ZN12MemoryBackupC2Emm, symObjAddr: 0x124, symBinAddr: 0x128A0, symSize: 0x58 }
  - { offset: 0x8A272, size: 0x8, addend: 0x0, symName: __ZN12MemoryBackupC1Emm, symObjAddr: 0x17C, symBinAddr: 0x128F8, symSize: 0x4 }
  - { offset: 0x8A335, size: 0x8, addend: 0x0, symName: __ZN12MemoryBackupC1Emm, symObjAddr: 0x17C, symBinAddr: 0x128F8, symSize: 0x4 }
  - { offset: 0x8A33D, size: 0x8, addend: 0x0, symName: __ZNK12MemoryBackup7isValidEv, symObjAddr: 0x180, symBinAddr: 0x128FC, symSize: 0x2C }
  - { offset: 0x8A38F, size: 0x8, addend: 0x0, symName: __ZNK12MemoryBackup7isValidEv, symObjAddr: 0x180, symBinAddr: 0x128FC, symSize: 0x2C }
  - { offset: 0x8A397, size: 0x8, addend: 0x0, symName: __ZNK12MemoryBackup14get_BackupSizeEv, symObjAddr: 0x1AC, symBinAddr: 0x12928, symSize: 0x8 }
  - { offset: 0x8A3E3, size: 0x8, addend: 0x0, symName: __ZNK12MemoryBackup14get_BackupSizeEv, symObjAddr: 0x1AC, symBinAddr: 0x12928, symSize: 0x8 }
  - { offset: 0x8A3EB, size: 0x8, addend: 0x0, symName: __ZNK12MemoryBackup17get_TargetAddressEv, symObjAddr: 0x1B4, symBinAddr: 0x12930, symSize: 0x8 }
  - { offset: 0x8A418, size: 0x8, addend: 0x0, symName: __ZNK12MemoryBackup17get_TargetAddressEv, symObjAddr: 0x1B4, symBinAddr: 0x12930, symSize: 0x8 }
  - { offset: 0x8A420, size: 0x8, addend: 0x0, symName: __ZN12MemoryBackup7RestoreEv, symObjAddr: 0x1BC, symBinAddr: 0x12938, symSize: 0x48 }
  - { offset: 0x8A476, size: 0x8, addend: 0x0, symName: __ZN12MemoryBackup7RestoreEv, symObjAddr: 0x1BC, symBinAddr: 0x12938, symSize: 0x48 }
  - { offset: 0x8A47E, size: 0x8, addend: 0x0, symName: __ZNK12MemoryBackup13get_CurrBytesEv, symObjAddr: 0x204, symBinAddr: 0x12980, symSize: 0x38 }
  - { offset: 0x8A53D, size: 0x8, addend: 0x0, symName: __ZNK12MemoryBackup13get_CurrBytesEv, symObjAddr: 0x204, symBinAddr: 0x12980, symSize: 0x38 }
  - { offset: 0x8A545, size: 0x8, addend: 0x0, symName: __ZNK12MemoryBackup13get_OrigBytesEv, symObjAddr: 0x23C, symBinAddr: 0x129B8, symSize: 0x34 }
  - { offset: 0x8A5D0, size: 0x8, addend: 0x0, symName: __ZNK12MemoryBackup13get_OrigBytesEv, symObjAddr: 0x23C, symBinAddr: 0x129B8, symSize: 0x34 }
  - { offset: 0x8A5F7, size: 0x8, addend: 0x0, symName: __ZNK12MemoryBackup13get_OrigBytesEv, symObjAddr: 0x23C, symBinAddr: 0x129B8, symSize: 0x34 }
  - { offset: 0x8A5FF, size: 0x8, addend: 0x0, symName: __ZNSt3__16vectorIhNS_9allocatorIhEEE8__appendEm, symObjAddr: 0x270, symBinAddr: 0x129EC, symSize: 0x124 }
  - { offset: 0x8A632, size: 0x8, addend: 0x0, symName: __ZNK12MemoryBackup13get_OrigBytesEv, symObjAddr: 0x23C, symBinAddr: 0x129B8, symSize: 0x34 }
  - { offset: 0x8A68A, size: 0x8, addend: 0x0, symName: __ZNSt3__16vectorIhNS_9allocatorIhEEE8__appendEm, symObjAddr: 0x270, symBinAddr: 0x129EC, symSize: 0x124 }
  - { offset: 0x8AC12, size: 0x8, addend: 0x0, symName: __ZNSt3__16vectorIhNS_9allocatorIhEEE8__appendEm, symObjAddr: 0x270, symBinAddr: 0x129EC, symSize: 0x124 }
  - { offset: 0x8B360, size: 0x8, addend: 0x0, symName: __ZN11MemoryPatchC2Ev, symObjAddr: 0x0, symBinAddr: 0x12B10, symSize: 0x10 }
  - { offset: 0x8F67E, size: 0x8, addend: 0x0, symName: __ZN11MemoryPatchC2Ev, symObjAddr: 0x0, symBinAddr: 0x12B10, symSize: 0x10 }
  - { offset: 0x8F686, size: 0x8, addend: 0x0, symName: __ZN11MemoryPatchC1Ev, symObjAddr: 0x10, symBinAddr: 0x12B20, symSize: 0x10 }
  - { offset: 0x8F6D7, size: 0x8, addend: 0x0, symName: __ZN11MemoryPatchC1Ev, symObjAddr: 0x10, symBinAddr: 0x12B20, symSize: 0x10 }
  - { offset: 0x8F6DF, size: 0x8, addend: 0x0, symName: __ZN11MemoryPatchD2Ev, symObjAddr: 0x20, symBinAddr: 0x12B30, symSize: 0x4C }
  - { offset: 0x8F709, size: 0x8, addend: 0x0, symName: __ZN11MemoryPatchC1Ev, symObjAddr: 0x10, symBinAddr: 0x12B20, symSize: 0x10 }
  - { offset: 0x8F8C8, size: 0x8, addend: 0x0, symName: __ZN11MemoryPatchD2Ev, symObjAddr: 0x20, symBinAddr: 0x12B30, symSize: 0x4C }
  - { offset: 0x8F8D0, size: 0x8, addend: 0x0, symName: __ZN11MemoryPatchD1Ev, symObjAddr: 0x6C, symBinAddr: 0x12B7C, symSize: 0x4 }
  - { offset: 0x8FD28, size: 0x8, addend: 0x0, symName: __ZN11MemoryPatchD1Ev, symObjAddr: 0x6C, symBinAddr: 0x12B7C, symSize: 0x4 }
  - { offset: 0x8FD30, size: 0x8, addend: 0x0, symName: __ZN11MemoryPatchC2EmPKvm, symObjAddr: 0x70, symBinAddr: 0x12B80, symSize: 0xA4 }
  - { offset: 0x8FE0B, size: 0x8, addend: 0x0, symName: __ZN11MemoryPatchC2EmPKvm, symObjAddr: 0x70, symBinAddr: 0x12B80, symSize: 0xA4 }
  - { offset: 0x8FE13, size: 0x8, addend: 0x0, symName: __ZN11MemoryPatchC1EmPKvm, symObjAddr: 0x114, symBinAddr: 0x12C24, symSize: 0x4 }
  - { offset: 0x8FFA3, size: 0x8, addend: 0x0, symName: __ZN11MemoryPatchC1EmPKvm, symObjAddr: 0x114, symBinAddr: 0x12C24, symSize: 0x4 }
  - { offset: 0x8FFAB, size: 0x8, addend: 0x0, symName: __ZN11MemoryPatchC2EPKcmPKvm, symObjAddr: 0x118, symBinAddr: 0x12C28, symSize: 0xDC }
  - { offset: 0x9000E, size: 0x8, addend: 0x0, symName: __ZN11MemoryPatchC2EPKcmPKvm, symObjAddr: 0x118, symBinAddr: 0x12C28, symSize: 0xDC }
  - { offset: 0x90016, size: 0x8, addend: 0x0, symName: __ZN11MemoryPatchC1EPKcmPKvm, symObjAddr: 0x1F4, symBinAddr: 0x12D04, symSize: 0x4 }
  - { offset: 0x90236, size: 0x8, addend: 0x0, symName: __ZN11MemoryPatchC1EPKcmPKvm, symObjAddr: 0x1F4, symBinAddr: 0x12D04, symSize: 0x4 }
  - { offset: 0x9023E, size: 0x8, addend: 0x0, symName: __ZN11MemoryPatch13createWithHexEPKcmNSt3__112basic_stringIcNS2_11char_traitsIcEENS2_9allocatorIcEEEE, symObjAddr: 0x1F8, symBinAddr: 0x12D08, symSize: 0xEC }
  - { offset: 0x90370, size: 0x8, addend: 0x0, symName: __ZN11MemoryPatch13createWithHexEPKcmNSt3__112basic_stringIcNS2_11char_traitsIcEENS2_9allocatorIcEEEE, symObjAddr: 0x1F8, symBinAddr: 0x12D08, symSize: 0xEC }
  - { offset: 0x90378, size: 0x8, addend: 0x0, symName: __ZN11MemoryPatch13createWithHexEmNSt3__112basic_stringIcNS0_11char_traitsIcEENS0_9allocatorIcEEEE, symObjAddr: 0x2E4, symBinAddr: 0x12DF4, symSize: 0xD8 }
  - { offset: 0x90605, size: 0x8, addend: 0x0, symName: __ZN11MemoryPatch13createWithHexEmNSt3__112basic_stringIcNS0_11char_traitsIcEENS0_9allocatorIcEEEE, symObjAddr: 0x2E4, symBinAddr: 0x12DF4, symSize: 0xD8 }
  - { offset: 0x9060D, size: 0x8, addend: 0x0, symName: __ZNK11MemoryPatch7isValidEv, symObjAddr: 0x3BC, symBinAddr: 0x12ECC, symSize: 0x3C }
  - { offset: 0x90887, size: 0x8, addend: 0x0, symName: __ZNK11MemoryPatch7isValidEv, symObjAddr: 0x3BC, symBinAddr: 0x12ECC, symSize: 0x3C }
  - { offset: 0x9088F, size: 0x8, addend: 0x0, symName: __ZNK11MemoryPatch13get_PatchSizeEv, symObjAddr: 0x3F8, symBinAddr: 0x12F08, symSize: 0x8 }
  - { offset: 0x90901, size: 0x8, addend: 0x0, symName: __ZNK11MemoryPatch13get_PatchSizeEv, symObjAddr: 0x3F8, symBinAddr: 0x12F08, symSize: 0x8 }
  - { offset: 0x90909, size: 0x8, addend: 0x0, symName: __ZNK11MemoryPatch17get_TargetAddressEv, symObjAddr: 0x400, symBinAddr: 0x12F10, symSize: 0x8 }
  - { offset: 0x90936, size: 0x8, addend: 0x0, symName: __ZNK11MemoryPatch17get_TargetAddressEv, symObjAddr: 0x400, symBinAddr: 0x12F10, symSize: 0x8 }
  - { offset: 0x9093E, size: 0x8, addend: 0x0, symName: __ZN11MemoryPatch7RestoreEv, symObjAddr: 0x408, symBinAddr: 0x12F18, symSize: 0x58 }
  - { offset: 0x90994, size: 0x8, addend: 0x0, symName: __ZN11MemoryPatch7RestoreEv, symObjAddr: 0x408, symBinAddr: 0x12F18, symSize: 0x58 }
  - { offset: 0x9099C, size: 0x8, addend: 0x0, symName: __ZN11MemoryPatch6ModifyEv, symObjAddr: 0x460, symBinAddr: 0x12F70, symSize: 0x58 }
  - { offset: 0x90A3F, size: 0x8, addend: 0x0, symName: __ZN11MemoryPatch6ModifyEv, symObjAddr: 0x460, symBinAddr: 0x12F70, symSize: 0x58 }
  - { offset: 0x90A47, size: 0x8, addend: 0x0, symName: __ZNK11MemoryPatch13get_CurrBytesEv, symObjAddr: 0x4B8, symBinAddr: 0x12FC8, symSize: 0x48 }
  - { offset: 0x90B2C, size: 0x8, addend: 0x0, symName: __ZNK11MemoryPatch13get_CurrBytesEv, symObjAddr: 0x4B8, symBinAddr: 0x12FC8, symSize: 0x48 }
  - { offset: 0x90B34, size: 0x8, addend: 0x0, symName: __ZNK11MemoryPatch13get_OrigBytesEv, symObjAddr: 0x500, symBinAddr: 0x13010, symSize: 0x48 }
  - { offset: 0x90BE5, size: 0x8, addend: 0x0, symName: __ZNK11MemoryPatch13get_OrigBytesEv, symObjAddr: 0x500, symBinAddr: 0x13010, symSize: 0x48 }
  - { offset: 0x90C0C, size: 0x8, addend: 0x0, symName: __ZNK11MemoryPatch13get_OrigBytesEv, symObjAddr: 0x500, symBinAddr: 0x13010, symSize: 0x48 }
  - { offset: 0x90C14, size: 0x8, addend: 0x0, symName: __ZNK11MemoryPatch14get_PatchBytesEv, symObjAddr: 0x548, symBinAddr: 0x13058, symSize: 0x44 }
  - { offset: 0x90C47, size: 0x8, addend: 0x0, symName: __ZNK11MemoryPatch13get_OrigBytesEv, symObjAddr: 0x500, symBinAddr: 0x13010, symSize: 0x48 }
  - { offset: 0x90CC3, size: 0x8, addend: 0x0, symName: __ZNK11MemoryPatch14get_PatchBytesEv, symObjAddr: 0x548, symBinAddr: 0x13058, symSize: 0x44 }
  - { offset: 0x90CEA, size: 0x8, addend: 0x0, symName: __ZNK11MemoryPatch14get_PatchBytesEv, symObjAddr: 0x548, symBinAddr: 0x13058, symSize: 0x44 }
  - { offset: 0x90D25, size: 0x8, addend: 0x0, symName: __ZNK11MemoryPatch14get_PatchBytesEv, symObjAddr: 0x548, symBinAddr: 0x13058, symSize: 0x44 }
  - { offset: 0x90E15, size: 0x8, addend: 0x0, symName: __Z10writeData8PKcmh, symObjAddr: 0x0, symBinAddr: 0x1309C, symSize: 0x58 }
  - { offset: 0x90E3C, size: 0x8, addend: 0x0, symName: __Z10writeData8PKcmh, symObjAddr: 0x0, symBinAddr: 0x1309C, symSize: 0x58 }
  - { offset: 0x90E44, size: 0x8, addend: 0x0, symName: __Z11writeData16PKcmt, symObjAddr: 0x58, symBinAddr: 0x130F4, symSize: 0x5C }
  - { offset: 0x90EC0, size: 0x8, addend: 0x0, symName: __Z11writeData16PKcmt, symObjAddr: 0x58, symBinAddr: 0x130F4, symSize: 0x5C }
  - { offset: 0x90EC8, size: 0x8, addend: 0x0, symName: __Z11writeData32PKcmj, symObjAddr: 0xB4, symBinAddr: 0x13150, symSize: 0x5C }
  - { offset: 0x90F74, size: 0x8, addend: 0x0, symName: __Z11writeData32PKcmj, symObjAddr: 0xB4, symBinAddr: 0x13150, symSize: 0x5C }
  - { offset: 0x90F7C, size: 0x8, addend: 0x0, symName: __Z11writeData64PKcmy, symObjAddr: 0x110, symBinAddr: 0x131AC, symSize: 0x5C }
  - { offset: 0x91039, size: 0x8, addend: 0x0, symName: __Z11writeData64PKcmy, symObjAddr: 0x110, symBinAddr: 0x131AC, symSize: 0x5C }
  - { offset: 0x9110E, size: 0x8, addend: 0x0, symName: '-[SCLAlertView initWithCoder:]', symObjAddr: 0x0, symBinAddr: 0x13208, symSize: 0x44 }
  - { offset: 0x9115C, size: 0x8, addend: 0x0, symName: _kCircleHeight, symBinAddr: 0x37A7A8, symSize: 0x0 }
  - { offset: 0x91186, size: 0x8, addend: 0x0, symName: _kCircleTopPosition, symBinAddr: 0x37A7B8, symSize: 0x0 }
  - { offset: 0x9119D, size: 0x8, addend: 0x0, symName: _kCircleBackgroundTopPosition, symBinAddr: 0x37A7A0, symSize: 0x0 }
  - { offset: 0x911B4, size: 0x8, addend: 0x0, symName: _kCircleHeightBackground, symBinAddr: 0x37A7B0, symSize: 0x0 }
  - { offset: 0x911CB, size: 0x8, addend: 0x0, symName: _kActivityIndicatorHeight, symBinAddr: 0x37A798, symSize: 0x0 }
  - { offset: 0x911E2, size: 0x8, addend: 0x0, symName: _kTitleTop, symBinAddr: 0x37A7C0, symSize: 0x0 }
  - { offset: 0x911F9, size: 0x8, addend: 0x0, symName: _durationTimer, symBinAddr: 0x37A790, symSize: 0x0 }
  - { offset: 0x91311, size: 0x8, addend: 0x0, symName: _buttonTimer, symBinAddr: 0x37A788, symSize: 0x0 }
  - { offset: 0x98D3D, size: 0x8, addend: 0x0, symName: '-[SCLAlertView initWithCoder:]', symObjAddr: 0x0, symBinAddr: 0x13208, symSize: 0x44 }
  - { offset: 0x98D45, size: 0x8, addend: 0x0, symName: '-[SCLAlertView init]', symObjAddr: 0x44, symBinAddr: 0x1324C, symSize: 0x58 }
  - { offset: 0x98D87, size: 0x8, addend: 0x0, symName: '-[SCLAlertView init]', symObjAddr: 0x44, symBinAddr: 0x1324C, symSize: 0x58 }
  - { offset: 0x98D8F, size: 0x8, addend: 0x0, symName: '-[SCLAlertView initWithWindowWidth:]', symObjAddr: 0x9C, symBinAddr: 0x132A4, symSize: 0x60 }
  - { offset: 0x98DC5, size: 0x8, addend: 0x0, symName: '-[SCLAlertView initWithWindowWidth:]', symObjAddr: 0x9C, symBinAddr: 0x132A4, symSize: 0x60 }
  - { offset: 0x98DCD, size: 0x8, addend: 0x0, symName: '-[SCLAlertView initWithNewWindow]', symObjAddr: 0xFC, symBinAddr: 0x13304, symSize: 0x38 }
  - { offset: 0x98E13, size: 0x8, addend: 0x0, symName: '-[SCLAlertView initWithNewWindow]', symObjAddr: 0xFC, symBinAddr: 0x13304, symSize: 0x38 }
  - { offset: 0x98E1B, size: 0x8, addend: 0x0, symName: '-[SCLAlertView initWithNewWindowWidth:]', symObjAddr: 0x134, symBinAddr: 0x1333C, symSize: 0x30 }
  - { offset: 0x98E51, size: 0x8, addend: 0x0, symName: '-[SCLAlertView initWithNewWindowWidth:]', symObjAddr: 0x134, symBinAddr: 0x1333C, symSize: 0x30 }
  - { offset: 0x98E59, size: 0x8, addend: 0x0, symName: '-[SCLAlertView dealloc]', symObjAddr: 0x164, symBinAddr: 0x1336C, symSize: 0x4C }
  - { offset: 0x98E9F, size: 0x8, addend: 0x0, symName: '-[SCLAlertView dealloc]', symObjAddr: 0x164, symBinAddr: 0x1336C, symSize: 0x4C }
  - { offset: 0x98EA7, size: 0x8, addend: 0x0, symName: '-[SCLAlertView addObservers]', symObjAddr: 0x1B0, symBinAddr: 0x133B8, symSize: 0xB4 }
  - { offset: 0x98ED9, size: 0x8, addend: 0x0, symName: '-[SCLAlertView addObservers]', symObjAddr: 0x1B0, symBinAddr: 0x133B8, symSize: 0xB4 }
  - { offset: 0x98EE1, size: 0x8, addend: 0x0, symName: '-[SCLAlertView removeObservers]', symObjAddr: 0x264, symBinAddr: 0x1346C, symSize: 0x8C }
  - { offset: 0x98F13, size: 0x8, addend: 0x0, symName: '-[SCLAlertView removeObservers]', symObjAddr: 0x264, symBinAddr: 0x1346C, symSize: 0x8C }
  - { offset: 0x98F1B, size: 0x8, addend: 0x0, symName: '-[SCLAlertView setupViewWindowWidth:]', symObjAddr: 0x2F0, symBinAddr: 0x134F8, symSize: 0x818 }
  - { offset: 0x98F4D, size: 0x8, addend: 0x0, symName: '-[SCLAlertView setupViewWindowWidth:]', symObjAddr: 0x2F0, symBinAddr: 0x134F8, symSize: 0x818 }
  - { offset: 0x98F55, size: 0x8, addend: 0x0, symName: '-[SCLAlertView setupNewWindow]', symObjAddr: 0xB08, symBinAddr: 0x13D10, symSize: 0x114 }
  - { offset: 0x98FA7, size: 0x8, addend: 0x0, symName: '-[SCLAlertView setupNewWindow]', symObjAddr: 0xB08, symBinAddr: 0x13D10, symSize: 0x114 }
  - { offset: 0x98FAF, size: 0x8, addend: 0x0, symName: '-[SCLAlertView isModal]', symObjAddr: 0xC1C, symBinAddr: 0x13E24, symSize: 0x7C }
  - { offset: 0x98FF2, size: 0x8, addend: 0x0, symName: '-[SCLAlertView isModal]', symObjAddr: 0xC1C, symBinAddr: 0x13E24, symSize: 0x7C }
  - { offset: 0x98FFA, size: 0x8, addend: 0x0, symName: '-[SCLAlertView viewWillLayoutSubviews]', symObjAddr: 0xC98, symBinAddr: 0x13EA0, symSize: 0x808 }
  - { offset: 0x99031, size: 0x8, addend: 0x0, symName: '-[SCLAlertView viewWillLayoutSubviews]', symObjAddr: 0xC98, symBinAddr: 0x13EA0, symSize: 0x808 }
  - { offset: 0x99039, size: 0x8, addend: 0x0, symName: '-[SCLAlertView prefersStatusBarHidden]', symObjAddr: 0x14A0, symBinAddr: 0x146A8, symSize: 0x4 }
  - { offset: 0x99129, size: 0x8, addend: 0x0, symName: '-[SCLAlertView prefersStatusBarHidden]', symObjAddr: 0x14A0, symBinAddr: 0x146A8, symSize: 0x4 }
  - { offset: 0x99131, size: 0x8, addend: 0x0, symName: '-[SCLAlertView preferredStatusBarStyle]', symObjAddr: 0x14A4, symBinAddr: 0x146AC, symSize: 0x4 }
  - { offset: 0x99166, size: 0x8, addend: 0x0, symName: '-[SCLAlertView preferredStatusBarStyle]', symObjAddr: 0x14A4, symBinAddr: 0x146AC, symSize: 0x4 }
  - { offset: 0x9916E, size: 0x8, addend: 0x0, symName: '-[SCLAlertView handleTap:]', symObjAddr: 0x14A8, symBinAddr: 0x146B0, symSize: 0x15C }
  - { offset: 0x991A3, size: 0x8, addend: 0x0, symName: '-[SCLAlertView handleTap:]', symObjAddr: 0x14A8, symBinAddr: 0x146B0, symSize: 0x15C }
  - { offset: 0x991AB, size: 0x8, addend: 0x0, symName: '-[SCLAlertView setShouldDismissOnTapOutside:]', symObjAddr: 0x1604, symBinAddr: 0x1480C, symSize: 0x84 }
  - { offset: 0x99229, size: 0x8, addend: 0x0, symName: '-[SCLAlertView setShouldDismissOnTapOutside:]', symObjAddr: 0x1604, symBinAddr: 0x1480C, symSize: 0x84 }
  - { offset: 0x99231, size: 0x8, addend: 0x0, symName: '-[SCLAlertView disableInteractivePopGesture]', symObjAddr: 0x1688, symBinAddr: 0x14890, symSize: 0x164 }
  - { offset: 0x99271, size: 0x8, addend: 0x0, symName: '-[SCLAlertView disableInteractivePopGesture]', symObjAddr: 0x1688, symBinAddr: 0x14890, symSize: 0x164 }
  - { offset: 0x99279, size: 0x8, addend: 0x0, symName: '-[SCLAlertView restoreInteractivePopGesture]', symObjAddr: 0x17EC, symBinAddr: 0x149F4, symSize: 0x118 }
  - { offset: 0x992BD, size: 0x8, addend: 0x0, symName: '-[SCLAlertView restoreInteractivePopGesture]', symObjAddr: 0x17EC, symBinAddr: 0x149F4, symSize: 0x118 }
  - { offset: 0x992C5, size: 0x8, addend: 0x0, symName: '-[SCLAlertView setTitleFontFamily:withSize:]', symObjAddr: 0x1904, symBinAddr: 0x14B0C, symSize: 0x90 }
  - { offset: 0x99309, size: 0x8, addend: 0x0, symName: '-[SCLAlertView setTitleFontFamily:withSize:]', symObjAddr: 0x1904, symBinAddr: 0x14B0C, symSize: 0x90 }
  - { offset: 0x99311, size: 0x8, addend: 0x0, symName: '-[SCLAlertView setBodyTextFontFamily:withSize:]', symObjAddr: 0x1994, symBinAddr: 0x14B9C, symSize: 0x90 }
  - { offset: 0x99366, size: 0x8, addend: 0x0, symName: '-[SCLAlertView setBodyTextFontFamily:withSize:]', symObjAddr: 0x1994, symBinAddr: 0x14B9C, symSize: 0x90 }
  - { offset: 0x9936E, size: 0x8, addend: 0x0, symName: '-[SCLAlertView setButtonsTextFontFamily:withSize:]', symObjAddr: 0x1A24, symBinAddr: 0x14C2C, symSize: 0x34 }
  - { offset: 0x993C3, size: 0x8, addend: 0x0, symName: '-[SCLAlertView setButtonsTextFontFamily:withSize:]', symObjAddr: 0x1A24, symBinAddr: 0x14C2C, symSize: 0x34 }
  - { offset: 0x993CB, size: 0x8, addend: 0x0, symName: '-[SCLAlertView setBackgroundViewColor:]', symObjAddr: 0x1A58, symBinAddr: 0x14C60, symSize: 0x8C }
  - { offset: 0x99420, size: 0x8, addend: 0x0, symName: '-[SCLAlertView setBackgroundViewColor:]', symObjAddr: 0x1A58, symBinAddr: 0x14C60, symSize: 0x8C }
  - { offset: 0x99428, size: 0x8, addend: 0x0, symName: '-[SCLAlertView setSoundURL:]', symObjAddr: 0x1AE4, symBinAddr: 0x14CEC, symSize: 0x78 }
  - { offset: 0x9946C, size: 0x8, addend: 0x0, symName: '-[SCLAlertView setSoundURL:]', symObjAddr: 0x1AE4, symBinAddr: 0x14CEC, symSize: 0x78 }
  - { offset: 0x99474, size: 0x8, addend: 0x0, symName: '-[SCLAlertView setSubTitleHeight:]', symObjAddr: 0x1B5C, symBinAddr: 0x14D64, symSize: 0x10 }
  - { offset: 0x994B8, size: 0x8, addend: 0x0, symName: '-[SCLAlertView setSubTitleHeight:]', symObjAddr: 0x1B5C, symBinAddr: 0x14D64, symSize: 0x10 }
  - { offset: 0x994C0, size: 0x8, addend: 0x0, symName: '-[SCLAlertView addActivityIndicatorView]', symObjAddr: 0x1B6C, symBinAddr: 0x14D74, symSize: 0x90 }
  - { offset: 0x99501, size: 0x8, addend: 0x0, symName: '-[SCLAlertView addActivityIndicatorView]', symObjAddr: 0x1B6C, symBinAddr: 0x14D74, symSize: 0x90 }
  - { offset: 0x99509, size: 0x8, addend: 0x0, symName: '-[SCLAlertView addCustomView:]', symObjAddr: 0x1BFC, symBinAddr: 0x14E04, symSize: 0x7C }
  - { offset: 0x9953C, size: 0x8, addend: 0x0, symName: '-[SCLAlertView addCustomView:]', symObjAddr: 0x1BFC, symBinAddr: 0x14E04, symSize: 0x7C }
  - { offset: 0x99544, size: 0x8, addend: 0x0, symName: '-[SCLAlertView addSwitchViewWithLabel:]', symObjAddr: 0x1C78, symBinAddr: 0x14E80, symSize: 0xD0 }
  - { offset: 0x9958C, size: 0x8, addend: 0x0, symName: '-[SCLAlertView addSwitchViewWithLabel:]', symObjAddr: 0x1C78, symBinAddr: 0x14E80, symSize: 0xD0 }
  - { offset: 0x99594, size: 0x8, addend: 0x0, symName: '-[SCLAlertView addTextField:]', symObjAddr: 0x1D48, symBinAddr: 0x14F50, symSize: 0x154 }
  - { offset: 0x995ED, size: 0x8, addend: 0x0, symName: '-[SCLAlertView addTextField:]', symObjAddr: 0x1D48, symBinAddr: 0x14F50, symSize: 0x154 }
  - { offset: 0x995F5, size: 0x8, addend: 0x0, symName: '-[SCLAlertView addCustomTextField:]', symObjAddr: 0x1E9C, symBinAddr: 0x150A4, symSize: 0xCC }
  - { offset: 0x99682, size: 0x8, addend: 0x0, symName: '-[SCLAlertView addCustomTextField:]', symObjAddr: 0x1E9C, symBinAddr: 0x150A4, symSize: 0xCC }
  - { offset: 0x9968A, size: 0x8, addend: 0x0, symName: '-[SCLAlertView textFieldShouldReturn:]', symObjAddr: 0x1F68, symBinAddr: 0x15170, symSize: 0xA8 }
  - { offset: 0x99702, size: 0x8, addend: 0x0, symName: '-[SCLAlertView textFieldShouldReturn:]', symObjAddr: 0x1F68, symBinAddr: 0x15170, symSize: 0xA8 }
  - { offset: 0x9970A, size: 0x8, addend: 0x0, symName: '-[SCLAlertView keyboardWillShow:]', symObjAddr: 0x2010, symBinAddr: 0x15218, symSize: 0x84 }
  - { offset: 0x99786, size: 0x8, addend: 0x0, symName: '-[SCLAlertView keyboardWillShow:]', symObjAddr: 0x2010, symBinAddr: 0x15218, symSize: 0x84 }
  - { offset: 0x9978E, size: 0x8, addend: 0x0, symName: '___33-[SCLAlertView keyboardWillShow:]_block_invoke', symObjAddr: 0x2094, symBinAddr: 0x1529C, symSize: 0x94 }
  - { offset: 0x997CE, size: 0x8, addend: 0x0, symName: '___33-[SCLAlertView keyboardWillShow:]_block_invoke', symObjAddr: 0x2094, symBinAddr: 0x1529C, symSize: 0x94 }
  - { offset: 0x997D6, size: 0x8, addend: 0x0, symName: ___copy_helper_block_e8_32s, symObjAddr: 0x2128, symBinAddr: 0x15330, symSize: 0x8 }
  - { offset: 0x99807, size: 0x8, addend: 0x0, symName: ___copy_helper_block_e8_32s, symObjAddr: 0x2128, symBinAddr: 0x15330, symSize: 0x8 }
  - { offset: 0x99824, size: 0x8, addend: 0x0, symName: ___copy_helper_block_e8_32s, symObjAddr: 0x2128, symBinAddr: 0x15330, symSize: 0x8 }
  - { offset: 0x9982C, size: 0x8, addend: 0x0, symName: ___destroy_helper_block_e8_32s, symObjAddr: 0x2130, symBinAddr: 0x15338, symSize: 0x8 }
  - { offset: 0x99853, size: 0x8, addend: 0x0, symName: ___destroy_helper_block_e8_32s, symObjAddr: 0x2130, symBinAddr: 0x15338, symSize: 0x8 }
  - { offset: 0x9985B, size: 0x8, addend: 0x0, symName: '-[SCLAlertView keyboardWillHide:]', symObjAddr: 0x2138, symBinAddr: 0x15340, symSize: 0x80 }
  - { offset: 0x99879, size: 0x8, addend: 0x0, symName: '-[SCLAlertView keyboardWillHide:]', symObjAddr: 0x2138, symBinAddr: 0x15340, symSize: 0x80 }
  - { offset: 0x99881, size: 0x8, addend: 0x0, symName: '___33-[SCLAlertView keyboardWillHide:]_block_invoke', symObjAddr: 0x21B8, symBinAddr: 0x153C0, symSize: 0x94 }
  - { offset: 0x998C1, size: 0x8, addend: 0x0, symName: '___33-[SCLAlertView keyboardWillHide:]_block_invoke', symObjAddr: 0x21B8, symBinAddr: 0x153C0, symSize: 0x94 }
  - { offset: 0x998C9, size: 0x8, addend: 0x0, symName: '-[SCLAlertView addButton:]', symObjAddr: 0x224C, symBinAddr: 0x15454, symSize: 0x25C }
  - { offset: 0x998FA, size: 0x8, addend: 0x0, symName: '-[SCLAlertView addButton:]', symObjAddr: 0x224C, symBinAddr: 0x15454, symSize: 0x25C }
  - { offset: 0x99917, size: 0x8, addend: 0x0, symName: '-[SCLAlertView addButton:]', symObjAddr: 0x224C, symBinAddr: 0x15454, symSize: 0x25C }
  - { offset: 0x9991F, size: 0x8, addend: 0x0, symName: '-[SCLAlertView addDoneButtonWithTitle:]', symObjAddr: 0x24A8, symBinAddr: 0x156B0, symSize: 0x60 }
  - { offset: 0x9999B, size: 0x8, addend: 0x0, symName: '-[SCLAlertView addDoneButtonWithTitle:]', symObjAddr: 0x24A8, symBinAddr: 0x156B0, symSize: 0x60 }
  - { offset: 0x999A3, size: 0x8, addend: 0x0, symName: '-[SCLAlertView addButton:actionBlock:]', symObjAddr: 0x2508, symBinAddr: 0x15710, symSize: 0xA0 }
  - { offset: 0x999FC, size: 0x8, addend: 0x0, symName: '-[SCLAlertView addButton:actionBlock:]', symObjAddr: 0x2508, symBinAddr: 0x15710, symSize: 0xA0 }
  - { offset: 0x99A04, size: 0x8, addend: 0x0, symName: '-[SCLAlertView addButton:validationBlock:actionBlock:]', symObjAddr: 0x25A8, symBinAddr: 0x157B0, symSize: 0x68 }
  - { offset: 0x99A6E, size: 0x8, addend: 0x0, symName: '-[SCLAlertView addButton:validationBlock:actionBlock:]', symObjAddr: 0x25A8, symBinAddr: 0x157B0, symSize: 0x68 }
  - { offset: 0x99A76, size: 0x8, addend: 0x0, symName: '-[SCLAlertView addButton:target:selector:]', symObjAddr: 0x2610, symBinAddr: 0x15818, symSize: 0x94 }
  - { offset: 0x99AF1, size: 0x8, addend: 0x0, symName: '-[SCLAlertView addButton:target:selector:]', symObjAddr: 0x2610, symBinAddr: 0x15818, symSize: 0x94 }
  - { offset: 0x99AF9, size: 0x8, addend: 0x0, symName: '-[SCLAlertView buttonTapped:]', symObjAddr: 0x26A4, symBinAddr: 0x158AC, symSize: 0x170 }
  - { offset: 0x99B74, size: 0x8, addend: 0x0, symName: '-[SCLAlertView buttonTapped:]', symObjAddr: 0x26A4, symBinAddr: 0x158AC, symSize: 0x170 }
  - { offset: 0x99B7C, size: 0x8, addend: 0x0, symName: '-[SCLAlertView addTimerToButtonIndex:reverse:]', symObjAddr: 0x2814, symBinAddr: 0x15A1C, symSize: 0x8C }
  - { offset: 0x99BE3, size: 0x8, addend: 0x0, symName: '-[SCLAlertView addTimerToButtonIndex:reverse:]', symObjAddr: 0x2814, symBinAddr: 0x15A1C, symSize: 0x8C }
  - { offset: 0x99BEB, size: 0x8, addend: 0x0, symName: '-[SCLAlertView showTitle:image:color:title:subTitle:duration:completeText:style:]', symObjAddr: 0x28A0, symBinAddr: 0x15AA8, symSize: 0xEA8 }
  - { offset: 0x99C9D, size: 0x8, addend: 0x0, symName: '-[SCLAlertView showTitle:image:color:title:subTitle:duration:completeText:style:]', symObjAddr: 0x28A0, symBinAddr: 0x15AA8, symSize: 0xEA8 }
  - { offset: 0x99CA5, size: 0x8, addend: 0x0, symName: '___81-[SCLAlertView showTitle:image:color:title:subTitle:duration:completeText:style:]_block_invoke', symObjAddr: 0x3748, symBinAddr: 0x16950, symSize: 0xC }
  - { offset: 0x99E55, size: 0x8, addend: 0x0, symName: '___81-[SCLAlertView showTitle:image:color:title:subTitle:duration:completeText:style:]_block_invoke', symObjAddr: 0x3748, symBinAddr: 0x16950, symSize: 0xC }
  - { offset: 0x99E5D, size: 0x8, addend: 0x0, symName: ___copy_helper_block_e8_32s40s, symObjAddr: 0x3754, symBinAddr: 0x1695C, symSize: 0x28 }
  - { offset: 0x99E88, size: 0x8, addend: 0x0, symName: ___copy_helper_block_e8_32s40s, symObjAddr: 0x3754, symBinAddr: 0x1695C, symSize: 0x28 }
  - { offset: 0x99E90, size: 0x8, addend: 0x0, symName: ___destroy_helper_block_e8_32s40s, symObjAddr: 0x377C, symBinAddr: 0x16984, symSize: 0x28 }
  - { offset: 0x99EB9, size: 0x8, addend: 0x0, symName: ___destroy_helper_block_e8_32s40s, symObjAddr: 0x377C, symBinAddr: 0x16984, symSize: 0x28 }
  - { offset: 0x99EC1, size: 0x8, addend: 0x0, symName: '-[SCLAlertView showSuccess:title:subTitle:closeButtonTitle:duration:]', symObjAddr: 0x37A4, symBinAddr: 0x169AC, symSize: 0x3C }
  - { offset: 0x99EDF, size: 0x8, addend: 0x0, symName: '-[SCLAlertView showSuccess:title:subTitle:closeButtonTitle:duration:]', symObjAddr: 0x37A4, symBinAddr: 0x169AC, symSize: 0x3C }
  - { offset: 0x99EE7, size: 0x8, addend: 0x0, symName: '-[SCLAlertView showError:title:subTitle:closeButtonTitle:duration:]', symObjAddr: 0x37E0, symBinAddr: 0x169E8, symSize: 0x40 }
  - { offset: 0x99F6F, size: 0x8, addend: 0x0, symName: '-[SCLAlertView showError:title:subTitle:closeButtonTitle:duration:]', symObjAddr: 0x37E0, symBinAddr: 0x169E8, symSize: 0x40 }
  - { offset: 0x99F77, size: 0x8, addend: 0x0, symName: '-[SCLAlertView showNotice:title:subTitle:closeButtonTitle:duration:]', symObjAddr: 0x3820, symBinAddr: 0x16A28, symSize: 0x40 }
  - { offset: 0x99FFF, size: 0x8, addend: 0x0, symName: '-[SCLAlertView showNotice:title:subTitle:closeButtonTitle:duration:]', symObjAddr: 0x3820, symBinAddr: 0x16A28, symSize: 0x40 }
  - { offset: 0x9A007, size: 0x8, addend: 0x0, symName: '-[SCLAlertView showWarning:title:subTitle:closeButtonTitle:duration:]', symObjAddr: 0x3860, symBinAddr: 0x16A68, symSize: 0x40 }
  - { offset: 0x9A08F, size: 0x8, addend: 0x0, symName: '-[SCLAlertView showWarning:title:subTitle:closeButtonTitle:duration:]', symObjAddr: 0x3860, symBinAddr: 0x16A68, symSize: 0x40 }
  - { offset: 0x9A097, size: 0x8, addend: 0x0, symName: '-[SCLAlertView showInfo:title:subTitle:closeButtonTitle:duration:]', symObjAddr: 0x38A0, symBinAddr: 0x16AA8, symSize: 0x40 }
  - { offset: 0x9A11F, size: 0x8, addend: 0x0, symName: '-[SCLAlertView showInfo:title:subTitle:closeButtonTitle:duration:]', symObjAddr: 0x38A0, symBinAddr: 0x16AA8, symSize: 0x40 }
  - { offset: 0x9A127, size: 0x8, addend: 0x0, symName: '-[SCLAlertView showEdit:title:subTitle:closeButtonTitle:duration:]', symObjAddr: 0x38E0, symBinAddr: 0x16AE8, symSize: 0x40 }
  - { offset: 0x9A1AF, size: 0x8, addend: 0x0, symName: '-[SCLAlertView showEdit:title:subTitle:closeButtonTitle:duration:]', symObjAddr: 0x38E0, symBinAddr: 0x16AE8, symSize: 0x40 }
  - { offset: 0x9A1B7, size: 0x8, addend: 0x0, symName: '-[SCLAlertView showTitle:title:subTitle:style:closeButtonTitle:duration:]', symObjAddr: 0x3920, symBinAddr: 0x16B28, symSize: 0x40 }
  - { offset: 0x9A23F, size: 0x8, addend: 0x0, symName: '-[SCLAlertView showTitle:title:subTitle:style:closeButtonTitle:duration:]', symObjAddr: 0x3920, symBinAddr: 0x16B28, symSize: 0x40 }
  - { offset: 0x9A247, size: 0x8, addend: 0x0, symName: '-[SCLAlertView showCustom:image:color:title:subTitle:closeButtonTitle:duration:]', symObjAddr: 0x3960, symBinAddr: 0x16B68, symSize: 0x2C }
  - { offset: 0x9A2E0, size: 0x8, addend: 0x0, symName: '-[SCLAlertView showCustom:image:color:title:subTitle:closeButtonTitle:duration:]', symObjAddr: 0x3960, symBinAddr: 0x16B68, symSize: 0x2C }
  - { offset: 0x9A2E8, size: 0x8, addend: 0x0, symName: '-[SCLAlertView showWaiting:title:subTitle:closeButtonTitle:duration:]', symObjAddr: 0x398C, symBinAddr: 0x16B94, symSize: 0xE0 }
  - { offset: 0x9A392, size: 0x8, addend: 0x0, symName: '-[SCLAlertView showWaiting:title:subTitle:closeButtonTitle:duration:]', symObjAddr: 0x398C, symBinAddr: 0x16B94, symSize: 0xE0 }
  - { offset: 0x9A39A, size: 0x8, addend: 0x0, symName: '-[SCLAlertView showQuestion:title:subTitle:closeButtonTitle:duration:]', symObjAddr: 0x3A6C, symBinAddr: 0x16C74, symSize: 0x40 }
  - { offset: 0x9A422, size: 0x8, addend: 0x0, symName: '-[SCLAlertView showQuestion:title:subTitle:closeButtonTitle:duration:]', symObjAddr: 0x3A6C, symBinAddr: 0x16C74, symSize: 0x40 }
  - { offset: 0x9A42A, size: 0x8, addend: 0x0, symName: '-[SCLAlertView showSuccess:subTitle:closeButtonTitle:duration:]', symObjAddr: 0x3AAC, symBinAddr: 0x16CB4, symSize: 0x40 }
  - { offset: 0x9A4B2, size: 0x8, addend: 0x0, symName: '-[SCLAlertView showSuccess:subTitle:closeButtonTitle:duration:]', symObjAddr: 0x3AAC, symBinAddr: 0x16CB4, symSize: 0x40 }
  - { offset: 0x9A4BA, size: 0x8, addend: 0x0, symName: '-[SCLAlertView showError:subTitle:closeButtonTitle:duration:]', symObjAddr: 0x3AEC, symBinAddr: 0x16CF4, symSize: 0x44 }
  - { offset: 0x9A531, size: 0x8, addend: 0x0, symName: '-[SCLAlertView showError:subTitle:closeButtonTitle:duration:]', symObjAddr: 0x3AEC, symBinAddr: 0x16CF4, symSize: 0x44 }
  - { offset: 0x9A539, size: 0x8, addend: 0x0, symName: '-[SCLAlertView showNotice:subTitle:closeButtonTitle:duration:]', symObjAddr: 0x3B30, symBinAddr: 0x16D38, symSize: 0x44 }
  - { offset: 0x9A5B0, size: 0x8, addend: 0x0, symName: '-[SCLAlertView showNotice:subTitle:closeButtonTitle:duration:]', symObjAddr: 0x3B30, symBinAddr: 0x16D38, symSize: 0x44 }
  - { offset: 0x9A5B8, size: 0x8, addend: 0x0, symName: '-[SCLAlertView showWarning:subTitle:closeButtonTitle:duration:]', symObjAddr: 0x3B74, symBinAddr: 0x16D7C, symSize: 0x44 }
  - { offset: 0x9A62F, size: 0x8, addend: 0x0, symName: '-[SCLAlertView showWarning:subTitle:closeButtonTitle:duration:]', symObjAddr: 0x3B74, symBinAddr: 0x16D7C, symSize: 0x44 }
  - { offset: 0x9A637, size: 0x8, addend: 0x0, symName: '-[SCLAlertView showInfo:subTitle:closeButtonTitle:duration:]', symObjAddr: 0x3BB8, symBinAddr: 0x16DC0, symSize: 0x44 }
  - { offset: 0x9A6AE, size: 0x8, addend: 0x0, symName: '-[SCLAlertView showInfo:subTitle:closeButtonTitle:duration:]', symObjAddr: 0x3BB8, symBinAddr: 0x16DC0, symSize: 0x44 }
  - { offset: 0x9A6B6, size: 0x8, addend: 0x0, symName: '-[SCLAlertView showEdit:subTitle:closeButtonTitle:duration:]', symObjAddr: 0x3BFC, symBinAddr: 0x16E04, symSize: 0x44 }
  - { offset: 0x9A72D, size: 0x8, addend: 0x0, symName: '-[SCLAlertView showEdit:subTitle:closeButtonTitle:duration:]', symObjAddr: 0x3BFC, symBinAddr: 0x16E04, symSize: 0x44 }
  - { offset: 0x9A735, size: 0x8, addend: 0x0, symName: '-[SCLAlertView showTitle:subTitle:style:closeButtonTitle:duration:]', symObjAddr: 0x3C40, symBinAddr: 0x16E48, symSize: 0x40 }
  - { offset: 0x9A7AC, size: 0x8, addend: 0x0, symName: '-[SCLAlertView showTitle:subTitle:style:closeButtonTitle:duration:]', symObjAddr: 0x3C40, symBinAddr: 0x16E48, symSize: 0x40 }
  - { offset: 0x9A7B4, size: 0x8, addend: 0x0, symName: '-[SCLAlertView showCustom:color:title:subTitle:closeButtonTitle:duration:]', symObjAddr: 0x3C80, symBinAddr: 0x16E88, symSize: 0x44 }
  - { offset: 0x9A83C, size: 0x8, addend: 0x0, symName: '-[SCLAlertView showCustom:color:title:subTitle:closeButtonTitle:duration:]', symObjAddr: 0x3C80, symBinAddr: 0x16E88, symSize: 0x44 }
  - { offset: 0x9A844, size: 0x8, addend: 0x0, symName: '-[SCLAlertView showWaiting:subTitle:closeButtonTitle:duration:]', symObjAddr: 0x3CC4, symBinAddr: 0x16ECC, symSize: 0xC0 }
  - { offset: 0x9A8DD, size: 0x8, addend: 0x0, symName: '-[SCLAlertView showWaiting:subTitle:closeButtonTitle:duration:]', symObjAddr: 0x3CC4, symBinAddr: 0x16ECC, symSize: 0xC0 }
  - { offset: 0x9A8E5, size: 0x8, addend: 0x0, symName: '-[SCLAlertView showQuestion:subTitle:closeButtonTitle:duration:]', symObjAddr: 0x3D84, symBinAddr: 0x16F8C, symSize: 0x44 }
  - { offset: 0x9A95C, size: 0x8, addend: 0x0, symName: '-[SCLAlertView showQuestion:subTitle:closeButtonTitle:duration:]', symObjAddr: 0x3D84, symBinAddr: 0x16F8C, symSize: 0x44 }
  - { offset: 0x9A964, size: 0x8, addend: 0x0, symName: '-[SCLAlertView removeTopCircle]', symObjAddr: 0x3DC8, symBinAddr: 0x16FD0, symSize: 0x38 }
  - { offset: 0x9A9DB, size: 0x8, addend: 0x0, symName: '-[SCLAlertView removeTopCircle]', symObjAddr: 0x3DC8, symBinAddr: 0x16FD0, symSize: 0x38 }
  - { offset: 0x9A9E3, size: 0x8, addend: 0x0, symName: '-[SCLAlertView isVisible]', symObjAddr: 0x3E00, symBinAddr: 0x17008, symSize: 0x40 }
  - { offset: 0x9AA16, size: 0x8, addend: 0x0, symName: '-[SCLAlertView isVisible]', symObjAddr: 0x3E00, symBinAddr: 0x17008, symSize: 0x40 }
  - { offset: 0x9AA1E, size: 0x8, addend: 0x0, symName: '-[SCLAlertView alertIsDismissed:]', symObjAddr: 0x3E40, symBinAddr: 0x17048, symSize: 0x4 }
  - { offset: 0x9AA55, size: 0x8, addend: 0x0, symName: '-[SCLAlertView alertIsDismissed:]', symObjAddr: 0x3E40, symBinAddr: 0x17048, symSize: 0x4 }
  - { offset: 0x9AA5D, size: 0x8, addend: 0x0, symName: '-[SCLAlertView alertDismissAnimationIsCompleted:]', symObjAddr: 0x3E44, symBinAddr: 0x1704C, symSize: 0x4 }
  - { offset: 0x9AA9D, size: 0x8, addend: 0x0, symName: '-[SCLAlertView alertDismissAnimationIsCompleted:]', symObjAddr: 0x3E44, symBinAddr: 0x1704C, symSize: 0x4 }
  - { offset: 0x9AAA5, size: 0x8, addend: 0x0, symName: '-[SCLAlertView alertShowAnimationIsCompleted:]', symObjAddr: 0x3E48, symBinAddr: 0x17050, symSize: 0x4 }
  - { offset: 0x9AAE5, size: 0x8, addend: 0x0, symName: '-[SCLAlertView alertShowAnimationIsCompleted:]', symObjAddr: 0x3E48, symBinAddr: 0x17050, symSize: 0x4 }
  - { offset: 0x9AAED, size: 0x8, addend: 0x0, symName: '-[SCLAlertView forceHideBlock:]', symObjAddr: 0x3E4C, symBinAddr: 0x17054, symSize: 0x5C }
  - { offset: 0x9AB2D, size: 0x8, addend: 0x0, symName: '-[SCLAlertView forceHideBlock:]', symObjAddr: 0x3E4C, symBinAddr: 0x17054, symSize: 0x5C }
  - { offset: 0x9AB35, size: 0x8, addend: 0x0, symName: '-[SCLAlertView mainScreenFrame]', symObjAddr: 0x3EA8, symBinAddr: 0x170B0, symSize: 0xA8 }
  - { offset: 0x9AB7D, size: 0x8, addend: 0x0, symName: '-[SCLAlertView mainScreenFrame]', symObjAddr: 0x3EA8, symBinAddr: 0x170B0, symSize: 0xA8 }
  - { offset: 0x9AB85, size: 0x8, addend: 0x0, symName: '-[SCLAlertView isAppExtension]', symObjAddr: 0x3F50, symBinAddr: 0x17158, symSize: 0x74 }
  - { offset: 0x9ABBC, size: 0x8, addend: 0x0, symName: '-[SCLAlertView isAppExtension]', symObjAddr: 0x3F50, symBinAddr: 0x17158, symSize: 0x74 }
  - { offset: 0x9ABC4, size: 0x8, addend: 0x0, symName: '-[SCLAlertView makeShadowBackground]', symObjAddr: 0x3FC4, symBinAddr: 0x171CC, symSize: 0x8C }
  - { offset: 0x9ABF7, size: 0x8, addend: 0x0, symName: '-[SCLAlertView makeShadowBackground]', symObjAddr: 0x3FC4, symBinAddr: 0x171CC, symSize: 0x8C }
  - { offset: 0x9ABFF, size: 0x8, addend: 0x0, symName: '-[SCLAlertView makeBlurBackground]', symObjAddr: 0x4050, symBinAddr: 0x17258, symSize: 0x17C }
  - { offset: 0x9AC32, size: 0x8, addend: 0x0, symName: '-[SCLAlertView makeBlurBackground]', symObjAddr: 0x4050, symBinAddr: 0x17258, symSize: 0x17C }
  - { offset: 0x9AC3A, size: 0x8, addend: 0x0, symName: '-[SCLAlertView makeTransparentBackground]', symObjAddr: 0x41CC, symBinAddr: 0x173D4, symSize: 0x80 }
  - { offset: 0x9ACA0, size: 0x8, addend: 0x0, symName: '-[SCLAlertView makeTransparentBackground]', symObjAddr: 0x41CC, symBinAddr: 0x173D4, symSize: 0x80 }
  - { offset: 0x9ACA8, size: 0x8, addend: 0x0, symName: '-[SCLAlertView setBackground]', symObjAddr: 0x424C, symBinAddr: 0x17454, symSize: 0x30 }
  - { offset: 0x9ACDB, size: 0x8, addend: 0x0, symName: '-[SCLAlertView setBackground]', symObjAddr: 0x424C, symBinAddr: 0x17454, symSize: 0x30 }
  - { offset: 0x9ACE3, size: 0x8, addend: 0x0, symName: '-[SCLAlertView showView]', symObjAddr: 0x427C, symBinAddr: 0x17484, symSize: 0x50 }
  - { offset: 0x9AD14, size: 0x8, addend: 0x0, symName: '-[SCLAlertView showView]', symObjAddr: 0x427C, symBinAddr: 0x17484, symSize: 0x50 }
  - { offset: 0x9AD1C, size: 0x8, addend: 0x0, symName: '-[SCLAlertView hideView]', symObjAddr: 0x42CC, symBinAddr: 0x174D4, symSize: 0x244 }
  - { offset: 0x9AD4D, size: 0x8, addend: 0x0, symName: '-[SCLAlertView hideView]', symObjAddr: 0x42CC, symBinAddr: 0x174D4, symSize: 0x244 }
  - { offset: 0x9AD55, size: 0x8, addend: 0x0, symName: '-[SCLAlertView fadeOut]', symObjAddr: 0x4510, symBinAddr: 0x17718, symSize: 0xC }
  - { offset: 0x9AD9F, size: 0x8, addend: 0x0, symName: '-[SCLAlertView fadeOut]', symObjAddr: 0x4510, symBinAddr: 0x17718, symSize: 0xC }
  - { offset: 0x9ADA7, size: 0x8, addend: 0x0, symName: '-[SCLAlertView fadeOutWithDuration:]', symObjAddr: 0x451C, symBinAddr: 0x17724, symSize: 0x7C }
  - { offset: 0x9ADD8, size: 0x8, addend: 0x0, symName: '-[SCLAlertView fadeOutWithDuration:]', symObjAddr: 0x451C, symBinAddr: 0x17724, symSize: 0x7C }
  - { offset: 0x9ADE0, size: 0x8, addend: 0x0, symName: '___36-[SCLAlertView fadeOutWithDuration:]_block_invoke', symObjAddr: 0x4598, symBinAddr: 0x177A0, symSize: 0x60 }
  - { offset: 0x9AE24, size: 0x8, addend: 0x0, symName: '___36-[SCLAlertView fadeOutWithDuration:]_block_invoke', symObjAddr: 0x4598, symBinAddr: 0x177A0, symSize: 0x60 }
  - { offset: 0x9AE2C, size: 0x8, addend: 0x0, symName: '___36-[SCLAlertView fadeOutWithDuration:]_block_invoke_2', symObjAddr: 0x45F8, symBinAddr: 0x17800, symSize: 0xE8 }
  - { offset: 0x9AE57, size: 0x8, addend: 0x0, symName: '___36-[SCLAlertView fadeOutWithDuration:]_block_invoke_2', symObjAddr: 0x45F8, symBinAddr: 0x17800, symSize: 0xE8 }
  - { offset: 0x9AE5F, size: 0x8, addend: 0x0, symName: '-[SCLAlertView slideOutToBottom]', symObjAddr: 0x46E0, symBinAddr: 0x178E8, symSize: 0x84 }
  - { offset: 0x9AE97, size: 0x8, addend: 0x0, symName: '-[SCLAlertView slideOutToBottom]', symObjAddr: 0x46E0, symBinAddr: 0x178E8, symSize: 0x84 }
  - { offset: 0x9AE9F, size: 0x8, addend: 0x0, symName: '___32-[SCLAlertView slideOutToBottom]_block_invoke', symObjAddr: 0x4764, symBinAddr: 0x1796C, symSize: 0xAC }
  - { offset: 0x9AED2, size: 0x8, addend: 0x0, symName: '___32-[SCLAlertView slideOutToBottom]_block_invoke', symObjAddr: 0x4764, symBinAddr: 0x1796C, symSize: 0xAC }
  - { offset: 0x9AEDA, size: 0x8, addend: 0x0, symName: '___32-[SCLAlertView slideOutToBottom]_block_invoke_2', symObjAddr: 0x4810, symBinAddr: 0x17A18, symSize: 0x8 }
  - { offset: 0x9AF0B, size: 0x8, addend: 0x0, symName: '___32-[SCLAlertView slideOutToBottom]_block_invoke_2', symObjAddr: 0x4810, symBinAddr: 0x17A18, symSize: 0x8 }
  - { offset: 0x9AF28, size: 0x8, addend: 0x0, symName: '___32-[SCLAlertView slideOutToBottom]_block_invoke_2', symObjAddr: 0x4810, symBinAddr: 0x17A18, symSize: 0x8 }
  - { offset: 0x9AF30, size: 0x8, addend: 0x0, symName: '-[SCLAlertView slideOutToTop]', symObjAddr: 0x4818, symBinAddr: 0x17A20, symSize: 0x84 }
  - { offset: 0x9AF68, size: 0x8, addend: 0x0, symName: '-[SCLAlertView slideOutToTop]', symObjAddr: 0x4818, symBinAddr: 0x17A20, symSize: 0x84 }
  - { offset: 0x9AF70, size: 0x8, addend: 0x0, symName: '___29-[SCLAlertView slideOutToTop]_block_invoke', symObjAddr: 0x489C, symBinAddr: 0x17AA4, symSize: 0xAC }
  - { offset: 0x9AFA3, size: 0x8, addend: 0x0, symName: '___29-[SCLAlertView slideOutToTop]_block_invoke', symObjAddr: 0x489C, symBinAddr: 0x17AA4, symSize: 0xAC }
  - { offset: 0x9AFAB, size: 0x8, addend: 0x0, symName: '___29-[SCLAlertView slideOutToTop]_block_invoke_2', symObjAddr: 0x4948, symBinAddr: 0x17B50, symSize: 0x8 }
  - { offset: 0x9AFDC, size: 0x8, addend: 0x0, symName: '___29-[SCLAlertView slideOutToTop]_block_invoke_2', symObjAddr: 0x4948, symBinAddr: 0x17B50, symSize: 0x8 }
  - { offset: 0x9AFF9, size: 0x8, addend: 0x0, symName: '___29-[SCLAlertView slideOutToTop]_block_invoke_2', symObjAddr: 0x4948, symBinAddr: 0x17B50, symSize: 0x8 }
  - { offset: 0x9B001, size: 0x8, addend: 0x0, symName: '-[SCLAlertView slideOutToLeft]', symObjAddr: 0x4950, symBinAddr: 0x17B58, symSize: 0x84 }
  - { offset: 0x9B039, size: 0x8, addend: 0x0, symName: '-[SCLAlertView slideOutToLeft]', symObjAddr: 0x4950, symBinAddr: 0x17B58, symSize: 0x84 }
  - { offset: 0x9B041, size: 0x8, addend: 0x0, symName: '___30-[SCLAlertView slideOutToLeft]_block_invoke', symObjAddr: 0x49D4, symBinAddr: 0x17BDC, symSize: 0xAC }
  - { offset: 0x9B074, size: 0x8, addend: 0x0, symName: '___30-[SCLAlertView slideOutToLeft]_block_invoke', symObjAddr: 0x49D4, symBinAddr: 0x17BDC, symSize: 0xAC }
  - { offset: 0x9B07C, size: 0x8, addend: 0x0, symName: '___30-[SCLAlertView slideOutToLeft]_block_invoke_2', symObjAddr: 0x4A80, symBinAddr: 0x17C88, symSize: 0x8 }
  - { offset: 0x9B0AD, size: 0x8, addend: 0x0, symName: '___30-[SCLAlertView slideOutToLeft]_block_invoke_2', symObjAddr: 0x4A80, symBinAddr: 0x17C88, symSize: 0x8 }
  - { offset: 0x9B0CA, size: 0x8, addend: 0x0, symName: '___30-[SCLAlertView slideOutToLeft]_block_invoke_2', symObjAddr: 0x4A80, symBinAddr: 0x17C88, symSize: 0x8 }
  - { offset: 0x9B0D2, size: 0x8, addend: 0x0, symName: '-[SCLAlertView slideOutToRight]', symObjAddr: 0x4A88, symBinAddr: 0x17C90, symSize: 0x84 }
  - { offset: 0x9B10A, size: 0x8, addend: 0x0, symName: '-[SCLAlertView slideOutToRight]', symObjAddr: 0x4A88, symBinAddr: 0x17C90, symSize: 0x84 }
  - { offset: 0x9B112, size: 0x8, addend: 0x0, symName: '___31-[SCLAlertView slideOutToRight]_block_invoke', symObjAddr: 0x4B0C, symBinAddr: 0x17D14, symSize: 0xAC }
  - { offset: 0x9B145, size: 0x8, addend: 0x0, symName: '___31-[SCLAlertView slideOutToRight]_block_invoke', symObjAddr: 0x4B0C, symBinAddr: 0x17D14, symSize: 0xAC }
  - { offset: 0x9B14D, size: 0x8, addend: 0x0, symName: '___31-[SCLAlertView slideOutToRight]_block_invoke_2', symObjAddr: 0x4BB8, symBinAddr: 0x17DC0, symSize: 0x8 }
  - { offset: 0x9B17E, size: 0x8, addend: 0x0, symName: '___31-[SCLAlertView slideOutToRight]_block_invoke_2', symObjAddr: 0x4BB8, symBinAddr: 0x17DC0, symSize: 0x8 }
  - { offset: 0x9B19B, size: 0x8, addend: 0x0, symName: '___31-[SCLAlertView slideOutToRight]_block_invoke_2', symObjAddr: 0x4BB8, symBinAddr: 0x17DC0, symSize: 0x8 }
  - { offset: 0x9B1A3, size: 0x8, addend: 0x0, symName: '-[SCLAlertView slideOutToCenter]', symObjAddr: 0x4BC0, symBinAddr: 0x17DC8, symSize: 0x84 }
  - { offset: 0x9B1DB, size: 0x8, addend: 0x0, symName: '-[SCLAlertView slideOutToCenter]', symObjAddr: 0x4BC0, symBinAddr: 0x17DC8, symSize: 0x84 }
  - { offset: 0x9B1E3, size: 0x8, addend: 0x0, symName: '___32-[SCLAlertView slideOutToCenter]_block_invoke', symObjAddr: 0x4C44, symBinAddr: 0x17E4C, symSize: 0xB8 }
  - { offset: 0x9B216, size: 0x8, addend: 0x0, symName: '___32-[SCLAlertView slideOutToCenter]_block_invoke', symObjAddr: 0x4C44, symBinAddr: 0x17E4C, symSize: 0xB8 }
  - { offset: 0x9B21E, size: 0x8, addend: 0x0, symName: '___32-[SCLAlertView slideOutToCenter]_block_invoke_2', symObjAddr: 0x4CFC, symBinAddr: 0x17F04, symSize: 0x8 }
  - { offset: 0x9B249, size: 0x8, addend: 0x0, symName: '___32-[SCLAlertView slideOutToCenter]_block_invoke_2', symObjAddr: 0x4CFC, symBinAddr: 0x17F04, symSize: 0x8 }
  - { offset: 0x9B251, size: 0x8, addend: 0x0, symName: '-[SCLAlertView slideOutFromCenter]', symObjAddr: 0x4D04, symBinAddr: 0x17F0C, symSize: 0x84 }
  - { offset: 0x9B289, size: 0x8, addend: 0x0, symName: '-[SCLAlertView slideOutFromCenter]', symObjAddr: 0x4D04, symBinAddr: 0x17F0C, symSize: 0x84 }
  - { offset: 0x9B291, size: 0x8, addend: 0x0, symName: '___34-[SCLAlertView slideOutFromCenter]_block_invoke', symObjAddr: 0x4D88, symBinAddr: 0x17F90, symSize: 0xB4 }
  - { offset: 0x9B2C4, size: 0x8, addend: 0x0, symName: '___34-[SCLAlertView slideOutFromCenter]_block_invoke', symObjAddr: 0x4D88, symBinAddr: 0x17F90, symSize: 0xB4 }
  - { offset: 0x9B2CC, size: 0x8, addend: 0x0, symName: '___34-[SCLAlertView slideOutFromCenter]_block_invoke_2', symObjAddr: 0x4E3C, symBinAddr: 0x18044, symSize: 0x8 }
  - { offset: 0x9B2F7, size: 0x8, addend: 0x0, symName: '___34-[SCLAlertView slideOutFromCenter]_block_invoke_2', symObjAddr: 0x4E3C, symBinAddr: 0x18044, symSize: 0x8 }
  - { offset: 0x9B2FF, size: 0x8, addend: 0x0, symName: '-[SCLAlertView simplyDisappear]', symObjAddr: 0x4E44, symBinAddr: 0x1804C, symSize: 0xCC }
  - { offset: 0x9B337, size: 0x8, addend: 0x0, symName: '-[SCLAlertView simplyDisappear]', symObjAddr: 0x4E44, symBinAddr: 0x1804C, symSize: 0xCC }
  - { offset: 0x9B33F, size: 0x8, addend: 0x0, symName: '___31-[SCLAlertView simplyDisappear]_block_invoke', symObjAddr: 0x4F10, symBinAddr: 0x18118, symSize: 0xC }
  - { offset: 0x9B372, size: 0x8, addend: 0x0, symName: '___31-[SCLAlertView simplyDisappear]_block_invoke', symObjAddr: 0x4F10, symBinAddr: 0x18118, symSize: 0xC }
  - { offset: 0x9B37A, size: 0x8, addend: 0x0, symName: '-[SCLAlertView fadeIn]', symObjAddr: 0x4F1C, symBinAddr: 0x18124, symSize: 0xD8 }
  - { offset: 0x9B3A5, size: 0x8, addend: 0x0, symName: '-[SCLAlertView fadeIn]', symObjAddr: 0x4F1C, symBinAddr: 0x18124, symSize: 0xD8 }
  - { offset: 0x9B3AD, size: 0x8, addend: 0x0, symName: '___22-[SCLAlertView fadeIn]_block_invoke', symObjAddr: 0x4FF4, symBinAddr: 0x181FC, symSize: 0x74 }
  - { offset: 0x9B3E0, size: 0x8, addend: 0x0, symName: '___22-[SCLAlertView fadeIn]_block_invoke', symObjAddr: 0x4FF4, symBinAddr: 0x181FC, symSize: 0x74 }
  - { offset: 0x9B3E8, size: 0x8, addend: 0x0, symName: '___22-[SCLAlertView fadeIn]_block_invoke_2', symObjAddr: 0x5068, symBinAddr: 0x18270, symSize: 0x64 }
  - { offset: 0x9B413, size: 0x8, addend: 0x0, symName: '___22-[SCLAlertView fadeIn]_block_invoke_2', symObjAddr: 0x5068, symBinAddr: 0x18270, symSize: 0x64 }
  - { offset: 0x9B41B, size: 0x8, addend: 0x0, symName: '-[SCLAlertView slideInFromTop]', symObjAddr: 0x50CC, symBinAddr: 0x182D4, symSize: 0x128 }
  - { offset: 0x9B453, size: 0x8, addend: 0x0, symName: '-[SCLAlertView slideInFromTop]', symObjAddr: 0x50CC, symBinAddr: 0x182D4, symSize: 0x128 }
  - { offset: 0x9B45B, size: 0x8, addend: 0x0, symName: '___30-[SCLAlertView slideInFromTop]_block_invoke', symObjAddr: 0x51F4, symBinAddr: 0x183FC, symSize: 0xD8 }
  - { offset: 0x9B49F, size: 0x8, addend: 0x0, symName: '___30-[SCLAlertView slideInFromTop]_block_invoke', symObjAddr: 0x51F4, symBinAddr: 0x183FC, symSize: 0xD8 }
  - { offset: 0x9B4A7, size: 0x8, addend: 0x0, symName: '___30-[SCLAlertView slideInFromTop]_block_invoke_2', symObjAddr: 0x52CC, symBinAddr: 0x184D4, symSize: 0x64 }
  - { offset: 0x9B4D8, size: 0x8, addend: 0x0, symName: '___30-[SCLAlertView slideInFromTop]_block_invoke_2', symObjAddr: 0x52CC, symBinAddr: 0x184D4, symSize: 0x64 }
  - { offset: 0x9B4F5, size: 0x8, addend: 0x0, symName: '___30-[SCLAlertView slideInFromTop]_block_invoke_2', symObjAddr: 0x52CC, symBinAddr: 0x184D4, symSize: 0x64 }
  - { offset: 0x9B4FD, size: 0x8, addend: 0x0, symName: '-[SCLAlertView slideInFromBottom]', symObjAddr: 0x5330, symBinAddr: 0x18538, symSize: 0x118 }
  - { offset: 0x9B535, size: 0x8, addend: 0x0, symName: '-[SCLAlertView slideInFromBottom]', symObjAddr: 0x5330, symBinAddr: 0x18538, symSize: 0x118 }
  - { offset: 0x9B53D, size: 0x8, addend: 0x0, symName: '___33-[SCLAlertView slideInFromBottom]_block_invoke', symObjAddr: 0x5448, symBinAddr: 0x18650, symSize: 0xD8 }
  - { offset: 0x9B581, size: 0x8, addend: 0x0, symName: '___33-[SCLAlertView slideInFromBottom]_block_invoke', symObjAddr: 0x5448, symBinAddr: 0x18650, symSize: 0xD8 }
  - { offset: 0x9B589, size: 0x8, addend: 0x0, symName: '___33-[SCLAlertView slideInFromBottom]_block_invoke_2', symObjAddr: 0x5520, symBinAddr: 0x18728, symSize: 0x8C }
  - { offset: 0x9B5BA, size: 0x8, addend: 0x0, symName: '___33-[SCLAlertView slideInFromBottom]_block_invoke_2', symObjAddr: 0x5520, symBinAddr: 0x18728, symSize: 0x8C }
  - { offset: 0x9B5D7, size: 0x8, addend: 0x0, symName: '___33-[SCLAlertView slideInFromBottom]_block_invoke_2', symObjAddr: 0x5520, symBinAddr: 0x18728, symSize: 0x8C }
  - { offset: 0x9B5DF, size: 0x8, addend: 0x0, symName: '___33-[SCLAlertView slideInFromBottom]_block_invoke_3', symObjAddr: 0x55AC, symBinAddr: 0x187B4, symSize: 0x70 }
  - { offset: 0x9B617, size: 0x8, addend: 0x0, symName: '___33-[SCLAlertView slideInFromBottom]_block_invoke_3', symObjAddr: 0x55AC, symBinAddr: 0x187B4, symSize: 0x70 }
  - { offset: 0x9B61F, size: 0x8, addend: 0x0, symName: '___33-[SCLAlertView slideInFromBottom]_block_invoke_4', symObjAddr: 0x561C, symBinAddr: 0x18824, symSize: 0x64 }
  - { offset: 0x9B64A, size: 0x8, addend: 0x0, symName: '___33-[SCLAlertView slideInFromBottom]_block_invoke_4', symObjAddr: 0x561C, symBinAddr: 0x18824, symSize: 0x64 }
  - { offset: 0x9B652, size: 0x8, addend: 0x0, symName: '-[SCLAlertView slideInFromLeft]', symObjAddr: 0x5680, symBinAddr: 0x18888, symSize: 0x118 }
  - { offset: 0x9B68A, size: 0x8, addend: 0x0, symName: '-[SCLAlertView slideInFromLeft]', symObjAddr: 0x5680, symBinAddr: 0x18888, symSize: 0x118 }
  - { offset: 0x9B692, size: 0x8, addend: 0x0, symName: '___31-[SCLAlertView slideInFromLeft]_block_invoke', symObjAddr: 0x5798, symBinAddr: 0x189A0, symSize: 0xD8 }
  - { offset: 0x9B6D6, size: 0x8, addend: 0x0, symName: '___31-[SCLAlertView slideInFromLeft]_block_invoke', symObjAddr: 0x5798, symBinAddr: 0x189A0, symSize: 0xD8 }
  - { offset: 0x9B6DE, size: 0x8, addend: 0x0, symName: '___31-[SCLAlertView slideInFromLeft]_block_invoke_2', symObjAddr: 0x5870, symBinAddr: 0x18A78, symSize: 0x8C }
  - { offset: 0x9B70F, size: 0x8, addend: 0x0, symName: '___31-[SCLAlertView slideInFromLeft]_block_invoke_2', symObjAddr: 0x5870, symBinAddr: 0x18A78, symSize: 0x8C }
  - { offset: 0x9B72C, size: 0x8, addend: 0x0, symName: '___31-[SCLAlertView slideInFromLeft]_block_invoke_2', symObjAddr: 0x5870, symBinAddr: 0x18A78, symSize: 0x8C }
  - { offset: 0x9B734, size: 0x8, addend: 0x0, symName: '___31-[SCLAlertView slideInFromLeft]_block_invoke_3', symObjAddr: 0x58FC, symBinAddr: 0x18B04, symSize: 0x70 }
  - { offset: 0x9B76C, size: 0x8, addend: 0x0, symName: '___31-[SCLAlertView slideInFromLeft]_block_invoke_3', symObjAddr: 0x58FC, symBinAddr: 0x18B04, symSize: 0x70 }
  - { offset: 0x9B774, size: 0x8, addend: 0x0, symName: '___31-[SCLAlertView slideInFromLeft]_block_invoke_4', symObjAddr: 0x596C, symBinAddr: 0x18B74, symSize: 0x64 }
  - { offset: 0x9B79F, size: 0x8, addend: 0x0, symName: '___31-[SCLAlertView slideInFromLeft]_block_invoke_4', symObjAddr: 0x596C, symBinAddr: 0x18B74, symSize: 0x64 }
  - { offset: 0x9B7A7, size: 0x8, addend: 0x0, symName: '-[SCLAlertView slideInFromRight]', symObjAddr: 0x59D0, symBinAddr: 0x18BD8, symSize: 0x118 }
  - { offset: 0x9B7DF, size: 0x8, addend: 0x0, symName: '-[SCLAlertView slideInFromRight]', symObjAddr: 0x59D0, symBinAddr: 0x18BD8, symSize: 0x118 }
  - { offset: 0x9B7E7, size: 0x8, addend: 0x0, symName: '___32-[SCLAlertView slideInFromRight]_block_invoke', symObjAddr: 0x5AE8, symBinAddr: 0x18CF0, symSize: 0xD8 }
  - { offset: 0x9B82B, size: 0x8, addend: 0x0, symName: '___32-[SCLAlertView slideInFromRight]_block_invoke', symObjAddr: 0x5AE8, symBinAddr: 0x18CF0, symSize: 0xD8 }
  - { offset: 0x9B833, size: 0x8, addend: 0x0, symName: '___32-[SCLAlertView slideInFromRight]_block_invoke_2', symObjAddr: 0x5BC0, symBinAddr: 0x18DC8, symSize: 0x8C }
  - { offset: 0x9B864, size: 0x8, addend: 0x0, symName: '___32-[SCLAlertView slideInFromRight]_block_invoke_2', symObjAddr: 0x5BC0, symBinAddr: 0x18DC8, symSize: 0x8C }
  - { offset: 0x9B881, size: 0x8, addend: 0x0, symName: '___32-[SCLAlertView slideInFromRight]_block_invoke_2', symObjAddr: 0x5BC0, symBinAddr: 0x18DC8, symSize: 0x8C }
  - { offset: 0x9B889, size: 0x8, addend: 0x0, symName: '___32-[SCLAlertView slideInFromRight]_block_invoke_3', symObjAddr: 0x5C4C, symBinAddr: 0x18E54, symSize: 0x70 }
  - { offset: 0x9B8C1, size: 0x8, addend: 0x0, symName: '___32-[SCLAlertView slideInFromRight]_block_invoke_3', symObjAddr: 0x5C4C, symBinAddr: 0x18E54, symSize: 0x70 }
  - { offset: 0x9B8C9, size: 0x8, addend: 0x0, symName: '___32-[SCLAlertView slideInFromRight]_block_invoke_4', symObjAddr: 0x5CBC, symBinAddr: 0x18EC4, symSize: 0x64 }
  - { offset: 0x9B8F4, size: 0x8, addend: 0x0, symName: '___32-[SCLAlertView slideInFromRight]_block_invoke_4', symObjAddr: 0x5CBC, symBinAddr: 0x18EC4, symSize: 0x64 }
  - { offset: 0x9B8FC, size: 0x8, addend: 0x0, symName: '-[SCLAlertView slideInFromCenter]', symObjAddr: 0x5D20, symBinAddr: 0x18F28, symSize: 0x124 }
  - { offset: 0x9B934, size: 0x8, addend: 0x0, symName: '-[SCLAlertView slideInFromCenter]', symObjAddr: 0x5D20, symBinAddr: 0x18F28, symSize: 0x124 }
  - { offset: 0x9B93C, size: 0x8, addend: 0x0, symName: '___33-[SCLAlertView slideInFromCenter]_block_invoke', symObjAddr: 0x5E44, symBinAddr: 0x1904C, symSize: 0xEC }
  - { offset: 0x9B96F, size: 0x8, addend: 0x0, symName: '___33-[SCLAlertView slideInFromCenter]_block_invoke', symObjAddr: 0x5E44, symBinAddr: 0x1904C, symSize: 0xEC }
  - { offset: 0x9B977, size: 0x8, addend: 0x0, symName: '___33-[SCLAlertView slideInFromCenter]_block_invoke_2', symObjAddr: 0x5F30, symBinAddr: 0x19138, symSize: 0x8C }
  - { offset: 0x9B9A2, size: 0x8, addend: 0x0, symName: '___33-[SCLAlertView slideInFromCenter]_block_invoke_2', symObjAddr: 0x5F30, symBinAddr: 0x19138, symSize: 0x8C }
  - { offset: 0x9B9AA, size: 0x8, addend: 0x0, symName: '___33-[SCLAlertView slideInFromCenter]_block_invoke_3', symObjAddr: 0x5FBC, symBinAddr: 0x191C4, symSize: 0x70 }
  - { offset: 0x9B9E2, size: 0x8, addend: 0x0, symName: '___33-[SCLAlertView slideInFromCenter]_block_invoke_3', symObjAddr: 0x5FBC, symBinAddr: 0x191C4, symSize: 0x70 }
  - { offset: 0x9B9EA, size: 0x8, addend: 0x0, symName: '___33-[SCLAlertView slideInFromCenter]_block_invoke_4', symObjAddr: 0x602C, symBinAddr: 0x19234, symSize: 0x64 }
  - { offset: 0x9BA15, size: 0x8, addend: 0x0, symName: '___33-[SCLAlertView slideInFromCenter]_block_invoke_4', symObjAddr: 0x602C, symBinAddr: 0x19234, symSize: 0x64 }
  - { offset: 0x9BA1D, size: 0x8, addend: 0x0, symName: '-[SCLAlertView slideInToCenter]', symObjAddr: 0x6090, symBinAddr: 0x19298, symSize: 0x128 }
  - { offset: 0x9BA55, size: 0x8, addend: 0x0, symName: '-[SCLAlertView slideInToCenter]', symObjAddr: 0x6090, symBinAddr: 0x19298, symSize: 0x128 }
  - { offset: 0x9BA5D, size: 0x8, addend: 0x0, symName: '___31-[SCLAlertView slideInToCenter]_block_invoke', symObjAddr: 0x61B8, symBinAddr: 0x193C0, symSize: 0xEC }
  - { offset: 0x9BA90, size: 0x8, addend: 0x0, symName: '___31-[SCLAlertView slideInToCenter]_block_invoke', symObjAddr: 0x61B8, symBinAddr: 0x193C0, symSize: 0xEC }
  - { offset: 0x9BA98, size: 0x8, addend: 0x0, symName: '___31-[SCLAlertView slideInToCenter]_block_invoke_2', symObjAddr: 0x62A4, symBinAddr: 0x194AC, symSize: 0x8C }
  - { offset: 0x9BAC3, size: 0x8, addend: 0x0, symName: '___31-[SCLAlertView slideInToCenter]_block_invoke_2', symObjAddr: 0x62A4, symBinAddr: 0x194AC, symSize: 0x8C }
  - { offset: 0x9BACB, size: 0x8, addend: 0x0, symName: '___31-[SCLAlertView slideInToCenter]_block_invoke_3', symObjAddr: 0x6330, symBinAddr: 0x19538, symSize: 0x70 }
  - { offset: 0x9BB03, size: 0x8, addend: 0x0, symName: '___31-[SCLAlertView slideInToCenter]_block_invoke_3', symObjAddr: 0x6330, symBinAddr: 0x19538, symSize: 0x70 }
  - { offset: 0x9BB0B, size: 0x8, addend: 0x0, symName: '___31-[SCLAlertView slideInToCenter]_block_invoke_4', symObjAddr: 0x63A0, symBinAddr: 0x195A8, symSize: 0x64 }
  - { offset: 0x9BB36, size: 0x8, addend: 0x0, symName: '___31-[SCLAlertView slideInToCenter]_block_invoke_4', symObjAddr: 0x63A0, symBinAddr: 0x195A8, symSize: 0x64 }
  - { offset: 0x9BB3E, size: 0x8, addend: 0x0, symName: '-[SCLAlertView simplyAppear]', symObjAddr: 0x6404, symBinAddr: 0x1960C, symSize: 0xB8 }
  - { offset: 0x9BB76, size: 0x8, addend: 0x0, symName: '-[SCLAlertView simplyAppear]', symObjAddr: 0x6404, symBinAddr: 0x1960C, symSize: 0xB8 }
  - { offset: 0x9BB7E, size: 0x8, addend: 0x0, symName: '___28-[SCLAlertView simplyAppear]_block_invoke', symObjAddr: 0x64BC, symBinAddr: 0x196C4, symSize: 0xC4 }
  - { offset: 0x9BBB1, size: 0x8, addend: 0x0, symName: '___28-[SCLAlertView simplyAppear]_block_invoke', symObjAddr: 0x64BC, symBinAddr: 0x196C4, symSize: 0xC4 }
  - { offset: 0x9BBB9, size: 0x8, addend: 0x0, symName: '-[SCLAlertView cornerRadius]', symObjAddr: 0x6580, symBinAddr: 0x19788, symSize: 0x10 }
  - { offset: 0x9BBE4, size: 0x8, addend: 0x0, symName: '-[SCLAlertView cornerRadius]', symObjAddr: 0x6580, symBinAddr: 0x19788, symSize: 0x10 }
  - { offset: 0x9BBEC, size: 0x8, addend: 0x0, symName: '-[SCLAlertView setCornerRadius:]', symObjAddr: 0x6590, symBinAddr: 0x19798, symSize: 0x10 }
  - { offset: 0x9BC21, size: 0x8, addend: 0x0, symName: '-[SCLAlertView setCornerRadius:]', symObjAddr: 0x6590, symBinAddr: 0x19798, symSize: 0x10 }
  - { offset: 0x9BC29, size: 0x8, addend: 0x0, symName: '-[SCLAlertView tintTopCircle]', symObjAddr: 0x65A0, symBinAddr: 0x197A8, symSize: 0x10 }
  - { offset: 0x9BC67, size: 0x8, addend: 0x0, symName: '-[SCLAlertView tintTopCircle]', symObjAddr: 0x65A0, symBinAddr: 0x197A8, symSize: 0x10 }
  - { offset: 0x9BC6F, size: 0x8, addend: 0x0, symName: '-[SCLAlertView setTintTopCircle:]', symObjAddr: 0x65B0, symBinAddr: 0x197B8, symSize: 0x10 }
  - { offset: 0x9BCA6, size: 0x8, addend: 0x0, symName: '-[SCLAlertView setTintTopCircle:]', symObjAddr: 0x65B0, symBinAddr: 0x197B8, symSize: 0x10 }
  - { offset: 0x9BCAE, size: 0x8, addend: 0x0, symName: '-[SCLAlertView useLargerIcon]', symObjAddr: 0x65C0, symBinAddr: 0x197C8, symSize: 0x10 }
  - { offset: 0x9BCE9, size: 0x8, addend: 0x0, symName: '-[SCLAlertView useLargerIcon]', symObjAddr: 0x65C0, symBinAddr: 0x197C8, symSize: 0x10 }
  - { offset: 0x9BCF1, size: 0x8, addend: 0x0, symName: '-[SCLAlertView setUseLargerIcon:]', symObjAddr: 0x65D0, symBinAddr: 0x197D8, symSize: 0x10 }
  - { offset: 0x9BD28, size: 0x8, addend: 0x0, symName: '-[SCLAlertView setUseLargerIcon:]', symObjAddr: 0x65D0, symBinAddr: 0x197D8, symSize: 0x10 }
  - { offset: 0x9BD30, size: 0x8, addend: 0x0, symName: '-[SCLAlertView labelTitle]', symObjAddr: 0x65E0, symBinAddr: 0x197E8, symSize: 0x10 }
  - { offset: 0x9BD6B, size: 0x8, addend: 0x0, symName: '-[SCLAlertView labelTitle]', symObjAddr: 0x65E0, symBinAddr: 0x197E8, symSize: 0x10 }
  - { offset: 0x9BD73, size: 0x8, addend: 0x0, symName: '-[SCLAlertView setLabelTitle:]', symObjAddr: 0x65F0, symBinAddr: 0x197F8, symSize: 0x14 }
  - { offset: 0x9BDAA, size: 0x8, addend: 0x0, symName: '-[SCLAlertView setLabelTitle:]', symObjAddr: 0x65F0, symBinAddr: 0x197F8, symSize: 0x14 }
  - { offset: 0x9BDB2, size: 0x8, addend: 0x0, symName: '-[SCLAlertView viewText]', symObjAddr: 0x6604, symBinAddr: 0x1980C, symSize: 0x10 }
  - { offset: 0x9BDF3, size: 0x8, addend: 0x0, symName: '-[SCLAlertView viewText]', symObjAddr: 0x6604, symBinAddr: 0x1980C, symSize: 0x10 }
  - { offset: 0x9BDFB, size: 0x8, addend: 0x0, symName: '-[SCLAlertView setViewText:]', symObjAddr: 0x6614, symBinAddr: 0x1981C, symSize: 0x14 }
  - { offset: 0x9BE32, size: 0x8, addend: 0x0, symName: '-[SCLAlertView setViewText:]', symObjAddr: 0x6614, symBinAddr: 0x1981C, symSize: 0x14 }
  - { offset: 0x9BE3A, size: 0x8, addend: 0x0, symName: '-[SCLAlertView activityIndicatorView]', symObjAddr: 0x6628, symBinAddr: 0x19830, symSize: 0x10 }
  - { offset: 0x9BE7B, size: 0x8, addend: 0x0, symName: '-[SCLAlertView activityIndicatorView]', symObjAddr: 0x6628, symBinAddr: 0x19830, symSize: 0x10 }
  - { offset: 0x9BE83, size: 0x8, addend: 0x0, symName: '-[SCLAlertView setActivityIndicatorView:]', symObjAddr: 0x6638, symBinAddr: 0x19840, symSize: 0x14 }
  - { offset: 0x9BEBA, size: 0x8, addend: 0x0, symName: '-[SCLAlertView setActivityIndicatorView:]', symObjAddr: 0x6638, symBinAddr: 0x19840, symSize: 0x14 }
  - { offset: 0x9BEC2, size: 0x8, addend: 0x0, symName: '-[SCLAlertView shouldDismissOnTapOutside]', symObjAddr: 0x664C, symBinAddr: 0x19854, symSize: 0x10 }
  - { offset: 0x9BF03, size: 0x8, addend: 0x0, symName: '-[SCLAlertView shouldDismissOnTapOutside]', symObjAddr: 0x664C, symBinAddr: 0x19854, symSize: 0x10 }
  - { offset: 0x9BF0B, size: 0x8, addend: 0x0, symName: '-[SCLAlertView soundURL]', symObjAddr: 0x665C, symBinAddr: 0x19864, symSize: 0x10 }
  - { offset: 0x9BF42, size: 0x8, addend: 0x0, symName: '-[SCLAlertView soundURL]', symObjAddr: 0x665C, symBinAddr: 0x19864, symSize: 0x10 }
  - { offset: 0x9BF4A, size: 0x8, addend: 0x0, symName: '-[SCLAlertView attributedFormatBlock]', symObjAddr: 0x666C, symBinAddr: 0x19874, symSize: 0x10 }
  - { offset: 0x9BF81, size: 0x8, addend: 0x0, symName: '-[SCLAlertView attributedFormatBlock]', symObjAddr: 0x666C, symBinAddr: 0x19874, symSize: 0x10 }
  - { offset: 0x9BF89, size: 0x8, addend: 0x0, symName: '-[SCLAlertView setAttributedFormatBlock:]', symObjAddr: 0x667C, symBinAddr: 0x19884, symSize: 0xC }
  - { offset: 0x9BFC0, size: 0x8, addend: 0x0, symName: '-[SCLAlertView setAttributedFormatBlock:]', symObjAddr: 0x667C, symBinAddr: 0x19884, symSize: 0xC }
  - { offset: 0x9BFC8, size: 0x8, addend: 0x0, symName: '-[SCLAlertView completeButtonFormatBlock]', symObjAddr: 0x6688, symBinAddr: 0x19890, symSize: 0x10 }
  - { offset: 0x9C007, size: 0x8, addend: 0x0, symName: '-[SCLAlertView completeButtonFormatBlock]', symObjAddr: 0x6688, symBinAddr: 0x19890, symSize: 0x10 }
  - { offset: 0x9C00F, size: 0x8, addend: 0x0, symName: '-[SCLAlertView setCompleteButtonFormatBlock:]', symObjAddr: 0x6698, symBinAddr: 0x198A0, symSize: 0xC }
  - { offset: 0x9C046, size: 0x8, addend: 0x0, symName: '-[SCLAlertView setCompleteButtonFormatBlock:]', symObjAddr: 0x6698, symBinAddr: 0x198A0, symSize: 0xC }
  - { offset: 0x9C04E, size: 0x8, addend: 0x0, symName: '-[SCLAlertView buttonFormatBlock]', symObjAddr: 0x66A4, symBinAddr: 0x198AC, symSize: 0x10 }
  - { offset: 0x9C08D, size: 0x8, addend: 0x0, symName: '-[SCLAlertView buttonFormatBlock]', symObjAddr: 0x66A4, symBinAddr: 0x198AC, symSize: 0x10 }
  - { offset: 0x9C095, size: 0x8, addend: 0x0, symName: '-[SCLAlertView setButtonFormatBlock:]', symObjAddr: 0x66B4, symBinAddr: 0x198BC, symSize: 0xC }
  - { offset: 0x9C0CC, size: 0x8, addend: 0x0, symName: '-[SCLAlertView setButtonFormatBlock:]', symObjAddr: 0x66B4, symBinAddr: 0x198BC, symSize: 0xC }
  - { offset: 0x9C0D4, size: 0x8, addend: 0x0, symName: '-[SCLAlertView forceHideBlock]', symObjAddr: 0x66C0, symBinAddr: 0x198C8, symSize: 0x10 }
  - { offset: 0x9C113, size: 0x8, addend: 0x0, symName: '-[SCLAlertView forceHideBlock]', symObjAddr: 0x66C0, symBinAddr: 0x198C8, symSize: 0x10 }
  - { offset: 0x9C11B, size: 0x8, addend: 0x0, symName: '-[SCLAlertView setForceHideBlock:]', symObjAddr: 0x66D0, symBinAddr: 0x198D8, symSize: 0xC }
  - { offset: 0x9C152, size: 0x8, addend: 0x0, symName: '-[SCLAlertView setForceHideBlock:]', symObjAddr: 0x66D0, symBinAddr: 0x198D8, symSize: 0xC }
  - { offset: 0x9C15A, size: 0x8, addend: 0x0, symName: '-[SCLAlertView hideAnimationType]', symObjAddr: 0x66DC, symBinAddr: 0x198E4, symSize: 0x10 }
  - { offset: 0x9C199, size: 0x8, addend: 0x0, symName: '-[SCLAlertView hideAnimationType]', symObjAddr: 0x66DC, symBinAddr: 0x198E4, symSize: 0x10 }
  - { offset: 0x9C1A1, size: 0x8, addend: 0x0, symName: '-[SCLAlertView setHideAnimationType:]', symObjAddr: 0x66EC, symBinAddr: 0x198F4, symSize: 0x10 }
  - { offset: 0x9C1D8, size: 0x8, addend: 0x0, symName: '-[SCLAlertView setHideAnimationType:]', symObjAddr: 0x66EC, symBinAddr: 0x198F4, symSize: 0x10 }
  - { offset: 0x9C1E0, size: 0x8, addend: 0x0, symName: '-[SCLAlertView showAnimationType]', symObjAddr: 0x66FC, symBinAddr: 0x19904, symSize: 0x10 }
  - { offset: 0x9C21D, size: 0x8, addend: 0x0, symName: '-[SCLAlertView showAnimationType]', symObjAddr: 0x66FC, symBinAddr: 0x19904, symSize: 0x10 }
  - { offset: 0x9C225, size: 0x8, addend: 0x0, symName: '-[SCLAlertView setShowAnimationType:]', symObjAddr: 0x670C, symBinAddr: 0x19914, symSize: 0x10 }
  - { offset: 0x9C25C, size: 0x8, addend: 0x0, symName: '-[SCLAlertView setShowAnimationType:]', symObjAddr: 0x670C, symBinAddr: 0x19914, symSize: 0x10 }
  - { offset: 0x9C264, size: 0x8, addend: 0x0, symName: '-[SCLAlertView backgroundType]', symObjAddr: 0x671C, symBinAddr: 0x19924, symSize: 0x10 }
  - { offset: 0x9C2A1, size: 0x8, addend: 0x0, symName: '-[SCLAlertView backgroundType]', symObjAddr: 0x671C, symBinAddr: 0x19924, symSize: 0x10 }
  - { offset: 0x9C2A9, size: 0x8, addend: 0x0, symName: '-[SCLAlertView setBackgroundType:]', symObjAddr: 0x672C, symBinAddr: 0x19934, symSize: 0x10 }
  - { offset: 0x9C2E0, size: 0x8, addend: 0x0, symName: '-[SCLAlertView setBackgroundType:]', symObjAddr: 0x672C, symBinAddr: 0x19934, symSize: 0x10 }
  - { offset: 0x9C2E8, size: 0x8, addend: 0x0, symName: '-[SCLAlertView customViewColor]', symObjAddr: 0x673C, symBinAddr: 0x19944, symSize: 0x10 }
  - { offset: 0x9C325, size: 0x8, addend: 0x0, symName: '-[SCLAlertView customViewColor]', symObjAddr: 0x673C, symBinAddr: 0x19944, symSize: 0x10 }
  - { offset: 0x9C32D, size: 0x8, addend: 0x0, symName: '-[SCLAlertView setCustomViewColor:]', symObjAddr: 0x674C, symBinAddr: 0x19954, symSize: 0x14 }
  - { offset: 0x9C364, size: 0x8, addend: 0x0, symName: '-[SCLAlertView setCustomViewColor:]', symObjAddr: 0x674C, symBinAddr: 0x19954, symSize: 0x14 }
  - { offset: 0x9C36C, size: 0x8, addend: 0x0, symName: '-[SCLAlertView backgroundViewColor]', symObjAddr: 0x6760, symBinAddr: 0x19968, symSize: 0x10 }
  - { offset: 0x9C3AD, size: 0x8, addend: 0x0, symName: '-[SCLAlertView backgroundViewColor]', symObjAddr: 0x6760, symBinAddr: 0x19968, symSize: 0x10 }
  - { offset: 0x9C3B5, size: 0x8, addend: 0x0, symName: '-[SCLAlertView iconTintColor]', symObjAddr: 0x6770, symBinAddr: 0x19978, symSize: 0x10 }
  - { offset: 0x9C3EC, size: 0x8, addend: 0x0, symName: '-[SCLAlertView iconTintColor]', symObjAddr: 0x6770, symBinAddr: 0x19978, symSize: 0x10 }
  - { offset: 0x9C3F4, size: 0x8, addend: 0x0, symName: '-[SCLAlertView setIconTintColor:]', symObjAddr: 0x6780, symBinAddr: 0x19988, symSize: 0x14 }
  - { offset: 0x9C42B, size: 0x8, addend: 0x0, symName: '-[SCLAlertView setIconTintColor:]', symObjAddr: 0x6780, symBinAddr: 0x19988, symSize: 0x14 }
  - { offset: 0x9C433, size: 0x8, addend: 0x0, symName: '-[SCLAlertView circleIconHeight]', symObjAddr: 0x6794, symBinAddr: 0x1999C, symSize: 0x10 }
  - { offset: 0x9C474, size: 0x8, addend: 0x0, symName: '-[SCLAlertView circleIconHeight]', symObjAddr: 0x6794, symBinAddr: 0x1999C, symSize: 0x10 }
  - { offset: 0x9C47C, size: 0x8, addend: 0x0, symName: '-[SCLAlertView setCircleIconHeight:]', symObjAddr: 0x67A4, symBinAddr: 0x199AC, symSize: 0x10 }
  - { offset: 0x9C4B1, size: 0x8, addend: 0x0, symName: '-[SCLAlertView setCircleIconHeight:]', symObjAddr: 0x67A4, symBinAddr: 0x199AC, symSize: 0x10 }
  - { offset: 0x9C4B9, size: 0x8, addend: 0x0, symName: '-[SCLAlertView extensionBounds]', symObjAddr: 0x67B4, symBinAddr: 0x199BC, symSize: 0x18 }
  - { offset: 0x9C4F7, size: 0x8, addend: 0x0, symName: '-[SCLAlertView extensionBounds]', symObjAddr: 0x67B4, symBinAddr: 0x199BC, symSize: 0x18 }
  - { offset: 0x9C4FF, size: 0x8, addend: 0x0, symName: '-[SCLAlertView setExtensionBounds:]', symObjAddr: 0x67CC, symBinAddr: 0x199D4, symSize: 0x18 }
  - { offset: 0x9C534, size: 0x8, addend: 0x0, symName: '-[SCLAlertView setExtensionBounds:]', symObjAddr: 0x67CC, symBinAddr: 0x199D4, symSize: 0x18 }
  - { offset: 0x9C53C, size: 0x8, addend: 0x0, symName: '-[SCLAlertView statusBarHidden]', symObjAddr: 0x67E4, symBinAddr: 0x199EC, symSize: 0x10 }
  - { offset: 0x9C57B, size: 0x8, addend: 0x0, symName: '-[SCLAlertView statusBarHidden]', symObjAddr: 0x67E4, symBinAddr: 0x199EC, symSize: 0x10 }
  - { offset: 0x9C583, size: 0x8, addend: 0x0, symName: '-[SCLAlertView setStatusBarHidden:]', symObjAddr: 0x67F4, symBinAddr: 0x199FC, symSize: 0x10 }
  - { offset: 0x9C5BA, size: 0x8, addend: 0x0, symName: '-[SCLAlertView setStatusBarHidden:]', symObjAddr: 0x67F4, symBinAddr: 0x199FC, symSize: 0x10 }
  - { offset: 0x9C5C2, size: 0x8, addend: 0x0, symName: '-[SCLAlertView statusBarStyle]', symObjAddr: 0x6804, symBinAddr: 0x19A0C, symSize: 0x10 }
  - { offset: 0x9C5FD, size: 0x8, addend: 0x0, symName: '-[SCLAlertView statusBarStyle]', symObjAddr: 0x6804, symBinAddr: 0x19A0C, symSize: 0x10 }
  - { offset: 0x9C605, size: 0x8, addend: 0x0, symName: '-[SCLAlertView setStatusBarStyle:]', symObjAddr: 0x6814, symBinAddr: 0x19A1C, symSize: 0x10 }
  - { offset: 0x9C63C, size: 0x8, addend: 0x0, symName: '-[SCLAlertView setStatusBarStyle:]', symObjAddr: 0x6814, symBinAddr: 0x19A1C, symSize: 0x10 }
  - { offset: 0x9C644, size: 0x8, addend: 0x0, symName: '-[SCLAlertView horizontalButtons]', symObjAddr: 0x6824, symBinAddr: 0x19A2C, symSize: 0x10 }
  - { offset: 0x9C681, size: 0x8, addend: 0x0, symName: '-[SCLAlertView horizontalButtons]', symObjAddr: 0x6824, symBinAddr: 0x19A2C, symSize: 0x10 }
  - { offset: 0x9C689, size: 0x8, addend: 0x0, symName: '-[SCLAlertView setHorizontalButtons:]', symObjAddr: 0x6834, symBinAddr: 0x19A3C, symSize: 0x10 }
  - { offset: 0x9C6C0, size: 0x8, addend: 0x0, symName: '-[SCLAlertView setHorizontalButtons:]', symObjAddr: 0x6834, symBinAddr: 0x19A3C, symSize: 0x10 }
  - { offset: 0x9C6C8, size: 0x8, addend: 0x0, symName: '-[SCLAlertView inputs]', symObjAddr: 0x6844, symBinAddr: 0x19A4C, symSize: 0x10 }
  - { offset: 0x9C703, size: 0x8, addend: 0x0, symName: '-[SCLAlertView inputs]', symObjAddr: 0x6844, symBinAddr: 0x19A4C, symSize: 0x10 }
  - { offset: 0x9C70B, size: 0x8, addend: 0x0, symName: '-[SCLAlertView setInputs:]', symObjAddr: 0x6854, symBinAddr: 0x19A5C, symSize: 0x14 }
  - { offset: 0x9C742, size: 0x8, addend: 0x0, symName: '-[SCLAlertView setInputs:]', symObjAddr: 0x6854, symBinAddr: 0x19A5C, symSize: 0x14 }
  - { offset: 0x9C74A, size: 0x8, addend: 0x0, symName: '-[SCLAlertView customViews]', symObjAddr: 0x6868, symBinAddr: 0x19A70, symSize: 0x10 }
  - { offset: 0x9C78B, size: 0x8, addend: 0x0, symName: '-[SCLAlertView customViews]', symObjAddr: 0x6868, symBinAddr: 0x19A70, symSize: 0x10 }
  - { offset: 0x9C793, size: 0x8, addend: 0x0, symName: '-[SCLAlertView setCustomViews:]', symObjAddr: 0x6878, symBinAddr: 0x19A80, symSize: 0x14 }
  - { offset: 0x9C7CA, size: 0x8, addend: 0x0, symName: '-[SCLAlertView setCustomViews:]', symObjAddr: 0x6878, symBinAddr: 0x19A80, symSize: 0x14 }
  - { offset: 0x9C7D2, size: 0x8, addend: 0x0, symName: '-[SCLAlertView buttons]', symObjAddr: 0x688C, symBinAddr: 0x19A94, symSize: 0x10 }
  - { offset: 0x9C813, size: 0x8, addend: 0x0, symName: '-[SCLAlertView buttons]', symObjAddr: 0x688C, symBinAddr: 0x19A94, symSize: 0x10 }
  - { offset: 0x9C81B, size: 0x8, addend: 0x0, symName: '-[SCLAlertView setButtons:]', symObjAddr: 0x689C, symBinAddr: 0x19AA4, symSize: 0x14 }
  - { offset: 0x9C852, size: 0x8, addend: 0x0, symName: '-[SCLAlertView setButtons:]', symObjAddr: 0x689C, symBinAddr: 0x19AA4, symSize: 0x14 }
  - { offset: 0x9C85A, size: 0x8, addend: 0x0, symName: '-[SCLAlertView circleIconImageView]', symObjAddr: 0x68B0, symBinAddr: 0x19AB8, symSize: 0x10 }
  - { offset: 0x9C89B, size: 0x8, addend: 0x0, symName: '-[SCLAlertView circleIconImageView]', symObjAddr: 0x68B0, symBinAddr: 0x19AB8, symSize: 0x10 }
  - { offset: 0x9C8A3, size: 0x8, addend: 0x0, symName: '-[SCLAlertView setCircleIconImageView:]', symObjAddr: 0x68C0, symBinAddr: 0x19AC8, symSize: 0x14 }
  - { offset: 0x9C8DA, size: 0x8, addend: 0x0, symName: '-[SCLAlertView setCircleIconImageView:]', symObjAddr: 0x68C0, symBinAddr: 0x19AC8, symSize: 0x14 }
  - { offset: 0x9C8E2, size: 0x8, addend: 0x0, symName: '-[SCLAlertView circleView]', symObjAddr: 0x68D4, symBinAddr: 0x19ADC, symSize: 0x10 }
  - { offset: 0x9C923, size: 0x8, addend: 0x0, symName: '-[SCLAlertView circleView]', symObjAddr: 0x68D4, symBinAddr: 0x19ADC, symSize: 0x10 }
  - { offset: 0x9C92B, size: 0x8, addend: 0x0, symName: '-[SCLAlertView setCircleView:]', symObjAddr: 0x68E4, symBinAddr: 0x19AEC, symSize: 0x14 }
  - { offset: 0x9C962, size: 0x8, addend: 0x0, symName: '-[SCLAlertView setCircleView:]', symObjAddr: 0x68E4, symBinAddr: 0x19AEC, symSize: 0x14 }
  - { offset: 0x9C96A, size: 0x8, addend: 0x0, symName: '-[SCLAlertView circleViewBackground]', symObjAddr: 0x68F8, symBinAddr: 0x19B00, symSize: 0x10 }
  - { offset: 0x9C9AB, size: 0x8, addend: 0x0, symName: '-[SCLAlertView circleViewBackground]', symObjAddr: 0x68F8, symBinAddr: 0x19B00, symSize: 0x10 }
  - { offset: 0x9C9B3, size: 0x8, addend: 0x0, symName: '-[SCLAlertView setCircleViewBackground:]', symObjAddr: 0x6908, symBinAddr: 0x19B10, symSize: 0x14 }
  - { offset: 0x9C9EA, size: 0x8, addend: 0x0, symName: '-[SCLAlertView setCircleViewBackground:]', symObjAddr: 0x6908, symBinAddr: 0x19B10, symSize: 0x14 }
  - { offset: 0x9C9F2, size: 0x8, addend: 0x0, symName: '-[SCLAlertView contentView]', symObjAddr: 0x691C, symBinAddr: 0x19B24, symSize: 0x10 }
  - { offset: 0x9CA33, size: 0x8, addend: 0x0, symName: '-[SCLAlertView contentView]', symObjAddr: 0x691C, symBinAddr: 0x19B24, symSize: 0x10 }
  - { offset: 0x9CA3B, size: 0x8, addend: 0x0, symName: '-[SCLAlertView setContentView:]', symObjAddr: 0x692C, symBinAddr: 0x19B34, symSize: 0x14 }
  - { offset: 0x9CA72, size: 0x8, addend: 0x0, symName: '-[SCLAlertView setContentView:]', symObjAddr: 0x692C, symBinAddr: 0x19B34, symSize: 0x14 }
  - { offset: 0x9CA7A, size: 0x8, addend: 0x0, symName: '-[SCLAlertView backgroundView]', symObjAddr: 0x6940, symBinAddr: 0x19B48, symSize: 0x10 }
  - { offset: 0x9CABB, size: 0x8, addend: 0x0, symName: '-[SCLAlertView backgroundView]', symObjAddr: 0x6940, symBinAddr: 0x19B48, symSize: 0x10 }
  - { offset: 0x9CAC3, size: 0x8, addend: 0x0, symName: '-[SCLAlertView setBackgroundView:]', symObjAddr: 0x6950, symBinAddr: 0x19B58, symSize: 0x14 }
  - { offset: 0x9CAFA, size: 0x8, addend: 0x0, symName: '-[SCLAlertView setBackgroundView:]', symObjAddr: 0x6950, symBinAddr: 0x19B58, symSize: 0x14 }
  - { offset: 0x9CB02, size: 0x8, addend: 0x0, symName: '-[SCLAlertView gestureRecognizer]', symObjAddr: 0x6964, symBinAddr: 0x19B6C, symSize: 0x10 }
  - { offset: 0x9CB43, size: 0x8, addend: 0x0, symName: '-[SCLAlertView gestureRecognizer]', symObjAddr: 0x6964, symBinAddr: 0x19B6C, symSize: 0x10 }
  - { offset: 0x9CB4B, size: 0x8, addend: 0x0, symName: '-[SCLAlertView setGestureRecognizer:]', symObjAddr: 0x6974, symBinAddr: 0x19B7C, symSize: 0x14 }
  - { offset: 0x9CB82, size: 0x8, addend: 0x0, symName: '-[SCLAlertView setGestureRecognizer:]', symObjAddr: 0x6974, symBinAddr: 0x19B7C, symSize: 0x14 }
  - { offset: 0x9CB8A, size: 0x8, addend: 0x0, symName: '-[SCLAlertView titleFontFamily]', symObjAddr: 0x6988, symBinAddr: 0x19B90, symSize: 0x10 }
  - { offset: 0x9CBCB, size: 0x8, addend: 0x0, symName: '-[SCLAlertView titleFontFamily]', symObjAddr: 0x6988, symBinAddr: 0x19B90, symSize: 0x10 }
  - { offset: 0x9CBD3, size: 0x8, addend: 0x0, symName: '-[SCLAlertView setTitleFontFamily:]', symObjAddr: 0x6998, symBinAddr: 0x19BA0, symSize: 0x14 }
  - { offset: 0x9CC0A, size: 0x8, addend: 0x0, symName: '-[SCLAlertView setTitleFontFamily:]', symObjAddr: 0x6998, symBinAddr: 0x19BA0, symSize: 0x14 }
  - { offset: 0x9CC12, size: 0x8, addend: 0x0, symName: '-[SCLAlertView bodyTextFontFamily]', symObjAddr: 0x69AC, symBinAddr: 0x19BB4, symSize: 0x10 }
  - { offset: 0x9CC53, size: 0x8, addend: 0x0, symName: '-[SCLAlertView bodyTextFontFamily]', symObjAddr: 0x69AC, symBinAddr: 0x19BB4, symSize: 0x10 }
  - { offset: 0x9CC5B, size: 0x8, addend: 0x0, symName: '-[SCLAlertView setBodyTextFontFamily:]', symObjAddr: 0x69BC, symBinAddr: 0x19BC4, symSize: 0x14 }
  - { offset: 0x9CC92, size: 0x8, addend: 0x0, symName: '-[SCLAlertView setBodyTextFontFamily:]', symObjAddr: 0x69BC, symBinAddr: 0x19BC4, symSize: 0x14 }
  - { offset: 0x9CC9A, size: 0x8, addend: 0x0, symName: '-[SCLAlertView buttonsFontFamily]', symObjAddr: 0x69D0, symBinAddr: 0x19BD8, symSize: 0x10 }
  - { offset: 0x9CCDB, size: 0x8, addend: 0x0, symName: '-[SCLAlertView buttonsFontFamily]', symObjAddr: 0x69D0, symBinAddr: 0x19BD8, symSize: 0x10 }
  - { offset: 0x9CCE3, size: 0x8, addend: 0x0, symName: '-[SCLAlertView setButtonsFontFamily:]', symObjAddr: 0x69E0, symBinAddr: 0x19BE8, symSize: 0x14 }
  - { offset: 0x9CD1A, size: 0x8, addend: 0x0, symName: '-[SCLAlertView setButtonsFontFamily:]', symObjAddr: 0x69E0, symBinAddr: 0x19BE8, symSize: 0x14 }
  - { offset: 0x9CD22, size: 0x8, addend: 0x0, symName: '-[SCLAlertView previousWindow]', symObjAddr: 0x69F4, symBinAddr: 0x19BFC, symSize: 0x10 }
  - { offset: 0x9CD63, size: 0x8, addend: 0x0, symName: '-[SCLAlertView previousWindow]', symObjAddr: 0x69F4, symBinAddr: 0x19BFC, symSize: 0x10 }
  - { offset: 0x9CD6B, size: 0x8, addend: 0x0, symName: '-[SCLAlertView setPreviousWindow:]', symObjAddr: 0x6A04, symBinAddr: 0x19C0C, symSize: 0x14 }
  - { offset: 0x9CDA2, size: 0x8, addend: 0x0, symName: '-[SCLAlertView setPreviousWindow:]', symObjAddr: 0x6A04, symBinAddr: 0x19C0C, symSize: 0x14 }
  - { offset: 0x9CDAA, size: 0x8, addend: 0x0, symName: '-[SCLAlertView SCLAlertWindow]', symObjAddr: 0x6A18, symBinAddr: 0x19C20, symSize: 0x10 }
  - { offset: 0x9CDEB, size: 0x8, addend: 0x0, symName: '-[SCLAlertView SCLAlertWindow]', symObjAddr: 0x6A18, symBinAddr: 0x19C20, symSize: 0x10 }
  - { offset: 0x9CDF3, size: 0x8, addend: 0x0, symName: '-[SCLAlertView setSCLAlertWindow:]', symObjAddr: 0x6A28, symBinAddr: 0x19C30, symSize: 0x14 }
  - { offset: 0x9CE2A, size: 0x8, addend: 0x0, symName: '-[SCLAlertView setSCLAlertWindow:]', symObjAddr: 0x6A28, symBinAddr: 0x19C30, symSize: 0x14 }
  - { offset: 0x9CE32, size: 0x8, addend: 0x0, symName: '-[SCLAlertView dismissBlock]', symObjAddr: 0x6A3C, symBinAddr: 0x19C44, symSize: 0x10 }
  - { offset: 0x9CE73, size: 0x8, addend: 0x0, symName: '-[SCLAlertView dismissBlock]', symObjAddr: 0x6A3C, symBinAddr: 0x19C44, symSize: 0x10 }
  - { offset: 0x9CE7B, size: 0x8, addend: 0x0, symName: '-[SCLAlertView setDismissBlock:]', symObjAddr: 0x6A4C, symBinAddr: 0x19C54, symSize: 0xC }
  - { offset: 0x9CEB2, size: 0x8, addend: 0x0, symName: '-[SCLAlertView setDismissBlock:]', symObjAddr: 0x6A4C, symBinAddr: 0x19C54, symSize: 0xC }
  - { offset: 0x9CEBA, size: 0x8, addend: 0x0, symName: '-[SCLAlertView dismissAnimationCompletionBlock]', symObjAddr: 0x6A58, symBinAddr: 0x19C60, symSize: 0x10 }
  - { offset: 0x9CEF9, size: 0x8, addend: 0x0, symName: '-[SCLAlertView dismissAnimationCompletionBlock]', symObjAddr: 0x6A58, symBinAddr: 0x19C60, symSize: 0x10 }
  - { offset: 0x9CF01, size: 0x8, addend: 0x0, symName: '-[SCLAlertView setDismissAnimationCompletionBlock:]', symObjAddr: 0x6A68, symBinAddr: 0x19C70, symSize: 0xC }
  - { offset: 0x9CF38, size: 0x8, addend: 0x0, symName: '-[SCLAlertView setDismissAnimationCompletionBlock:]', symObjAddr: 0x6A68, symBinAddr: 0x19C70, symSize: 0xC }
  - { offset: 0x9CF40, size: 0x8, addend: 0x0, symName: '-[SCLAlertView showAnimationCompletionBlock]', symObjAddr: 0x6A74, symBinAddr: 0x19C7C, symSize: 0x10 }
  - { offset: 0x9CF7F, size: 0x8, addend: 0x0, symName: '-[SCLAlertView showAnimationCompletionBlock]', symObjAddr: 0x6A74, symBinAddr: 0x19C7C, symSize: 0x10 }
  - { offset: 0x9CF87, size: 0x8, addend: 0x0, symName: '-[SCLAlertView setShowAnimationCompletionBlock:]', symObjAddr: 0x6A84, symBinAddr: 0x19C8C, symSize: 0xC }
  - { offset: 0x9CFBE, size: 0x8, addend: 0x0, symName: '-[SCLAlertView setShowAnimationCompletionBlock:]', symObjAddr: 0x6A84, symBinAddr: 0x19C8C, symSize: 0xC }
  - { offset: 0x9CFC6, size: 0x8, addend: 0x0, symName: '-[SCLAlertView rootViewController]', symObjAddr: 0x6A90, symBinAddr: 0x19C98, symSize: 0x20 }
  - { offset: 0x9D005, size: 0x8, addend: 0x0, symName: '-[SCLAlertView rootViewController]', symObjAddr: 0x6A90, symBinAddr: 0x19C98, symSize: 0x20 }
  - { offset: 0x9D00D, size: 0x8, addend: 0x0, symName: '-[SCLAlertView setRootViewController:]', symObjAddr: 0x6AB0, symBinAddr: 0x19CB8, symSize: 0x14 }
  - { offset: 0x9D044, size: 0x8, addend: 0x0, symName: '-[SCLAlertView setRootViewController:]', symObjAddr: 0x6AB0, symBinAddr: 0x19CB8, symSize: 0x14 }
  - { offset: 0x9D04C, size: 0x8, addend: 0x0, symName: '-[SCLAlertView restoreInteractivePopGestureDelegate]', symObjAddr: 0x6AC4, symBinAddr: 0x19CCC, symSize: 0x20 }
  - { offset: 0x9D08D, size: 0x8, addend: 0x0, symName: '-[SCLAlertView restoreInteractivePopGestureDelegate]', symObjAddr: 0x6AC4, symBinAddr: 0x19CCC, symSize: 0x20 }
  - { offset: 0x9D095, size: 0x8, addend: 0x0, symName: '-[SCLAlertView setRestoreInteractivePopGestureDelegate:]', symObjAddr: 0x6AE4, symBinAddr: 0x19CEC, symSize: 0x14 }
  - { offset: 0x9D0CC, size: 0x8, addend: 0x0, symName: '-[SCLAlertView setRestoreInteractivePopGestureDelegate:]', symObjAddr: 0x6AE4, symBinAddr: 0x19CEC, symSize: 0x14 }
  - { offset: 0x9D0D4, size: 0x8, addend: 0x0, symName: '-[SCLAlertView soundID]', symObjAddr: 0x6AF8, symBinAddr: 0x19D00, symSize: 0x10 }
  - { offset: 0x9D115, size: 0x8, addend: 0x0, symName: '-[SCLAlertView soundID]', symObjAddr: 0x6AF8, symBinAddr: 0x19D00, symSize: 0x10 }
  - { offset: 0x9D11D, size: 0x8, addend: 0x0, symName: '-[SCLAlertView setSoundID:]', symObjAddr: 0x6B08, symBinAddr: 0x19D10, symSize: 0x10 }
  - { offset: 0x9D154, size: 0x8, addend: 0x0, symName: '-[SCLAlertView setSoundID:]', symObjAddr: 0x6B08, symBinAddr: 0x19D10, symSize: 0x10 }
  - { offset: 0x9D15C, size: 0x8, addend: 0x0, symName: '-[SCLAlertView canAddObservers]', symObjAddr: 0x6B18, symBinAddr: 0x19D20, symSize: 0x10 }
  - { offset: 0x9D199, size: 0x8, addend: 0x0, symName: '-[SCLAlertView canAddObservers]', symObjAddr: 0x6B18, symBinAddr: 0x19D20, symSize: 0x10 }
  - { offset: 0x9D1A1, size: 0x8, addend: 0x0, symName: '-[SCLAlertView setCanAddObservers:]', symObjAddr: 0x6B28, symBinAddr: 0x19D30, symSize: 0x10 }
  - { offset: 0x9D1D8, size: 0x8, addend: 0x0, symName: '-[SCLAlertView setCanAddObservers:]', symObjAddr: 0x6B28, symBinAddr: 0x19D30, symSize: 0x10 }
  - { offset: 0x9D1E0, size: 0x8, addend: 0x0, symName: '-[SCLAlertView keyboardIsVisible]', symObjAddr: 0x6B38, symBinAddr: 0x19D40, symSize: 0x10 }
  - { offset: 0x9D21B, size: 0x8, addend: 0x0, symName: '-[SCLAlertView keyboardIsVisible]', symObjAddr: 0x6B38, symBinAddr: 0x19D40, symSize: 0x10 }
  - { offset: 0x9D223, size: 0x8, addend: 0x0, symName: '-[SCLAlertView setKeyboardIsVisible:]', symObjAddr: 0x6B48, symBinAddr: 0x19D50, symSize: 0x10 }
  - { offset: 0x9D25A, size: 0x8, addend: 0x0, symName: '-[SCLAlertView setKeyboardIsVisible:]', symObjAddr: 0x6B48, symBinAddr: 0x19D50, symSize: 0x10 }
  - { offset: 0x9D262, size: 0x8, addend: 0x0, symName: '-[SCLAlertView usingNewWindow]', symObjAddr: 0x6B58, symBinAddr: 0x19D60, symSize: 0x10 }
  - { offset: 0x9D29D, size: 0x8, addend: 0x0, symName: '-[SCLAlertView usingNewWindow]', symObjAddr: 0x6B58, symBinAddr: 0x19D60, symSize: 0x10 }
  - { offset: 0x9D2A5, size: 0x8, addend: 0x0, symName: '-[SCLAlertView setUsingNewWindow:]', symObjAddr: 0x6B68, symBinAddr: 0x19D70, symSize: 0x10 }
  - { offset: 0x9D2DC, size: 0x8, addend: 0x0, symName: '-[SCLAlertView setUsingNewWindow:]', symObjAddr: 0x6B68, symBinAddr: 0x19D70, symSize: 0x10 }
  - { offset: 0x9D2E4, size: 0x8, addend: 0x0, symName: '-[SCLAlertView restoreInteractivePopGestureEnabled]', symObjAddr: 0x6B78, symBinAddr: 0x19D80, symSize: 0x10 }
  - { offset: 0x9D31F, size: 0x8, addend: 0x0, symName: '-[SCLAlertView restoreInteractivePopGestureEnabled]', symObjAddr: 0x6B78, symBinAddr: 0x19D80, symSize: 0x10 }
  - { offset: 0x9D327, size: 0x8, addend: 0x0, symName: '-[SCLAlertView setRestoreInteractivePopGestureEnabled:]', symObjAddr: 0x6B88, symBinAddr: 0x19D90, symSize: 0x10 }
  - { offset: 0x9D35E, size: 0x8, addend: 0x0, symName: '-[SCLAlertView setRestoreInteractivePopGestureEnabled:]', symObjAddr: 0x6B88, symBinAddr: 0x19D90, symSize: 0x10 }
  - { offset: 0x9D366, size: 0x8, addend: 0x0, symName: '-[SCLAlertView backgroundOpacity]', symObjAddr: 0x6B98, symBinAddr: 0x19DA0, symSize: 0x10 }
  - { offset: 0x9D3A1, size: 0x8, addend: 0x0, symName: '-[SCLAlertView backgroundOpacity]', symObjAddr: 0x6B98, symBinAddr: 0x19DA0, symSize: 0x10 }
  - { offset: 0x9D3A9, size: 0x8, addend: 0x0, symName: '-[SCLAlertView setBackgroundOpacity:]', symObjAddr: 0x6BA8, symBinAddr: 0x19DB0, symSize: 0x10 }
  - { offset: 0x9D3DE, size: 0x8, addend: 0x0, symName: '-[SCLAlertView setBackgroundOpacity:]', symObjAddr: 0x6BA8, symBinAddr: 0x19DB0, symSize: 0x10 }
  - { offset: 0x9D3E6, size: 0x8, addend: 0x0, symName: '-[SCLAlertView titleFontSize]', symObjAddr: 0x6BB8, symBinAddr: 0x19DC0, symSize: 0x10 }
  - { offset: 0x9D424, size: 0x8, addend: 0x0, symName: '-[SCLAlertView titleFontSize]', symObjAddr: 0x6BB8, symBinAddr: 0x19DC0, symSize: 0x10 }
  - { offset: 0x9D42C, size: 0x8, addend: 0x0, symName: '-[SCLAlertView setTitleFontSize:]', symObjAddr: 0x6BC8, symBinAddr: 0x19DD0, symSize: 0x10 }
  - { offset: 0x9D461, size: 0x8, addend: 0x0, symName: '-[SCLAlertView setTitleFontSize:]', symObjAddr: 0x6BC8, symBinAddr: 0x19DD0, symSize: 0x10 }
  - { offset: 0x9D469, size: 0x8, addend: 0x0, symName: '-[SCLAlertView bodyFontSize]', symObjAddr: 0x6BD8, symBinAddr: 0x19DE0, symSize: 0x10 }
  - { offset: 0x9D4A7, size: 0x8, addend: 0x0, symName: '-[SCLAlertView bodyFontSize]', symObjAddr: 0x6BD8, symBinAddr: 0x19DE0, symSize: 0x10 }
  - { offset: 0x9D4AF, size: 0x8, addend: 0x0, symName: '-[SCLAlertView setBodyFontSize:]', symObjAddr: 0x6BE8, symBinAddr: 0x19DF0, symSize: 0x10 }
  - { offset: 0x9D4E4, size: 0x8, addend: 0x0, symName: '-[SCLAlertView setBodyFontSize:]', symObjAddr: 0x6BE8, symBinAddr: 0x19DF0, symSize: 0x10 }
  - { offset: 0x9D4EC, size: 0x8, addend: 0x0, symName: '-[SCLAlertView buttonsFontSize]', symObjAddr: 0x6BF8, symBinAddr: 0x19E00, symSize: 0x10 }
  - { offset: 0x9D52A, size: 0x8, addend: 0x0, symName: '-[SCLAlertView buttonsFontSize]', symObjAddr: 0x6BF8, symBinAddr: 0x19E00, symSize: 0x10 }
  - { offset: 0x9D532, size: 0x8, addend: 0x0, symName: '-[SCLAlertView setButtonsFontSize:]', symObjAddr: 0x6C08, symBinAddr: 0x19E10, symSize: 0x10 }
  - { offset: 0x9D567, size: 0x8, addend: 0x0, symName: '-[SCLAlertView setButtonsFontSize:]', symObjAddr: 0x6C08, symBinAddr: 0x19E10, symSize: 0x10 }
  - { offset: 0x9D56F, size: 0x8, addend: 0x0, symName: '-[SCLAlertView windowHeight]', symObjAddr: 0x6C18, symBinAddr: 0x19E20, symSize: 0x10 }
  - { offset: 0x9D5AD, size: 0x8, addend: 0x0, symName: '-[SCLAlertView windowHeight]', symObjAddr: 0x6C18, symBinAddr: 0x19E20, symSize: 0x10 }
  - { offset: 0x9D5B5, size: 0x8, addend: 0x0, symName: '-[SCLAlertView setWindowHeight:]', symObjAddr: 0x6C28, symBinAddr: 0x19E30, symSize: 0x10 }
  - { offset: 0x9D5EA, size: 0x8, addend: 0x0, symName: '-[SCLAlertView setWindowHeight:]', symObjAddr: 0x6C28, symBinAddr: 0x19E30, symSize: 0x10 }
  - { offset: 0x9D5F2, size: 0x8, addend: 0x0, symName: '-[SCLAlertView windowWidth]', symObjAddr: 0x6C38, symBinAddr: 0x19E40, symSize: 0x10 }
  - { offset: 0x9D630, size: 0x8, addend: 0x0, symName: '-[SCLAlertView windowWidth]', symObjAddr: 0x6C38, symBinAddr: 0x19E40, symSize: 0x10 }
  - { offset: 0x9D638, size: 0x8, addend: 0x0, symName: '-[SCLAlertView setWindowWidth:]', symObjAddr: 0x6C48, symBinAddr: 0x19E50, symSize: 0x10 }
  - { offset: 0x9D66D, size: 0x8, addend: 0x0, symName: '-[SCLAlertView setWindowWidth:]', symObjAddr: 0x6C48, symBinAddr: 0x19E50, symSize: 0x10 }
  - { offset: 0x9D675, size: 0x8, addend: 0x0, symName: '-[SCLAlertView titleHeight]', symObjAddr: 0x6C58, symBinAddr: 0x19E60, symSize: 0x10 }
  - { offset: 0x9D6B3, size: 0x8, addend: 0x0, symName: '-[SCLAlertView titleHeight]', symObjAddr: 0x6C58, symBinAddr: 0x19E60, symSize: 0x10 }
  - { offset: 0x9D6BB, size: 0x8, addend: 0x0, symName: '-[SCLAlertView setTitleHeight:]', symObjAddr: 0x6C68, symBinAddr: 0x19E70, symSize: 0x10 }
  - { offset: 0x9D6F0, size: 0x8, addend: 0x0, symName: '-[SCLAlertView setTitleHeight:]', symObjAddr: 0x6C68, symBinAddr: 0x19E70, symSize: 0x10 }
  - { offset: 0x9D6F8, size: 0x8, addend: 0x0, symName: '-[SCLAlertView subTitleHeight]', symObjAddr: 0x6C78, symBinAddr: 0x19E80, symSize: 0x10 }
  - { offset: 0x9D736, size: 0x8, addend: 0x0, symName: '-[SCLAlertView subTitleHeight]', symObjAddr: 0x6C78, symBinAddr: 0x19E80, symSize: 0x10 }
  - { offset: 0x9D73E, size: 0x8, addend: 0x0, symName: '-[SCLAlertView subTitleY]', symObjAddr: 0x6C88, symBinAddr: 0x19E90, symSize: 0x10 }
  - { offset: 0x9D773, size: 0x8, addend: 0x0, symName: '-[SCLAlertView subTitleY]', symObjAddr: 0x6C88, symBinAddr: 0x19E90, symSize: 0x10 }
  - { offset: 0x9D77B, size: 0x8, addend: 0x0, symName: '-[SCLAlertView setSubTitleY:]', symObjAddr: 0x6C98, symBinAddr: 0x19EA0, symSize: 0x10 }
  - { offset: 0x9D7B0, size: 0x8, addend: 0x0, symName: '-[SCLAlertView setSubTitleY:]', symObjAddr: 0x6C98, symBinAddr: 0x19EA0, symSize: 0x10 }
  - { offset: 0x9D7B8, size: 0x8, addend: 0x0, symName: '-[SCLAlertView .cxx_destruct]', symObjAddr: 0x6CA8, symBinAddr: 0x19EB0, symSize: 0x268 }
  - { offset: 0x9D7F6, size: 0x8, addend: 0x0, symName: '-[SCLAlertView .cxx_destruct]', symObjAddr: 0x6CA8, symBinAddr: 0x19EB0, symSize: 0x268 }
  - { offset: 0x9D7FE, size: 0x8, addend: 0x0, symName: '-[SCLAlertViewBuilder__WithFluent init]', symObjAddr: 0x6F10, symBinAddr: 0x1A118, symSize: 0x50 }
  - { offset: 0x9D831, size: 0x8, addend: 0x0, symName: '-[SCLAlertViewBuilder__WithFluent init]', symObjAddr: 0x6F10, symBinAddr: 0x1A118, symSize: 0x50 }
  - { offset: 0x9D839, size: 0x8, addend: 0x0, symName: '-[SCLAlertViewBuilder__WithFluent setupFluent]', symObjAddr: 0x6F60, symBinAddr: 0x1A168, symSize: 0x4 }
  - { offset: 0x9D870, size: 0x8, addend: 0x0, symName: '-[SCLAlertViewBuilder__WithFluent setupFluent]', symObjAddr: 0x6F60, symBinAddr: 0x1A168, symSize: 0x4 }
  - { offset: 0x9D878, size: 0x8, addend: 0x0, symName: '-[SCLALertViewTextFieldBuilder setupFluent]', symObjAddr: 0x6F64, symBinAddr: 0x1A16C, symSize: 0xA8 }
  - { offset: 0x9D8A7, size: 0x8, addend: 0x0, symName: '-[SCLALertViewTextFieldBuilder setupFluent]', symObjAddr: 0x6F64, symBinAddr: 0x1A16C, symSize: 0xA8 }
  - { offset: 0x9D8AF, size: 0x8, addend: 0x0, symName: '___43-[SCLALertViewTextFieldBuilder setupFluent]_block_invoke', symObjAddr: 0x700C, symBinAddr: 0x1A214, symSize: 0x5C }
  - { offset: 0x9D8F2, size: 0x8, addend: 0x0, symName: '___43-[SCLALertViewTextFieldBuilder setupFluent]_block_invoke', symObjAddr: 0x700C, symBinAddr: 0x1A214, symSize: 0x5C }
  - { offset: 0x9D8FA, size: 0x8, addend: 0x0, symName: ___copy_helper_block_e8_32w, symObjAddr: 0x7068, symBinAddr: 0x1A270, symSize: 0xC }
  - { offset: 0x9D93A, size: 0x8, addend: 0x0, symName: ___copy_helper_block_e8_32w, symObjAddr: 0x7068, symBinAddr: 0x1A270, symSize: 0xC }
  - { offset: 0x9D942, size: 0x8, addend: 0x0, symName: ___destroy_helper_block_e8_32w, symObjAddr: 0x7074, symBinAddr: 0x1A27C, symSize: 0x8 }
  - { offset: 0x9D96B, size: 0x8, addend: 0x0, symName: ___destroy_helper_block_e8_32w, symObjAddr: 0x7074, symBinAddr: 0x1A27C, symSize: 0x8 }
  - { offset: 0x9D973, size: 0x8, addend: 0x0, symName: '-[SCLALertViewTextFieldBuilder textField]', symObjAddr: 0x707C, symBinAddr: 0x1A284, symSize: 0x20 }
  - { offset: 0x9D991, size: 0x8, addend: 0x0, symName: '-[SCLALertViewTextFieldBuilder textField]', symObjAddr: 0x707C, symBinAddr: 0x1A284, symSize: 0x20 }
  - { offset: 0x9D999, size: 0x8, addend: 0x0, symName: '-[SCLALertViewTextFieldBuilder setTextField:]', symObjAddr: 0x709C, symBinAddr: 0x1A2A4, symSize: 0x14 }
  - { offset: 0x9D9D1, size: 0x8, addend: 0x0, symName: '-[SCLALertViewTextFieldBuilder setTextField:]', symObjAddr: 0x709C, symBinAddr: 0x1A2A4, symSize: 0x14 }
  - { offset: 0x9D9D9, size: 0x8, addend: 0x0, symName: '-[SCLALertViewTextFieldBuilder title]', symObjAddr: 0x70B0, symBinAddr: 0x1A2B8, symSize: 0x10 }
  - { offset: 0x9DA1B, size: 0x8, addend: 0x0, symName: '-[SCLALertViewTextFieldBuilder title]', symObjAddr: 0x70B0, symBinAddr: 0x1A2B8, symSize: 0x10 }
  - { offset: 0x9DA23, size: 0x8, addend: 0x0, symName: '-[SCLALertViewTextFieldBuilder setTitle:]', symObjAddr: 0x70C0, symBinAddr: 0x1A2C8, symSize: 0xC }
  - { offset: 0x9DA5B, size: 0x8, addend: 0x0, symName: '-[SCLALertViewTextFieldBuilder setTitle:]', symObjAddr: 0x70C0, symBinAddr: 0x1A2C8, symSize: 0xC }
  - { offset: 0x9DA63, size: 0x8, addend: 0x0, symName: '-[SCLALertViewTextFieldBuilder parameterTitle]', symObjAddr: 0x70CC, symBinAddr: 0x1A2D4, symSize: 0x10 }
  - { offset: 0x9DAA3, size: 0x8, addend: 0x0, symName: '-[SCLALertViewTextFieldBuilder parameterTitle]', symObjAddr: 0x70CC, symBinAddr: 0x1A2D4, symSize: 0x10 }
  - { offset: 0x9DAAB, size: 0x8, addend: 0x0, symName: '-[SCLALertViewTextFieldBuilder setParameterTitle:]', symObjAddr: 0x70DC, symBinAddr: 0x1A2E4, symSize: 0xC }
  - { offset: 0x9DAE3, size: 0x8, addend: 0x0, symName: '-[SCLALertViewTextFieldBuilder setParameterTitle:]', symObjAddr: 0x70DC, symBinAddr: 0x1A2E4, symSize: 0xC }
  - { offset: 0x9DAEB, size: 0x8, addend: 0x0, symName: '-[SCLALertViewTextFieldBuilder .cxx_destruct]', symObjAddr: 0x70E8, symBinAddr: 0x1A2F0, symSize: 0x50 }
  - { offset: 0x9DB2B, size: 0x8, addend: 0x0, symName: '-[SCLALertViewTextFieldBuilder .cxx_destruct]', symObjAddr: 0x70E8, symBinAddr: 0x1A2F0, symSize: 0x50 }
  - { offset: 0x9DB33, size: 0x8, addend: 0x0, symName: '-[SCLALertViewButtonBuilder setupFluent]', symObjAddr: 0x7138, symBinAddr: 0x1A340, symSize: 0x218 }
  - { offset: 0x9DB67, size: 0x8, addend: 0x0, symName: '-[SCLALertViewButtonBuilder setupFluent]', symObjAddr: 0x7138, symBinAddr: 0x1A340, symSize: 0x218 }
  - { offset: 0x9DB6F, size: 0x8, addend: 0x0, symName: '___40-[SCLALertViewButtonBuilder setupFluent]_block_invoke', symObjAddr: 0x7350, symBinAddr: 0x1A558, symSize: 0x5C }
  - { offset: 0x9DBB3, size: 0x8, addend: 0x0, symName: '___40-[SCLALertViewButtonBuilder setupFluent]_block_invoke', symObjAddr: 0x7350, symBinAddr: 0x1A558, symSize: 0x5C }
  - { offset: 0x9DBBB, size: 0x8, addend: 0x0, symName: '___40-[SCLALertViewButtonBuilder setupFluent]_block_invoke.563', symObjAddr: 0x73AC, symBinAddr: 0x1A5B4, symSize: 0x5C }
  - { offset: 0x9DBFB, size: 0x8, addend: 0x0, symName: '___40-[SCLALertViewButtonBuilder setupFluent]_block_invoke.563', symObjAddr: 0x73AC, symBinAddr: 0x1A5B4, symSize: 0x5C }
  - { offset: 0x9DC03, size: 0x8, addend: 0x0, symName: '___40-[SCLALertViewButtonBuilder setupFluent]_block_invoke.565', symObjAddr: 0x7408, symBinAddr: 0x1A610, symSize: 0x4C }
  - { offset: 0x9DC43, size: 0x8, addend: 0x0, symName: '___40-[SCLALertViewButtonBuilder setupFluent]_block_invoke.565', symObjAddr: 0x7408, symBinAddr: 0x1A610, symSize: 0x4C }
  - { offset: 0x9DC4B, size: 0x8, addend: 0x0, symName: '___40-[SCLALertViewButtonBuilder setupFluent]_block_invoke.567', symObjAddr: 0x7454, symBinAddr: 0x1A65C, symSize: 0x5C }
  - { offset: 0x9DC8B, size: 0x8, addend: 0x0, symName: '___40-[SCLALertViewButtonBuilder setupFluent]_block_invoke.567', symObjAddr: 0x7454, symBinAddr: 0x1A65C, symSize: 0x5C }
  - { offset: 0x9DC93, size: 0x8, addend: 0x0, symName: '___40-[SCLALertViewButtonBuilder setupFluent]_block_invoke.569', symObjAddr: 0x74B0, symBinAddr: 0x1A6B8, symSize: 0x5C }
  - { offset: 0x9DCD3, size: 0x8, addend: 0x0, symName: '___40-[SCLALertViewButtonBuilder setupFluent]_block_invoke.569', symObjAddr: 0x74B0, symBinAddr: 0x1A6B8, symSize: 0x5C }
  - { offset: 0x9DCDB, size: 0x8, addend: 0x0, symName: '-[SCLALertViewButtonBuilder button]', symObjAddr: 0x750C, symBinAddr: 0x1A714, symSize: 0x20 }
  - { offset: 0x9DD1B, size: 0x8, addend: 0x0, symName: '-[SCLALertViewButtonBuilder button]', symObjAddr: 0x750C, symBinAddr: 0x1A714, symSize: 0x20 }
  - { offset: 0x9DD23, size: 0x8, addend: 0x0, symName: '-[SCLALertViewButtonBuilder setButton:]', symObjAddr: 0x752C, symBinAddr: 0x1A734, symSize: 0x14 }
  - { offset: 0x9DD5B, size: 0x8, addend: 0x0, symName: '-[SCLALertViewButtonBuilder setButton:]', symObjAddr: 0x752C, symBinAddr: 0x1A734, symSize: 0x14 }
  - { offset: 0x9DD63, size: 0x8, addend: 0x0, symName: '-[SCLALertViewButtonBuilder title]', symObjAddr: 0x7540, symBinAddr: 0x1A748, symSize: 0x10 }
  - { offset: 0x9DDA5, size: 0x8, addend: 0x0, symName: '-[SCLALertViewButtonBuilder title]', symObjAddr: 0x7540, symBinAddr: 0x1A748, symSize: 0x10 }
  - { offset: 0x9DDAD, size: 0x8, addend: 0x0, symName: '-[SCLALertViewButtonBuilder setTitle:]', symObjAddr: 0x7550, symBinAddr: 0x1A758, symSize: 0xC }
  - { offset: 0x9DDE5, size: 0x8, addend: 0x0, symName: '-[SCLALertViewButtonBuilder setTitle:]', symObjAddr: 0x7550, symBinAddr: 0x1A758, symSize: 0xC }
  - { offset: 0x9DDED, size: 0x8, addend: 0x0, symName: '-[SCLALertViewButtonBuilder target]', symObjAddr: 0x755C, symBinAddr: 0x1A764, symSize: 0x10 }
  - { offset: 0x9DE2D, size: 0x8, addend: 0x0, symName: '-[SCLALertViewButtonBuilder target]', symObjAddr: 0x755C, symBinAddr: 0x1A764, symSize: 0x10 }
  - { offset: 0x9DE35, size: 0x8, addend: 0x0, symName: '-[SCLALertViewButtonBuilder setTarget:]', symObjAddr: 0x756C, symBinAddr: 0x1A774, symSize: 0xC }
  - { offset: 0x9DE6D, size: 0x8, addend: 0x0, symName: '-[SCLALertViewButtonBuilder setTarget:]', symObjAddr: 0x756C, symBinAddr: 0x1A774, symSize: 0xC }
  - { offset: 0x9DE75, size: 0x8, addend: 0x0, symName: '-[SCLALertViewButtonBuilder selector]', symObjAddr: 0x7578, symBinAddr: 0x1A780, symSize: 0x10 }
  - { offset: 0x9DEB5, size: 0x8, addend: 0x0, symName: '-[SCLALertViewButtonBuilder selector]', symObjAddr: 0x7578, symBinAddr: 0x1A780, symSize: 0x10 }
  - { offset: 0x9DEBD, size: 0x8, addend: 0x0, symName: '-[SCLALertViewButtonBuilder setSelector:]', symObjAddr: 0x7588, symBinAddr: 0x1A790, symSize: 0xC }
  - { offset: 0x9DEF5, size: 0x8, addend: 0x0, symName: '-[SCLALertViewButtonBuilder setSelector:]', symObjAddr: 0x7588, symBinAddr: 0x1A790, symSize: 0xC }
  - { offset: 0x9DEFD, size: 0x8, addend: 0x0, symName: '-[SCLALertViewButtonBuilder actionBlock]', symObjAddr: 0x7594, symBinAddr: 0x1A79C, symSize: 0x10 }
  - { offset: 0x9DF3D, size: 0x8, addend: 0x0, symName: '-[SCLALertViewButtonBuilder actionBlock]', symObjAddr: 0x7594, symBinAddr: 0x1A79C, symSize: 0x10 }
  - { offset: 0x9DF45, size: 0x8, addend: 0x0, symName: '-[SCLALertViewButtonBuilder setActionBlock:]', symObjAddr: 0x75A4, symBinAddr: 0x1A7AC, symSize: 0xC }
  - { offset: 0x9DF7D, size: 0x8, addend: 0x0, symName: '-[SCLALertViewButtonBuilder setActionBlock:]', symObjAddr: 0x75A4, symBinAddr: 0x1A7AC, symSize: 0xC }
  - { offset: 0x9DF85, size: 0x8, addend: 0x0, symName: '-[SCLALertViewButtonBuilder validationBlock]', symObjAddr: 0x75B0, symBinAddr: 0x1A7B8, symSize: 0x10 }
  - { offset: 0x9DFC5, size: 0x8, addend: 0x0, symName: '-[SCLALertViewButtonBuilder validationBlock]', symObjAddr: 0x75B0, symBinAddr: 0x1A7B8, symSize: 0x10 }
  - { offset: 0x9DFCD, size: 0x8, addend: 0x0, symName: '-[SCLALertViewButtonBuilder setValidationBlock:]', symObjAddr: 0x75C0, symBinAddr: 0x1A7C8, symSize: 0xC }
  - { offset: 0x9E005, size: 0x8, addend: 0x0, symName: '-[SCLALertViewButtonBuilder setValidationBlock:]', symObjAddr: 0x75C0, symBinAddr: 0x1A7C8, symSize: 0xC }
  - { offset: 0x9E00D, size: 0x8, addend: 0x0, symName: '-[SCLALertViewButtonBuilder parameterTitle]', symObjAddr: 0x75CC, symBinAddr: 0x1A7D4, symSize: 0x10 }
  - { offset: 0x9E04D, size: 0x8, addend: 0x0, symName: '-[SCLALertViewButtonBuilder parameterTitle]', symObjAddr: 0x75CC, symBinAddr: 0x1A7D4, symSize: 0x10 }
  - { offset: 0x9E055, size: 0x8, addend: 0x0, symName: '-[SCLALertViewButtonBuilder setParameterTitle:]', symObjAddr: 0x75DC, symBinAddr: 0x1A7E4, symSize: 0xC }
  - { offset: 0x9E08D, size: 0x8, addend: 0x0, symName: '-[SCLALertViewButtonBuilder setParameterTitle:]', symObjAddr: 0x75DC, symBinAddr: 0x1A7E4, symSize: 0xC }
  - { offset: 0x9E095, size: 0x8, addend: 0x0, symName: '-[SCLALertViewButtonBuilder parameterTarget]', symObjAddr: 0x75E8, symBinAddr: 0x1A7F0, symSize: 0x20 }
  - { offset: 0x9E0D5, size: 0x8, addend: 0x0, symName: '-[SCLALertViewButtonBuilder parameterTarget]', symObjAddr: 0x75E8, symBinAddr: 0x1A7F0, symSize: 0x20 }
  - { offset: 0x9E0DD, size: 0x8, addend: 0x0, symName: '-[SCLALertViewButtonBuilder setParameterTarget:]', symObjAddr: 0x7608, symBinAddr: 0x1A810, symSize: 0x14 }
  - { offset: 0x9E115, size: 0x8, addend: 0x0, symName: '-[SCLALertViewButtonBuilder setParameterTarget:]', symObjAddr: 0x7608, symBinAddr: 0x1A810, symSize: 0x14 }
  - { offset: 0x9E11D, size: 0x8, addend: 0x0, symName: '-[SCLALertViewButtonBuilder parameterSelector]', symObjAddr: 0x761C, symBinAddr: 0x1A824, symSize: 0x10 }
  - { offset: 0x9E15F, size: 0x8, addend: 0x0, symName: '-[SCLALertViewButtonBuilder parameterSelector]', symObjAddr: 0x761C, symBinAddr: 0x1A824, symSize: 0x10 }
  - { offset: 0x9E167, size: 0x8, addend: 0x0, symName: '-[SCLALertViewButtonBuilder setParameterSelector:]', symObjAddr: 0x762C, symBinAddr: 0x1A834, symSize: 0x10 }
  - { offset: 0x9E19F, size: 0x8, addend: 0x0, symName: '-[SCLALertViewButtonBuilder setParameterSelector:]', symObjAddr: 0x762C, symBinAddr: 0x1A834, symSize: 0x10 }
  - { offset: 0x9E1A7, size: 0x8, addend: 0x0, symName: '-[SCLALertViewButtonBuilder parameterActionBlock]', symObjAddr: 0x763C, symBinAddr: 0x1A844, symSize: 0x10 }
  - { offset: 0x9E1E5, size: 0x8, addend: 0x0, symName: '-[SCLALertViewButtonBuilder parameterActionBlock]', symObjAddr: 0x763C, symBinAddr: 0x1A844, symSize: 0x10 }
  - { offset: 0x9E1ED, size: 0x8, addend: 0x0, symName: '-[SCLALertViewButtonBuilder setParameterActionBlock:]', symObjAddr: 0x764C, symBinAddr: 0x1A854, symSize: 0xC }
  - { offset: 0x9E225, size: 0x8, addend: 0x0, symName: '-[SCLALertViewButtonBuilder setParameterActionBlock:]', symObjAddr: 0x764C, symBinAddr: 0x1A854, symSize: 0xC }
  - { offset: 0x9E22D, size: 0x8, addend: 0x0, symName: '-[SCLALertViewButtonBuilder parameterValidationBlock]', symObjAddr: 0x7658, symBinAddr: 0x1A860, symSize: 0x10 }
  - { offset: 0x9E26D, size: 0x8, addend: 0x0, symName: '-[SCLALertViewButtonBuilder parameterValidationBlock]', symObjAddr: 0x7658, symBinAddr: 0x1A860, symSize: 0x10 }
  - { offset: 0x9E275, size: 0x8, addend: 0x0, symName: '-[SCLALertViewButtonBuilder setParameterValidationBlock:]', symObjAddr: 0x7668, symBinAddr: 0x1A870, symSize: 0xC }
  - { offset: 0x9E2AD, size: 0x8, addend: 0x0, symName: '-[SCLALertViewButtonBuilder setParameterValidationBlock:]', symObjAddr: 0x7668, symBinAddr: 0x1A870, symSize: 0xC }
  - { offset: 0x9E2B5, size: 0x8, addend: 0x0, symName: '-[SCLALertViewButtonBuilder .cxx_destruct]', symObjAddr: 0x7674, symBinAddr: 0x1A87C, symSize: 0xD8 }
  - { offset: 0x9E2F5, size: 0x8, addend: 0x0, symName: '-[SCLALertViewButtonBuilder .cxx_destruct]', symObjAddr: 0x7674, symBinAddr: 0x1A87C, symSize: 0xD8 }
  - { offset: 0x9E2FD, size: 0x8, addend: 0x0, symName: '-[SCLAlertViewBuilder setupFluent]', symObjAddr: 0x774C, symBinAddr: 0x1A954, symSize: 0xD3C }
  - { offset: 0x9E331, size: 0x8, addend: 0x0, symName: '-[SCLAlertViewBuilder setupFluent]', symObjAddr: 0x774C, symBinAddr: 0x1A954, symSize: 0xD3C }
  - { offset: 0x9E339, size: 0x8, addend: 0x0, symName: '___34-[SCLAlertViewBuilder setupFluent]_block_invoke', symObjAddr: 0x8488, symBinAddr: 0x1B690, symSize: 0x6C }
  - { offset: 0x9E37D, size: 0x8, addend: 0x0, symName: '___34-[SCLAlertViewBuilder setupFluent]_block_invoke', symObjAddr: 0x8488, symBinAddr: 0x1B690, symSize: 0x6C }
  - { offset: 0x9E385, size: 0x8, addend: 0x0, symName: '___34-[SCLAlertViewBuilder setupFluent]_block_invoke.625', symObjAddr: 0x84F4, symBinAddr: 0x1B6FC, symSize: 0x64 }
  - { offset: 0x9E3C5, size: 0x8, addend: 0x0, symName: '___34-[SCLAlertViewBuilder setupFluent]_block_invoke.625', symObjAddr: 0x84F4, symBinAddr: 0x1B6FC, symSize: 0x64 }
  - { offset: 0x9E3CD, size: 0x8, addend: 0x0, symName: '___34-[SCLAlertViewBuilder setupFluent]_block_invoke.627', symObjAddr: 0x8558, symBinAddr: 0x1B760, symSize: 0x64 }
  - { offset: 0x9E409, size: 0x8, addend: 0x0, symName: '___34-[SCLAlertViewBuilder setupFluent]_block_invoke.627', symObjAddr: 0x8558, symBinAddr: 0x1B760, symSize: 0x64 }
  - { offset: 0x9E411, size: 0x8, addend: 0x0, symName: '___34-[SCLAlertViewBuilder setupFluent]_block_invoke_2', symObjAddr: 0x85BC, symBinAddr: 0x1B7C4, symSize: 0x74 }
  - { offset: 0x9E44D, size: 0x8, addend: 0x0, symName: '___34-[SCLAlertViewBuilder setupFluent]_block_invoke_2', symObjAddr: 0x85BC, symBinAddr: 0x1B7C4, symSize: 0x74 }
  - { offset: 0x9E455, size: 0x8, addend: 0x0, symName: '___34-[SCLAlertViewBuilder setupFluent]_block_invoke.629', symObjAddr: 0x8630, symBinAddr: 0x1B838, symSize: 0x74 }
  - { offset: 0x9E495, size: 0x8, addend: 0x0, symName: '___34-[SCLAlertViewBuilder setupFluent]_block_invoke.629', symObjAddr: 0x8630, symBinAddr: 0x1B838, symSize: 0x74 }
  - { offset: 0x9E49D, size: 0x8, addend: 0x0, symName: '___34-[SCLAlertViewBuilder setupFluent]_block_invoke.631', symObjAddr: 0x86A4, symBinAddr: 0x1B8AC, symSize: 0x74 }
  - { offset: 0x9E4DD, size: 0x8, addend: 0x0, symName: '___34-[SCLAlertViewBuilder setupFluent]_block_invoke.631', symObjAddr: 0x86A4, symBinAddr: 0x1B8AC, symSize: 0x74 }
  - { offset: 0x9E4E5, size: 0x8, addend: 0x0, symName: '___34-[SCLAlertViewBuilder setupFluent]_block_invoke.633', symObjAddr: 0x8718, symBinAddr: 0x1B920, symSize: 0x64 }
  - { offset: 0x9E525, size: 0x8, addend: 0x0, symName: '___34-[SCLAlertViewBuilder setupFluent]_block_invoke.633', symObjAddr: 0x8718, symBinAddr: 0x1B920, symSize: 0x64 }
  - { offset: 0x9E52D, size: 0x8, addend: 0x0, symName: '___34-[SCLAlertViewBuilder setupFluent]_block_invoke_2.634', symObjAddr: 0x877C, symBinAddr: 0x1B984, symSize: 0x74 }
  - { offset: 0x9E569, size: 0x8, addend: 0x0, symName: '___34-[SCLAlertViewBuilder setupFluent]_block_invoke_2.634', symObjAddr: 0x877C, symBinAddr: 0x1B984, symSize: 0x74 }
  - { offset: 0x9E571, size: 0x8, addend: 0x0, symName: '___34-[SCLAlertViewBuilder setupFluent]_block_invoke.636', symObjAddr: 0x87F0, symBinAddr: 0x1B9F8, symSize: 0x74 }
  - { offset: 0x9E5B1, size: 0x8, addend: 0x0, symName: '___34-[SCLAlertViewBuilder setupFluent]_block_invoke.636', symObjAddr: 0x87F0, symBinAddr: 0x1B9F8, symSize: 0x74 }
  - { offset: 0x9E5B9, size: 0x8, addend: 0x0, symName: '___34-[SCLAlertViewBuilder setupFluent]_block_invoke.638', symObjAddr: 0x8864, symBinAddr: 0x1BA6C, symSize: 0x74 }
  - { offset: 0x9E5F9, size: 0x8, addend: 0x0, symName: '___34-[SCLAlertViewBuilder setupFluent]_block_invoke.638', symObjAddr: 0x8864, symBinAddr: 0x1BA6C, symSize: 0x74 }
  - { offset: 0x9E601, size: 0x8, addend: 0x0, symName: '___34-[SCLAlertViewBuilder setupFluent]_block_invoke.640', symObjAddr: 0x88D8, symBinAddr: 0x1BAE0, symSize: 0x74 }
  - { offset: 0x9E641, size: 0x8, addend: 0x0, symName: '___34-[SCLAlertViewBuilder setupFluent]_block_invoke.640', symObjAddr: 0x88D8, symBinAddr: 0x1BAE0, symSize: 0x74 }
  - { offset: 0x9E649, size: 0x8, addend: 0x0, symName: '___34-[SCLAlertViewBuilder setupFluent]_block_invoke_2.641', symObjAddr: 0x894C, symBinAddr: 0x1BB54, symSize: 0x74 }
  - { offset: 0x9E689, size: 0x8, addend: 0x0, symName: '___34-[SCLAlertViewBuilder setupFluent]_block_invoke_2.641', symObjAddr: 0x894C, symBinAddr: 0x1BB54, symSize: 0x74 }
  - { offset: 0x9E691, size: 0x8, addend: 0x0, symName: '___34-[SCLAlertViewBuilder setupFluent]_block_invoke.643', symObjAddr: 0x89C0, symBinAddr: 0x1BBC8, symSize: 0x64 }
  - { offset: 0x9E6D1, size: 0x8, addend: 0x0, symName: '___34-[SCLAlertViewBuilder setupFluent]_block_invoke.643', symObjAddr: 0x89C0, symBinAddr: 0x1BBC8, symSize: 0x64 }
  - { offset: 0x9E6D9, size: 0x8, addend: 0x0, symName: '___34-[SCLAlertViewBuilder setupFluent]_block_invoke.645', symObjAddr: 0x8A24, symBinAddr: 0x1BC2C, symSize: 0x64 }
  - { offset: 0x9E719, size: 0x8, addend: 0x0, symName: '___34-[SCLAlertViewBuilder setupFluent]_block_invoke.645', symObjAddr: 0x8A24, symBinAddr: 0x1BC2C, symSize: 0x64 }
  - { offset: 0x9E721, size: 0x8, addend: 0x0, symName: '___34-[SCLAlertViewBuilder setupFluent]_block_invoke_2.646', symObjAddr: 0x8A88, symBinAddr: 0x1BC90, symSize: 0x64 }
  - { offset: 0x9E761, size: 0x8, addend: 0x0, symName: '___34-[SCLAlertViewBuilder setupFluent]_block_invoke_2.646', symObjAddr: 0x8A88, symBinAddr: 0x1BC90, symSize: 0x64 }
  - { offset: 0x9E769, size: 0x8, addend: 0x0, symName: '___34-[SCLAlertViewBuilder setupFluent]_block_invoke_3', symObjAddr: 0x8AEC, symBinAddr: 0x1BCF4, symSize: 0x74 }
  - { offset: 0x9E7A9, size: 0x8, addend: 0x0, symName: '___34-[SCLAlertViewBuilder setupFluent]_block_invoke_3', symObjAddr: 0x8AEC, symBinAddr: 0x1BCF4, symSize: 0x74 }
  - { offset: 0x9E7B1, size: 0x8, addend: 0x0, symName: '___34-[SCLAlertViewBuilder setupFluent]_block_invoke.648', symObjAddr: 0x8B60, symBinAddr: 0x1BD68, symSize: 0x74 }
  - { offset: 0x9E7F1, size: 0x8, addend: 0x0, symName: '___34-[SCLAlertViewBuilder setupFluent]_block_invoke.648', symObjAddr: 0x8B60, symBinAddr: 0x1BD68, symSize: 0x74 }
  - { offset: 0x9E7F9, size: 0x8, addend: 0x0, symName: '___34-[SCLAlertViewBuilder setupFluent]_block_invoke_2.649', symObjAddr: 0x8BD4, symBinAddr: 0x1BDDC, symSize: 0x74 }
  - { offset: 0x9E839, size: 0x8, addend: 0x0, symName: '___34-[SCLAlertViewBuilder setupFluent]_block_invoke_2.649', symObjAddr: 0x8BD4, symBinAddr: 0x1BDDC, symSize: 0x74 }
  - { offset: 0x9E841, size: 0x8, addend: 0x0, symName: '___34-[SCLAlertViewBuilder setupFluent]_block_invoke_3.650', symObjAddr: 0x8C48, symBinAddr: 0x1BE50, symSize: 0x6C }
  - { offset: 0x9E881, size: 0x8, addend: 0x0, symName: '___34-[SCLAlertViewBuilder setupFluent]_block_invoke_3.650', symObjAddr: 0x8C48, symBinAddr: 0x1BE50, symSize: 0x6C }
  - { offset: 0x9E889, size: 0x8, addend: 0x0, symName: '___34-[SCLAlertViewBuilder setupFluent]_block_invoke_4', symObjAddr: 0x8CB4, symBinAddr: 0x1BEBC, symSize: 0x8C }
  - { offset: 0x9E8C9, size: 0x8, addend: 0x0, symName: '___34-[SCLAlertViewBuilder setupFluent]_block_invoke_4', symObjAddr: 0x8CB4, symBinAddr: 0x1BEBC, symSize: 0x8C }
  - { offset: 0x9E8D1, size: 0x8, addend: 0x0, symName: '___34-[SCLAlertViewBuilder setupFluent]_block_invoke.652', symObjAddr: 0x8D40, symBinAddr: 0x1BF48, symSize: 0x64 }
  - { offset: 0x9E90D, size: 0x8, addend: 0x0, symName: '___34-[SCLAlertViewBuilder setupFluent]_block_invoke.652', symObjAddr: 0x8D40, symBinAddr: 0x1BF48, symSize: 0x64 }
  - { offset: 0x9E915, size: 0x8, addend: 0x0, symName: '___34-[SCLAlertViewBuilder setupFluent]_block_invoke_2.653', symObjAddr: 0x8DA4, symBinAddr: 0x1BFAC, symSize: 0x64 }
  - { offset: 0x9E951, size: 0x8, addend: 0x0, symName: '___34-[SCLAlertViewBuilder setupFluent]_block_invoke_2.653', symObjAddr: 0x8DA4, symBinAddr: 0x1BFAC, symSize: 0x64 }
  - { offset: 0x9E959, size: 0x8, addend: 0x0, symName: '___34-[SCLAlertViewBuilder setupFluent]_block_invoke_3.654', symObjAddr: 0x8E08, symBinAddr: 0x1C010, symSize: 0x74 }
  - { offset: 0x9E999, size: 0x8, addend: 0x0, symName: '___34-[SCLAlertViewBuilder setupFluent]_block_invoke_3.654', symObjAddr: 0x8E08, symBinAddr: 0x1C010, symSize: 0x74 }
  - { offset: 0x9E9A1, size: 0x8, addend: 0x0, symName: '___34-[SCLAlertViewBuilder setupFluent]_block_invoke_4.655', symObjAddr: 0x8E7C, symBinAddr: 0x1C084, symSize: 0x74 }
  - { offset: 0x9E9E1, size: 0x8, addend: 0x0, symName: '___34-[SCLAlertViewBuilder setupFluent]_block_invoke_4.655', symObjAddr: 0x8E7C, symBinAddr: 0x1C084, symSize: 0x74 }
  - { offset: 0x9E9E9, size: 0x8, addend: 0x0, symName: '___34-[SCLAlertViewBuilder setupFluent]_block_invoke_5', symObjAddr: 0x8EF0, symBinAddr: 0x1C0F8, symSize: 0x74 }
  - { offset: 0x9EA29, size: 0x8, addend: 0x0, symName: '___34-[SCLAlertViewBuilder setupFluent]_block_invoke_5', symObjAddr: 0x8EF0, symBinAddr: 0x1C0F8, symSize: 0x74 }
  - { offset: 0x9EA31, size: 0x8, addend: 0x0, symName: '___34-[SCLAlertViewBuilder setupFluent]_block_invoke_6', symObjAddr: 0x8F64, symBinAddr: 0x1C16C, symSize: 0x5C }
  - { offset: 0x9EA71, size: 0x8, addend: 0x0, symName: '___34-[SCLAlertViewBuilder setupFluent]_block_invoke_6', symObjAddr: 0x8F64, symBinAddr: 0x1C16C, symSize: 0x5C }
  - { offset: 0x9EA79, size: 0x8, addend: 0x0, symName: '___34-[SCLAlertViewBuilder setupFluent]_block_invoke.657', symObjAddr: 0x8FC0, symBinAddr: 0x1C1C8, symSize: 0x90 }
  - { offset: 0x9EAA8, size: 0x8, addend: 0x0, symName: '___34-[SCLAlertViewBuilder setupFluent]_block_invoke.657', symObjAddr: 0x8FC0, symBinAddr: 0x1C1C8, symSize: 0x90 }
  - { offset: 0x9EAB0, size: 0x8, addend: 0x0, symName: '___34-[SCLAlertViewBuilder setupFluent]_block_invoke.659', symObjAddr: 0x9050, symBinAddr: 0x1C258, symSize: 0x90 }
  - { offset: 0x9EAF0, size: 0x8, addend: 0x0, symName: '___34-[SCLAlertViewBuilder setupFluent]_block_invoke.659', symObjAddr: 0x9050, symBinAddr: 0x1C258, symSize: 0x90 }
  - { offset: 0x9EAF8, size: 0x8, addend: 0x0, symName: '___34-[SCLAlertViewBuilder setupFluent]_block_invoke.661', symObjAddr: 0x90E0, symBinAddr: 0x1C2E8, symSize: 0x74 }
  - { offset: 0x9EB38, size: 0x8, addend: 0x0, symName: '___34-[SCLAlertViewBuilder setupFluent]_block_invoke.661', symObjAddr: 0x90E0, symBinAddr: 0x1C2E8, symSize: 0x74 }
  - { offset: 0x9EB40, size: 0x8, addend: 0x0, symName: '___34-[SCLAlertViewBuilder setupFluent]_block_invoke.663', symObjAddr: 0x9154, symBinAddr: 0x1C35C, symSize: 0x90 }
  - { offset: 0x9EB80, size: 0x8, addend: 0x0, symName: '___34-[SCLAlertViewBuilder setupFluent]_block_invoke.663', symObjAddr: 0x9154, symBinAddr: 0x1C35C, symSize: 0x90 }
  - { offset: 0x9EB88, size: 0x8, addend: 0x0, symName: '___34-[SCLAlertViewBuilder setupFluent]_block_invoke_2.664', symObjAddr: 0x91E4, symBinAddr: 0x1C3EC, symSize: 0x74 }
  - { offset: 0x9EBC8, size: 0x8, addend: 0x0, symName: '___34-[SCLAlertViewBuilder setupFluent]_block_invoke_2.664', symObjAddr: 0x91E4, symBinAddr: 0x1C3EC, symSize: 0x74 }
  - { offset: 0x9EBD0, size: 0x8, addend: 0x0, symName: '___34-[SCLAlertViewBuilder setupFluent]_block_invoke.666', symObjAddr: 0x9258, symBinAddr: 0x1C460, symSize: 0x84 }
  - { offset: 0x9EC1D, size: 0x8, addend: 0x0, symName: '___34-[SCLAlertViewBuilder setupFluent]_block_invoke.666', symObjAddr: 0x9258, symBinAddr: 0x1C460, symSize: 0x84 }
  - { offset: 0x9EC25, size: 0x8, addend: 0x0, symName: '___34-[SCLAlertViewBuilder setupFluent]_block_invoke.668', symObjAddr: 0x92DC, symBinAddr: 0x1C4E4, symSize: 0x84 }
  - { offset: 0x9EC76, size: 0x8, addend: 0x0, symName: '___34-[SCLAlertViewBuilder setupFluent]_block_invoke.668', symObjAddr: 0x92DC, symBinAddr: 0x1C4E4, symSize: 0x84 }
  - { offset: 0x9EC7E, size: 0x8, addend: 0x0, symName: '___34-[SCLAlertViewBuilder setupFluent]_block_invoke_2.669', symObjAddr: 0x9360, symBinAddr: 0x1C568, symSize: 0x84 }
  - { offset: 0x9ECCF, size: 0x8, addend: 0x0, symName: '___34-[SCLAlertViewBuilder setupFluent]_block_invoke_2.669', symObjAddr: 0x9360, symBinAddr: 0x1C568, symSize: 0x84 }
  - { offset: 0x9ECD7, size: 0x8, addend: 0x0, symName: '___34-[SCLAlertViewBuilder setupFluent]_block_invoke_3.670', symObjAddr: 0x93E4, symBinAddr: 0x1C5EC, symSize: 0xAC }
  - { offset: 0x9ED28, size: 0x8, addend: 0x0, symName: '___34-[SCLAlertViewBuilder setupFluent]_block_invoke_3.670', symObjAddr: 0x93E4, symBinAddr: 0x1C5EC, symSize: 0xAC }
  - { offset: 0x9ED30, size: 0x8, addend: 0x0, symName: '___34-[SCLAlertViewBuilder setupFluent]_block_invoke.672', symObjAddr: 0x9490, symBinAddr: 0x1C698, symSize: 0xD0 }
  - { offset: 0x9ED81, size: 0x8, addend: 0x0, symName: '___34-[SCLAlertViewBuilder setupFluent]_block_invoke.672', symObjAddr: 0x9490, symBinAddr: 0x1C698, symSize: 0xD0 }
  - { offset: 0x9ED89, size: 0x8, addend: 0x0, symName: '___34-[SCLAlertViewBuilder setupFluent]_block_invoke.674', symObjAddr: 0x9560, symBinAddr: 0x1C768, symSize: 0xB4 }
  - { offset: 0x9EDEB, size: 0x8, addend: 0x0, symName: '___34-[SCLAlertViewBuilder setupFluent]_block_invoke.674', symObjAddr: 0x9560, symBinAddr: 0x1C768, symSize: 0xB4 }
  - { offset: 0x9EDF3, size: 0x8, addend: 0x0, symName: '___34-[SCLAlertViewBuilder setupFluent]_block_invoke.676', symObjAddr: 0x9614, symBinAddr: 0x1C81C, symSize: 0x268 }
  - { offset: 0x9EE55, size: 0x8, addend: 0x0, symName: '___34-[SCLAlertViewBuilder setupFluent]_block_invoke.676', symObjAddr: 0x9614, symBinAddr: 0x1C81C, symSize: 0x268 }
  - { offset: 0x9EE5D, size: 0x8, addend: 0x0, symName: '___34-[SCLAlertViewBuilder setupFluent]_block_invoke.678', symObjAddr: 0x987C, symBinAddr: 0x1CA84, symSize: 0xBC }
  - { offset: 0x9EEC0, size: 0x8, addend: 0x0, symName: '___34-[SCLAlertViewBuilder setupFluent]_block_invoke.678', symObjAddr: 0x987C, symBinAddr: 0x1CA84, symSize: 0xBC }
  - { offset: 0x9EEC8, size: 0x8, addend: 0x0, symName: '-[SCLAlertViewBuilder init]', symObjAddr: 0x9938, symBinAddr: 0x1CB40, symSize: 0x70 }
  - { offset: 0x9EF08, size: 0x8, addend: 0x0, symName: '-[SCLAlertViewBuilder init]', symObjAddr: 0x9938, symBinAddr: 0x1CB40, symSize: 0x70 }
  - { offset: 0x9EF10, size: 0x8, addend: 0x0, symName: '-[SCLAlertViewBuilder initWithNewWindow]', symObjAddr: 0x99A8, symBinAddr: 0x1CBB0, symSize: 0x70 }
  - { offset: 0x9EF47, size: 0x8, addend: 0x0, symName: '-[SCLAlertViewBuilder initWithNewWindow]', symObjAddr: 0x99A8, symBinAddr: 0x1CBB0, symSize: 0x70 }
  - { offset: 0x9EF4F, size: 0x8, addend: 0x0, symName: '-[SCLAlertViewBuilder initWithNewWindowWidth:]', symObjAddr: 0x9A18, symBinAddr: 0x1CC20, symSize: 0x80 }
  - { offset: 0x9EF86, size: 0x8, addend: 0x0, symName: '-[SCLAlertViewBuilder initWithNewWindowWidth:]', symObjAddr: 0x9A18, symBinAddr: 0x1CC20, symSize: 0x80 }
  - { offset: 0x9EF8E, size: 0x8, addend: 0x0, symName: '-[SCLAlertViewBuilder alertView]', symObjAddr: 0x9A98, symBinAddr: 0x1CCA0, symSize: 0x10 }
  - { offset: 0x9EFD6, size: 0x8, addend: 0x0, symName: '-[SCLAlertViewBuilder alertView]', symObjAddr: 0x9A98, symBinAddr: 0x1CCA0, symSize: 0x10 }
  - { offset: 0x9EFDE, size: 0x8, addend: 0x0, symName: '-[SCLAlertViewBuilder setAlertView:]', symObjAddr: 0x9AA8, symBinAddr: 0x1CCB0, symSize: 0x14 }
  - { offset: 0x9F016, size: 0x8, addend: 0x0, symName: '-[SCLAlertViewBuilder setAlertView:]', symObjAddr: 0x9AA8, symBinAddr: 0x1CCB0, symSize: 0x14 }
  - { offset: 0x9F01E, size: 0x8, addend: 0x0, symName: '-[SCLAlertViewBuilder cornerRadius]', symObjAddr: 0x9ABC, symBinAddr: 0x1CCC4, symSize: 0x10 }
  - { offset: 0x9F060, size: 0x8, addend: 0x0, symName: '-[SCLAlertViewBuilder cornerRadius]', symObjAddr: 0x9ABC, symBinAddr: 0x1CCC4, symSize: 0x10 }
  - { offset: 0x9F068, size: 0x8, addend: 0x0, symName: '-[SCLAlertViewBuilder setCornerRadius:]', symObjAddr: 0x9ACC, symBinAddr: 0x1CCD4, symSize: 0xC }
  - { offset: 0x9F0A0, size: 0x8, addend: 0x0, symName: '-[SCLAlertViewBuilder setCornerRadius:]', symObjAddr: 0x9ACC, symBinAddr: 0x1CCD4, symSize: 0xC }
  - { offset: 0x9F0A8, size: 0x8, addend: 0x0, symName: '-[SCLAlertViewBuilder tintTopCircle]', symObjAddr: 0x9AD8, symBinAddr: 0x1CCE0, symSize: 0x10 }
  - { offset: 0x9F0E8, size: 0x8, addend: 0x0, symName: '-[SCLAlertViewBuilder tintTopCircle]', symObjAddr: 0x9AD8, symBinAddr: 0x1CCE0, symSize: 0x10 }
  - { offset: 0x9F0F0, size: 0x8, addend: 0x0, symName: '-[SCLAlertViewBuilder setTintTopCircle:]', symObjAddr: 0x9AE8, symBinAddr: 0x1CCF0, symSize: 0xC }
  - { offset: 0x9F128, size: 0x8, addend: 0x0, symName: '-[SCLAlertViewBuilder setTintTopCircle:]', symObjAddr: 0x9AE8, symBinAddr: 0x1CCF0, symSize: 0xC }
  - { offset: 0x9F130, size: 0x8, addend: 0x0, symName: '-[SCLAlertViewBuilder useLargerIcon]', symObjAddr: 0x9AF4, symBinAddr: 0x1CCFC, symSize: 0x10 }
  - { offset: 0x9F170, size: 0x8, addend: 0x0, symName: '-[SCLAlertViewBuilder useLargerIcon]', symObjAddr: 0x9AF4, symBinAddr: 0x1CCFC, symSize: 0x10 }
  - { offset: 0x9F178, size: 0x8, addend: 0x0, symName: '-[SCLAlertViewBuilder setUseLargerIcon:]', symObjAddr: 0x9B04, symBinAddr: 0x1CD0C, symSize: 0xC }
  - { offset: 0x9F1B0, size: 0x8, addend: 0x0, symName: '-[SCLAlertViewBuilder setUseLargerIcon:]', symObjAddr: 0x9B04, symBinAddr: 0x1CD0C, symSize: 0xC }
  - { offset: 0x9F1B8, size: 0x8, addend: 0x0, symName: '-[SCLAlertViewBuilder labelTitle]', symObjAddr: 0x9B10, symBinAddr: 0x1CD18, symSize: 0x10 }
  - { offset: 0x9F1F8, size: 0x8, addend: 0x0, symName: '-[SCLAlertViewBuilder labelTitle]', symObjAddr: 0x9B10, symBinAddr: 0x1CD18, symSize: 0x10 }
  - { offset: 0x9F200, size: 0x8, addend: 0x0, symName: '-[SCLAlertViewBuilder setLabelTitle:]', symObjAddr: 0x9B20, symBinAddr: 0x1CD28, symSize: 0xC }
  - { offset: 0x9F238, size: 0x8, addend: 0x0, symName: '-[SCLAlertViewBuilder setLabelTitle:]', symObjAddr: 0x9B20, symBinAddr: 0x1CD28, symSize: 0xC }
  - { offset: 0x9F240, size: 0x8, addend: 0x0, symName: '-[SCLAlertViewBuilder viewText]', symObjAddr: 0x9B2C, symBinAddr: 0x1CD34, symSize: 0x10 }
  - { offset: 0x9F280, size: 0x8, addend: 0x0, symName: '-[SCLAlertViewBuilder viewText]', symObjAddr: 0x9B2C, symBinAddr: 0x1CD34, symSize: 0x10 }
  - { offset: 0x9F288, size: 0x8, addend: 0x0, symName: '-[SCLAlertViewBuilder setViewText:]', symObjAddr: 0x9B3C, symBinAddr: 0x1CD44, symSize: 0xC }
  - { offset: 0x9F2C0, size: 0x8, addend: 0x0, symName: '-[SCLAlertViewBuilder setViewText:]', symObjAddr: 0x9B3C, symBinAddr: 0x1CD44, symSize: 0xC }
  - { offset: 0x9F2C8, size: 0x8, addend: 0x0, symName: '-[SCLAlertViewBuilder activityIndicatorView]', symObjAddr: 0x9B48, symBinAddr: 0x1CD50, symSize: 0x10 }
  - { offset: 0x9F308, size: 0x8, addend: 0x0, symName: '-[SCLAlertViewBuilder activityIndicatorView]', symObjAddr: 0x9B48, symBinAddr: 0x1CD50, symSize: 0x10 }
  - { offset: 0x9F310, size: 0x8, addend: 0x0, symName: '-[SCLAlertViewBuilder setActivityIndicatorView:]', symObjAddr: 0x9B58, symBinAddr: 0x1CD60, symSize: 0xC }
  - { offset: 0x9F348, size: 0x8, addend: 0x0, symName: '-[SCLAlertViewBuilder setActivityIndicatorView:]', symObjAddr: 0x9B58, symBinAddr: 0x1CD60, symSize: 0xC }
  - { offset: 0x9F350, size: 0x8, addend: 0x0, symName: '-[SCLAlertViewBuilder shouldDismissOnTapOutside]', symObjAddr: 0x9B64, symBinAddr: 0x1CD6C, symSize: 0x10 }
  - { offset: 0x9F390, size: 0x8, addend: 0x0, symName: '-[SCLAlertViewBuilder shouldDismissOnTapOutside]', symObjAddr: 0x9B64, symBinAddr: 0x1CD6C, symSize: 0x10 }
  - { offset: 0x9F398, size: 0x8, addend: 0x0, symName: '-[SCLAlertViewBuilder setShouldDismissOnTapOutside:]', symObjAddr: 0x9B74, symBinAddr: 0x1CD7C, symSize: 0xC }
  - { offset: 0x9F3D0, size: 0x8, addend: 0x0, symName: '-[SCLAlertViewBuilder setShouldDismissOnTapOutside:]', symObjAddr: 0x9B74, symBinAddr: 0x1CD7C, symSize: 0xC }
  - { offset: 0x9F3D8, size: 0x8, addend: 0x0, symName: '-[SCLAlertViewBuilder soundURL]', symObjAddr: 0x9B80, symBinAddr: 0x1CD88, symSize: 0x10 }
  - { offset: 0x9F418, size: 0x8, addend: 0x0, symName: '-[SCLAlertViewBuilder soundURL]', symObjAddr: 0x9B80, symBinAddr: 0x1CD88, symSize: 0x10 }
  - { offset: 0x9F420, size: 0x8, addend: 0x0, symName: '-[SCLAlertViewBuilder setSoundURL:]', symObjAddr: 0x9B90, symBinAddr: 0x1CD98, symSize: 0xC }
  - { offset: 0x9F458, size: 0x8, addend: 0x0, symName: '-[SCLAlertViewBuilder setSoundURL:]', symObjAddr: 0x9B90, symBinAddr: 0x1CD98, symSize: 0xC }
  - { offset: 0x9F460, size: 0x8, addend: 0x0, symName: '-[SCLAlertViewBuilder attributedFormatBlock]', symObjAddr: 0x9B9C, symBinAddr: 0x1CDA4, symSize: 0x10 }
  - { offset: 0x9F4A0, size: 0x8, addend: 0x0, symName: '-[SCLAlertViewBuilder attributedFormatBlock]', symObjAddr: 0x9B9C, symBinAddr: 0x1CDA4, symSize: 0x10 }
  - { offset: 0x9F4A8, size: 0x8, addend: 0x0, symName: '-[SCLAlertViewBuilder setAttributedFormatBlock:]', symObjAddr: 0x9BAC, symBinAddr: 0x1CDB4, symSize: 0xC }
  - { offset: 0x9F4E0, size: 0x8, addend: 0x0, symName: '-[SCLAlertViewBuilder setAttributedFormatBlock:]', symObjAddr: 0x9BAC, symBinAddr: 0x1CDB4, symSize: 0xC }
  - { offset: 0x9F4E8, size: 0x8, addend: 0x0, symName: '-[SCLAlertViewBuilder completeButtonFormatBlock]', symObjAddr: 0x9BB8, symBinAddr: 0x1CDC0, symSize: 0x10 }
  - { offset: 0x9F528, size: 0x8, addend: 0x0, symName: '-[SCLAlertViewBuilder completeButtonFormatBlock]', symObjAddr: 0x9BB8, symBinAddr: 0x1CDC0, symSize: 0x10 }
  - { offset: 0x9F530, size: 0x8, addend: 0x0, symName: '-[SCLAlertViewBuilder setCompleteButtonFormatBlock:]', symObjAddr: 0x9BC8, symBinAddr: 0x1CDD0, symSize: 0xC }
  - { offset: 0x9F568, size: 0x8, addend: 0x0, symName: '-[SCLAlertViewBuilder setCompleteButtonFormatBlock:]', symObjAddr: 0x9BC8, symBinAddr: 0x1CDD0, symSize: 0xC }
  - { offset: 0x9F570, size: 0x8, addend: 0x0, symName: '-[SCLAlertViewBuilder buttonFormatBlock]', symObjAddr: 0x9BD4, symBinAddr: 0x1CDDC, symSize: 0x10 }
  - { offset: 0x9F5B0, size: 0x8, addend: 0x0, symName: '-[SCLAlertViewBuilder buttonFormatBlock]', symObjAddr: 0x9BD4, symBinAddr: 0x1CDDC, symSize: 0x10 }
  - { offset: 0x9F5B8, size: 0x8, addend: 0x0, symName: '-[SCLAlertViewBuilder setButtonFormatBlock:]', symObjAddr: 0x9BE4, symBinAddr: 0x1CDEC, symSize: 0xC }
  - { offset: 0x9F5F0, size: 0x8, addend: 0x0, symName: '-[SCLAlertViewBuilder setButtonFormatBlock:]', symObjAddr: 0x9BE4, symBinAddr: 0x1CDEC, symSize: 0xC }
  - { offset: 0x9F5F8, size: 0x8, addend: 0x0, symName: '-[SCLAlertViewBuilder forceHideBlock]', symObjAddr: 0x9BF0, symBinAddr: 0x1CDF8, symSize: 0x10 }
  - { offset: 0x9F638, size: 0x8, addend: 0x0, symName: '-[SCLAlertViewBuilder forceHideBlock]', symObjAddr: 0x9BF0, symBinAddr: 0x1CDF8, symSize: 0x10 }
  - { offset: 0x9F640, size: 0x8, addend: 0x0, symName: '-[SCLAlertViewBuilder setForceHideBlock:]', symObjAddr: 0x9C00, symBinAddr: 0x1CE08, symSize: 0xC }
  - { offset: 0x9F678, size: 0x8, addend: 0x0, symName: '-[SCLAlertViewBuilder setForceHideBlock:]', symObjAddr: 0x9C00, symBinAddr: 0x1CE08, symSize: 0xC }
  - { offset: 0x9F680, size: 0x8, addend: 0x0, symName: '-[SCLAlertViewBuilder hideAnimationType]', symObjAddr: 0x9C0C, symBinAddr: 0x1CE14, symSize: 0x10 }
  - { offset: 0x9F6C0, size: 0x8, addend: 0x0, symName: '-[SCLAlertViewBuilder hideAnimationType]', symObjAddr: 0x9C0C, symBinAddr: 0x1CE14, symSize: 0x10 }
  - { offset: 0x9F6C8, size: 0x8, addend: 0x0, symName: '-[SCLAlertViewBuilder setHideAnimationType:]', symObjAddr: 0x9C1C, symBinAddr: 0x1CE24, symSize: 0xC }
  - { offset: 0x9F700, size: 0x8, addend: 0x0, symName: '-[SCLAlertViewBuilder setHideAnimationType:]', symObjAddr: 0x9C1C, symBinAddr: 0x1CE24, symSize: 0xC }
  - { offset: 0x9F708, size: 0x8, addend: 0x0, symName: '-[SCLAlertViewBuilder showAnimationType]', symObjAddr: 0x9C28, symBinAddr: 0x1CE30, symSize: 0x10 }
  - { offset: 0x9F748, size: 0x8, addend: 0x0, symName: '-[SCLAlertViewBuilder showAnimationType]', symObjAddr: 0x9C28, symBinAddr: 0x1CE30, symSize: 0x10 }
  - { offset: 0x9F750, size: 0x8, addend: 0x0, symName: '-[SCLAlertViewBuilder setShowAnimationType:]', symObjAddr: 0x9C38, symBinAddr: 0x1CE40, symSize: 0xC }
  - { offset: 0x9F788, size: 0x8, addend: 0x0, symName: '-[SCLAlertViewBuilder setShowAnimationType:]', symObjAddr: 0x9C38, symBinAddr: 0x1CE40, symSize: 0xC }
  - { offset: 0x9F790, size: 0x8, addend: 0x0, symName: '-[SCLAlertViewBuilder backgroundType]', symObjAddr: 0x9C44, symBinAddr: 0x1CE4C, symSize: 0x10 }
  - { offset: 0x9F7D0, size: 0x8, addend: 0x0, symName: '-[SCLAlertViewBuilder backgroundType]', symObjAddr: 0x9C44, symBinAddr: 0x1CE4C, symSize: 0x10 }
  - { offset: 0x9F7D8, size: 0x8, addend: 0x0, symName: '-[SCLAlertViewBuilder setBackgroundType:]', symObjAddr: 0x9C54, symBinAddr: 0x1CE5C, symSize: 0xC }
  - { offset: 0x9F810, size: 0x8, addend: 0x0, symName: '-[SCLAlertViewBuilder setBackgroundType:]', symObjAddr: 0x9C54, symBinAddr: 0x1CE5C, symSize: 0xC }
  - { offset: 0x9F818, size: 0x8, addend: 0x0, symName: '-[SCLAlertViewBuilder customViewColor]', symObjAddr: 0x9C60, symBinAddr: 0x1CE68, symSize: 0x10 }
  - { offset: 0x9F858, size: 0x8, addend: 0x0, symName: '-[SCLAlertViewBuilder customViewColor]', symObjAddr: 0x9C60, symBinAddr: 0x1CE68, symSize: 0x10 }
  - { offset: 0x9F860, size: 0x8, addend: 0x0, symName: '-[SCLAlertViewBuilder setCustomViewColor:]', symObjAddr: 0x9C70, symBinAddr: 0x1CE78, symSize: 0xC }
  - { offset: 0x9F898, size: 0x8, addend: 0x0, symName: '-[SCLAlertViewBuilder setCustomViewColor:]', symObjAddr: 0x9C70, symBinAddr: 0x1CE78, symSize: 0xC }
  - { offset: 0x9F8A0, size: 0x8, addend: 0x0, symName: '-[SCLAlertViewBuilder backgroundViewColor]', symObjAddr: 0x9C7C, symBinAddr: 0x1CE84, symSize: 0x10 }
  - { offset: 0x9F8E0, size: 0x8, addend: 0x0, symName: '-[SCLAlertViewBuilder backgroundViewColor]', symObjAddr: 0x9C7C, symBinAddr: 0x1CE84, symSize: 0x10 }
  - { offset: 0x9F8E8, size: 0x8, addend: 0x0, symName: '-[SCLAlertViewBuilder setBackgroundViewColor:]', symObjAddr: 0x9C8C, symBinAddr: 0x1CE94, symSize: 0xC }
  - { offset: 0x9F920, size: 0x8, addend: 0x0, symName: '-[SCLAlertViewBuilder setBackgroundViewColor:]', symObjAddr: 0x9C8C, symBinAddr: 0x1CE94, symSize: 0xC }
  - { offset: 0x9F928, size: 0x8, addend: 0x0, symName: '-[SCLAlertViewBuilder iconTintColor]', symObjAddr: 0x9C98, symBinAddr: 0x1CEA0, symSize: 0x10 }
  - { offset: 0x9F968, size: 0x8, addend: 0x0, symName: '-[SCLAlertViewBuilder iconTintColor]', symObjAddr: 0x9C98, symBinAddr: 0x1CEA0, symSize: 0x10 }
  - { offset: 0x9F970, size: 0x8, addend: 0x0, symName: '-[SCLAlertViewBuilder setIconTintColor:]', symObjAddr: 0x9CA8, symBinAddr: 0x1CEB0, symSize: 0xC }
  - { offset: 0x9F9A8, size: 0x8, addend: 0x0, symName: '-[SCLAlertViewBuilder setIconTintColor:]', symObjAddr: 0x9CA8, symBinAddr: 0x1CEB0, symSize: 0xC }
  - { offset: 0x9F9B0, size: 0x8, addend: 0x0, symName: '-[SCLAlertViewBuilder circleIconHeight]', symObjAddr: 0x9CB4, symBinAddr: 0x1CEBC, symSize: 0x10 }
  - { offset: 0x9F9F0, size: 0x8, addend: 0x0, symName: '-[SCLAlertViewBuilder circleIconHeight]', symObjAddr: 0x9CB4, symBinAddr: 0x1CEBC, symSize: 0x10 }
  - { offset: 0x9F9F8, size: 0x8, addend: 0x0, symName: '-[SCLAlertViewBuilder setCircleIconHeight:]', symObjAddr: 0x9CC4, symBinAddr: 0x1CECC, symSize: 0xC }
  - { offset: 0x9FA30, size: 0x8, addend: 0x0, symName: '-[SCLAlertViewBuilder setCircleIconHeight:]', symObjAddr: 0x9CC4, symBinAddr: 0x1CECC, symSize: 0xC }
  - { offset: 0x9FA38, size: 0x8, addend: 0x0, symName: '-[SCLAlertViewBuilder extensionBounds]', symObjAddr: 0x9CD0, symBinAddr: 0x1CED8, symSize: 0x10 }
  - { offset: 0x9FA78, size: 0x8, addend: 0x0, symName: '-[SCLAlertViewBuilder extensionBounds]', symObjAddr: 0x9CD0, symBinAddr: 0x1CED8, symSize: 0x10 }
  - { offset: 0x9FA80, size: 0x8, addend: 0x0, symName: '-[SCLAlertViewBuilder setExtensionBounds:]', symObjAddr: 0x9CE0, symBinAddr: 0x1CEE8, symSize: 0xC }
  - { offset: 0x9FAB8, size: 0x8, addend: 0x0, symName: '-[SCLAlertViewBuilder setExtensionBounds:]', symObjAddr: 0x9CE0, symBinAddr: 0x1CEE8, symSize: 0xC }
  - { offset: 0x9FAC0, size: 0x8, addend: 0x0, symName: '-[SCLAlertViewBuilder statusBarHidden]', symObjAddr: 0x9CEC, symBinAddr: 0x1CEF4, symSize: 0x10 }
  - { offset: 0x9FB00, size: 0x8, addend: 0x0, symName: '-[SCLAlertViewBuilder statusBarHidden]', symObjAddr: 0x9CEC, symBinAddr: 0x1CEF4, symSize: 0x10 }
  - { offset: 0x9FB08, size: 0x8, addend: 0x0, symName: '-[SCLAlertViewBuilder setStatusBarHidden:]', symObjAddr: 0x9CFC, symBinAddr: 0x1CF04, symSize: 0xC }
  - { offset: 0x9FB40, size: 0x8, addend: 0x0, symName: '-[SCLAlertViewBuilder setStatusBarHidden:]', symObjAddr: 0x9CFC, symBinAddr: 0x1CF04, symSize: 0xC }
  - { offset: 0x9FB48, size: 0x8, addend: 0x0, symName: '-[SCLAlertViewBuilder statusBarStyle]', symObjAddr: 0x9D08, symBinAddr: 0x1CF10, symSize: 0x10 }
  - { offset: 0x9FB88, size: 0x8, addend: 0x0, symName: '-[SCLAlertViewBuilder statusBarStyle]', symObjAddr: 0x9D08, symBinAddr: 0x1CF10, symSize: 0x10 }
  - { offset: 0x9FB90, size: 0x8, addend: 0x0, symName: '-[SCLAlertViewBuilder setStatusBarStyle:]', symObjAddr: 0x9D18, symBinAddr: 0x1CF20, symSize: 0xC }
  - { offset: 0x9FBC8, size: 0x8, addend: 0x0, symName: '-[SCLAlertViewBuilder setStatusBarStyle:]', symObjAddr: 0x9D18, symBinAddr: 0x1CF20, symSize: 0xC }
  - { offset: 0x9FBD0, size: 0x8, addend: 0x0, symName: '-[SCLAlertViewBuilder alertIsDismissed]', symObjAddr: 0x9D24, symBinAddr: 0x1CF2C, symSize: 0x10 }
  - { offset: 0x9FC10, size: 0x8, addend: 0x0, symName: '-[SCLAlertViewBuilder alertIsDismissed]', symObjAddr: 0x9D24, symBinAddr: 0x1CF2C, symSize: 0x10 }
  - { offset: 0x9FC18, size: 0x8, addend: 0x0, symName: '-[SCLAlertViewBuilder setAlertIsDismissed:]', symObjAddr: 0x9D34, symBinAddr: 0x1CF3C, symSize: 0xC }
  - { offset: 0x9FC50, size: 0x8, addend: 0x0, symName: '-[SCLAlertViewBuilder setAlertIsDismissed:]', symObjAddr: 0x9D34, symBinAddr: 0x1CF3C, symSize: 0xC }
  - { offset: 0x9FC58, size: 0x8, addend: 0x0, symName: '-[SCLAlertViewBuilder alertDismissAnimationIsCompleted]', symObjAddr: 0x9D40, symBinAddr: 0x1CF48, symSize: 0x10 }
  - { offset: 0x9FC98, size: 0x8, addend: 0x0, symName: '-[SCLAlertViewBuilder alertDismissAnimationIsCompleted]', symObjAddr: 0x9D40, symBinAddr: 0x1CF48, symSize: 0x10 }
  - { offset: 0x9FCA0, size: 0x8, addend: 0x0, symName: '-[SCLAlertViewBuilder setAlertDismissAnimationIsCompleted:]', symObjAddr: 0x9D50, symBinAddr: 0x1CF58, symSize: 0xC }
  - { offset: 0x9FCD8, size: 0x8, addend: 0x0, symName: '-[SCLAlertViewBuilder setAlertDismissAnimationIsCompleted:]', symObjAddr: 0x9D50, symBinAddr: 0x1CF58, symSize: 0xC }
  - { offset: 0x9FCE0, size: 0x8, addend: 0x0, symName: '-[SCLAlertViewBuilder alertShowAnimationIsCompleted]', symObjAddr: 0x9D5C, symBinAddr: 0x1CF64, symSize: 0x10 }
  - { offset: 0x9FD20, size: 0x8, addend: 0x0, symName: '-[SCLAlertViewBuilder alertShowAnimationIsCompleted]', symObjAddr: 0x9D5C, symBinAddr: 0x1CF64, symSize: 0x10 }
  - { offset: 0x9FD28, size: 0x8, addend: 0x0, symName: '-[SCLAlertViewBuilder setAlertShowAnimationIsCompleted:]', symObjAddr: 0x9D6C, symBinAddr: 0x1CF74, symSize: 0xC }
  - { offset: 0x9FD60, size: 0x8, addend: 0x0, symName: '-[SCLAlertViewBuilder setAlertShowAnimationIsCompleted:]', symObjAddr: 0x9D6C, symBinAddr: 0x1CF74, symSize: 0xC }
  - { offset: 0x9FD68, size: 0x8, addend: 0x0, symName: '-[SCLAlertViewBuilder removeTopCircle]', symObjAddr: 0x9D78, symBinAddr: 0x1CF80, symSize: 0x10 }
  - { offset: 0x9FDA8, size: 0x8, addend: 0x0, symName: '-[SCLAlertViewBuilder removeTopCircle]', symObjAddr: 0x9D78, symBinAddr: 0x1CF80, symSize: 0x10 }
  - { offset: 0x9FDB0, size: 0x8, addend: 0x0, symName: '-[SCLAlertViewBuilder setRemoveTopCircle:]', symObjAddr: 0x9D88, symBinAddr: 0x1CF90, symSize: 0xC }
  - { offset: 0x9FDE8, size: 0x8, addend: 0x0, symName: '-[SCLAlertViewBuilder setRemoveTopCircle:]', symObjAddr: 0x9D88, symBinAddr: 0x1CF90, symSize: 0xC }
  - { offset: 0x9FDF0, size: 0x8, addend: 0x0, symName: '-[SCLAlertViewBuilder addCustomView]', symObjAddr: 0x9D94, symBinAddr: 0x1CF9C, symSize: 0x10 }
  - { offset: 0x9FE30, size: 0x8, addend: 0x0, symName: '-[SCLAlertViewBuilder addCustomView]', symObjAddr: 0x9D94, symBinAddr: 0x1CF9C, symSize: 0x10 }
  - { offset: 0x9FE38, size: 0x8, addend: 0x0, symName: '-[SCLAlertViewBuilder setAddCustomView:]', symObjAddr: 0x9DA4, symBinAddr: 0x1CFAC, symSize: 0xC }
  - { offset: 0x9FE70, size: 0x8, addend: 0x0, symName: '-[SCLAlertViewBuilder setAddCustomView:]', symObjAddr: 0x9DA4, symBinAddr: 0x1CFAC, symSize: 0xC }
  - { offset: 0x9FE78, size: 0x8, addend: 0x0, symName: '-[SCLAlertViewBuilder addTextField]', symObjAddr: 0x9DB0, symBinAddr: 0x1CFB8, symSize: 0x10 }
  - { offset: 0x9FEB8, size: 0x8, addend: 0x0, symName: '-[SCLAlertViewBuilder addTextField]', symObjAddr: 0x9DB0, symBinAddr: 0x1CFB8, symSize: 0x10 }
  - { offset: 0x9FEC0, size: 0x8, addend: 0x0, symName: '-[SCLAlertViewBuilder setAddTextField:]', symObjAddr: 0x9DC0, symBinAddr: 0x1CFC8, symSize: 0xC }
  - { offset: 0x9FEF8, size: 0x8, addend: 0x0, symName: '-[SCLAlertViewBuilder setAddTextField:]', symObjAddr: 0x9DC0, symBinAddr: 0x1CFC8, symSize: 0xC }
  - { offset: 0x9FF00, size: 0x8, addend: 0x0, symName: '-[SCLAlertViewBuilder addCustomTextField]', symObjAddr: 0x9DCC, symBinAddr: 0x1CFD4, symSize: 0x10 }
  - { offset: 0x9FF40, size: 0x8, addend: 0x0, symName: '-[SCLAlertViewBuilder addCustomTextField]', symObjAddr: 0x9DCC, symBinAddr: 0x1CFD4, symSize: 0x10 }
  - { offset: 0x9FF48, size: 0x8, addend: 0x0, symName: '-[SCLAlertViewBuilder setAddCustomTextField:]', symObjAddr: 0x9DDC, symBinAddr: 0x1CFE4, symSize: 0xC }
  - { offset: 0x9FF80, size: 0x8, addend: 0x0, symName: '-[SCLAlertViewBuilder setAddCustomTextField:]', symObjAddr: 0x9DDC, symBinAddr: 0x1CFE4, symSize: 0xC }
  - { offset: 0x9FF88, size: 0x8, addend: 0x0, symName: '-[SCLAlertViewBuilder addSwitchViewWithLabelTitle]', symObjAddr: 0x9DE8, symBinAddr: 0x1CFF0, symSize: 0x10 }
  - { offset: 0x9FFC8, size: 0x8, addend: 0x0, symName: '-[SCLAlertViewBuilder addSwitchViewWithLabelTitle]', symObjAddr: 0x9DE8, symBinAddr: 0x1CFF0, symSize: 0x10 }
  - { offset: 0x9FFD0, size: 0x8, addend: 0x0, symName: '-[SCLAlertViewBuilder setAddSwitchViewWithLabelTitle:]', symObjAddr: 0x9DF8, symBinAddr: 0x1D000, symSize: 0xC }
  - { offset: 0xA0008, size: 0x8, addend: 0x0, symName: '-[SCLAlertViewBuilder setAddSwitchViewWithLabelTitle:]', symObjAddr: 0x9DF8, symBinAddr: 0x1D000, symSize: 0xC }
  - { offset: 0xA0010, size: 0x8, addend: 0x0, symName: '-[SCLAlertViewBuilder addTimerToButtonIndex]', symObjAddr: 0x9E04, symBinAddr: 0x1D00C, symSize: 0x10 }
  - { offset: 0xA0050, size: 0x8, addend: 0x0, symName: '-[SCLAlertViewBuilder addTimerToButtonIndex]', symObjAddr: 0x9E04, symBinAddr: 0x1D00C, symSize: 0x10 }
  - { offset: 0xA0058, size: 0x8, addend: 0x0, symName: '-[SCLAlertViewBuilder setAddTimerToButtonIndex:]', symObjAddr: 0x9E14, symBinAddr: 0x1D01C, symSize: 0xC }
  - { offset: 0xA0090, size: 0x8, addend: 0x0, symName: '-[SCLAlertViewBuilder setAddTimerToButtonIndex:]', symObjAddr: 0x9E14, symBinAddr: 0x1D01C, symSize: 0xC }
  - { offset: 0xA0098, size: 0x8, addend: 0x0, symName: '-[SCLAlertViewBuilder setTitleFontFamily]', symObjAddr: 0x9E20, symBinAddr: 0x1D028, symSize: 0x10 }
  - { offset: 0xA00D8, size: 0x8, addend: 0x0, symName: '-[SCLAlertViewBuilder setTitleFontFamily]', symObjAddr: 0x9E20, symBinAddr: 0x1D028, symSize: 0x10 }
  - { offset: 0xA00E0, size: 0x8, addend: 0x0, symName: '-[SCLAlertViewBuilder setSetTitleFontFamily:]', symObjAddr: 0x9E30, symBinAddr: 0x1D038, symSize: 0xC }
  - { offset: 0xA0118, size: 0x8, addend: 0x0, symName: '-[SCLAlertViewBuilder setSetTitleFontFamily:]', symObjAddr: 0x9E30, symBinAddr: 0x1D038, symSize: 0xC }
  - { offset: 0xA0120, size: 0x8, addend: 0x0, symName: '-[SCLAlertViewBuilder setBodyTextFontFamily]', symObjAddr: 0x9E3C, symBinAddr: 0x1D044, symSize: 0x10 }
  - { offset: 0xA0160, size: 0x8, addend: 0x0, symName: '-[SCLAlertViewBuilder setBodyTextFontFamily]', symObjAddr: 0x9E3C, symBinAddr: 0x1D044, symSize: 0x10 }
  - { offset: 0xA0168, size: 0x8, addend: 0x0, symName: '-[SCLAlertViewBuilder setSetBodyTextFontFamily:]', symObjAddr: 0x9E4C, symBinAddr: 0x1D054, symSize: 0xC }
  - { offset: 0xA01A0, size: 0x8, addend: 0x0, symName: '-[SCLAlertViewBuilder setSetBodyTextFontFamily:]', symObjAddr: 0x9E4C, symBinAddr: 0x1D054, symSize: 0xC }
  - { offset: 0xA01A8, size: 0x8, addend: 0x0, symName: '-[SCLAlertViewBuilder setButtonsTextFontFamily]', symObjAddr: 0x9E58, symBinAddr: 0x1D060, symSize: 0x10 }
  - { offset: 0xA01E8, size: 0x8, addend: 0x0, symName: '-[SCLAlertViewBuilder setButtonsTextFontFamily]', symObjAddr: 0x9E58, symBinAddr: 0x1D060, symSize: 0x10 }
  - { offset: 0xA01F0, size: 0x8, addend: 0x0, symName: '-[SCLAlertViewBuilder setSetButtonsTextFontFamily:]', symObjAddr: 0x9E68, symBinAddr: 0x1D070, symSize: 0xC }
  - { offset: 0xA0228, size: 0x8, addend: 0x0, symName: '-[SCLAlertViewBuilder setSetButtonsTextFontFamily:]', symObjAddr: 0x9E68, symBinAddr: 0x1D070, symSize: 0xC }
  - { offset: 0xA0230, size: 0x8, addend: 0x0, symName: '-[SCLAlertViewBuilder addButtonWithActionBlock]', symObjAddr: 0x9E74, symBinAddr: 0x1D07C, symSize: 0x10 }
  - { offset: 0xA0270, size: 0x8, addend: 0x0, symName: '-[SCLAlertViewBuilder addButtonWithActionBlock]', symObjAddr: 0x9E74, symBinAddr: 0x1D07C, symSize: 0x10 }
  - { offset: 0xA0278, size: 0x8, addend: 0x0, symName: '-[SCLAlertViewBuilder setAddButtonWithActionBlock:]', symObjAddr: 0x9E84, symBinAddr: 0x1D08C, symSize: 0xC }
  - { offset: 0xA02B0, size: 0x8, addend: 0x0, symName: '-[SCLAlertViewBuilder setAddButtonWithActionBlock:]', symObjAddr: 0x9E84, symBinAddr: 0x1D08C, symSize: 0xC }
  - { offset: 0xA02B8, size: 0x8, addend: 0x0, symName: '-[SCLAlertViewBuilder addButtonWithValidationBlock]', symObjAddr: 0x9E90, symBinAddr: 0x1D098, symSize: 0x10 }
  - { offset: 0xA02F8, size: 0x8, addend: 0x0, symName: '-[SCLAlertViewBuilder addButtonWithValidationBlock]', symObjAddr: 0x9E90, symBinAddr: 0x1D098, symSize: 0x10 }
  - { offset: 0xA0300, size: 0x8, addend: 0x0, symName: '-[SCLAlertViewBuilder setAddButtonWithValidationBlock:]', symObjAddr: 0x9EA0, symBinAddr: 0x1D0A8, symSize: 0xC }
  - { offset: 0xA0338, size: 0x8, addend: 0x0, symName: '-[SCLAlertViewBuilder setAddButtonWithValidationBlock:]', symObjAddr: 0x9EA0, symBinAddr: 0x1D0A8, symSize: 0xC }
  - { offset: 0xA0340, size: 0x8, addend: 0x0, symName: '-[SCLAlertViewBuilder addButtonWithTarget]', symObjAddr: 0x9EAC, symBinAddr: 0x1D0B4, symSize: 0x10 }
  - { offset: 0xA0380, size: 0x8, addend: 0x0, symName: '-[SCLAlertViewBuilder addButtonWithTarget]', symObjAddr: 0x9EAC, symBinAddr: 0x1D0B4, symSize: 0x10 }
  - { offset: 0xA0388, size: 0x8, addend: 0x0, symName: '-[SCLAlertViewBuilder setAddButtonWithTarget:]', symObjAddr: 0x9EBC, symBinAddr: 0x1D0C4, symSize: 0xC }
  - { offset: 0xA03C0, size: 0x8, addend: 0x0, symName: '-[SCLAlertViewBuilder setAddButtonWithTarget:]', symObjAddr: 0x9EBC, symBinAddr: 0x1D0C4, symSize: 0xC }
  - { offset: 0xA03C8, size: 0x8, addend: 0x0, symName: '-[SCLAlertViewBuilder addButtonWithBuilder]', symObjAddr: 0x9EC8, symBinAddr: 0x1D0D0, symSize: 0x10 }
  - { offset: 0xA0408, size: 0x8, addend: 0x0, symName: '-[SCLAlertViewBuilder addButtonWithBuilder]', symObjAddr: 0x9EC8, symBinAddr: 0x1D0D0, symSize: 0x10 }
  - { offset: 0xA0410, size: 0x8, addend: 0x0, symName: '-[SCLAlertViewBuilder setAddButtonWithBuilder:]', symObjAddr: 0x9ED8, symBinAddr: 0x1D0E0, symSize: 0xC }
  - { offset: 0xA0448, size: 0x8, addend: 0x0, symName: '-[SCLAlertViewBuilder setAddButtonWithBuilder:]', symObjAddr: 0x9ED8, symBinAddr: 0x1D0E0, symSize: 0xC }
  - { offset: 0xA0450, size: 0x8, addend: 0x0, symName: '-[SCLAlertViewBuilder addTextFieldWithBuilder]', symObjAddr: 0x9EE4, symBinAddr: 0x1D0EC, symSize: 0x10 }
  - { offset: 0xA0490, size: 0x8, addend: 0x0, symName: '-[SCLAlertViewBuilder addTextFieldWithBuilder]', symObjAddr: 0x9EE4, symBinAddr: 0x1D0EC, symSize: 0x10 }
  - { offset: 0xA0498, size: 0x8, addend: 0x0, symName: '-[SCLAlertViewBuilder setAddTextFieldWithBuilder:]', symObjAddr: 0x9EF4, symBinAddr: 0x1D0FC, symSize: 0xC }
  - { offset: 0xA04D0, size: 0x8, addend: 0x0, symName: '-[SCLAlertViewBuilder setAddTextFieldWithBuilder:]', symObjAddr: 0x9EF4, symBinAddr: 0x1D0FC, symSize: 0xC }
  - { offset: 0xA04D8, size: 0x8, addend: 0x0, symName: '-[SCLAlertViewBuilder .cxx_destruct]', symObjAddr: 0x9F00, symBinAddr: 0x1D108, symSize: 0x338 }
  - { offset: 0xA0518, size: 0x8, addend: 0x0, symName: '-[SCLAlertViewBuilder .cxx_destruct]', symObjAddr: 0x9F00, symBinAddr: 0x1D108, symSize: 0x338 }
  - { offset: 0xA0520, size: 0x8, addend: 0x0, symName: '-[SCLAlertViewShowBuilder setupFluent]', symObjAddr: 0xA238, symBinAddr: 0x1D440, symSize: 0x3AC }
  - { offset: 0xA0554, size: 0x8, addend: 0x0, symName: '-[SCLAlertViewShowBuilder setupFluent]', symObjAddr: 0xA238, symBinAddr: 0x1D440, symSize: 0x3AC }
  - { offset: 0xA055C, size: 0x8, addend: 0x0, symName: '___38-[SCLAlertViewShowBuilder setupFluent]_block_invoke', symObjAddr: 0xA5E4, symBinAddr: 0x1D7EC, symSize: 0x5C }
  - { offset: 0xA05A0, size: 0x8, addend: 0x0, symName: '___38-[SCLAlertViewShowBuilder setupFluent]_block_invoke', symObjAddr: 0xA5E4, symBinAddr: 0x1D7EC, symSize: 0x5C }
  - { offset: 0xA05A8, size: 0x8, addend: 0x0, symName: '___38-[SCLAlertViewShowBuilder setupFluent]_block_invoke.793', symObjAddr: 0xA640, symBinAddr: 0x1D848, symSize: 0x5C }
  - { offset: 0xA05E8, size: 0x8, addend: 0x0, symName: '___38-[SCLAlertViewShowBuilder setupFluent]_block_invoke.793', symObjAddr: 0xA640, symBinAddr: 0x1D848, symSize: 0x5C }
  - { offset: 0xA05F0, size: 0x8, addend: 0x0, symName: '___38-[SCLAlertViewShowBuilder setupFluent]_block_invoke.795', symObjAddr: 0xA69C, symBinAddr: 0x1D8A4, symSize: 0x5C }
  - { offset: 0xA0630, size: 0x8, addend: 0x0, symName: '___38-[SCLAlertViewShowBuilder setupFluent]_block_invoke.795', symObjAddr: 0xA69C, symBinAddr: 0x1D8A4, symSize: 0x5C }
  - { offset: 0xA0638, size: 0x8, addend: 0x0, symName: '___38-[SCLAlertViewShowBuilder setupFluent]_block_invoke.797', symObjAddr: 0xA6F8, symBinAddr: 0x1D900, symSize: 0x5C }
  - { offset: 0xA0678, size: 0x8, addend: 0x0, symName: '___38-[SCLAlertViewShowBuilder setupFluent]_block_invoke.797', symObjAddr: 0xA6F8, symBinAddr: 0x1D900, symSize: 0x5C }
  - { offset: 0xA0680, size: 0x8, addend: 0x0, symName: '___38-[SCLAlertViewShowBuilder setupFluent]_block_invoke.799', symObjAddr: 0xA754, symBinAddr: 0x1D95C, symSize: 0x5C }
  - { offset: 0xA06C0, size: 0x8, addend: 0x0, symName: '___38-[SCLAlertViewShowBuilder setupFluent]_block_invoke.799', symObjAddr: 0xA754, symBinAddr: 0x1D95C, symSize: 0x5C }
  - { offset: 0xA06C8, size: 0x8, addend: 0x0, symName: '___38-[SCLAlertViewShowBuilder setupFluent]_block_invoke_2', symObjAddr: 0xA7B0, symBinAddr: 0x1D9B8, symSize: 0x5C }
  - { offset: 0xA0708, size: 0x8, addend: 0x0, symName: '___38-[SCLAlertViewShowBuilder setupFluent]_block_invoke_2', symObjAddr: 0xA7B0, symBinAddr: 0x1D9B8, symSize: 0x5C }
  - { offset: 0xA0710, size: 0x8, addend: 0x0, symName: '___38-[SCLAlertViewShowBuilder setupFluent]_block_invoke_3', symObjAddr: 0xA80C, symBinAddr: 0x1DA14, symSize: 0x4C }
  - { offset: 0xA0750, size: 0x8, addend: 0x0, symName: '___38-[SCLAlertViewShowBuilder setupFluent]_block_invoke_3', symObjAddr: 0xA80C, symBinAddr: 0x1DA14, symSize: 0x4C }
  - { offset: 0xA0758, size: 0x8, addend: 0x0, symName: '___38-[SCLAlertViewShowBuilder setupFluent]_block_invoke.801', symObjAddr: 0xA858, symBinAddr: 0x1DA60, symSize: 0x5C }
  - { offset: 0xA0798, size: 0x8, addend: 0x0, symName: '___38-[SCLAlertViewShowBuilder setupFluent]_block_invoke.801', symObjAddr: 0xA858, symBinAddr: 0x1DA60, symSize: 0x5C }
  - { offset: 0xA07A0, size: 0x8, addend: 0x0, symName: '___38-[SCLAlertViewShowBuilder setupFluent]_block_invoke_2.802', symObjAddr: 0xA8B4, symBinAddr: 0x1DABC, symSize: 0x4C }
  - { offset: 0xA07E0, size: 0x8, addend: 0x0, symName: '___38-[SCLAlertViewShowBuilder setupFluent]_block_invoke_2.802', symObjAddr: 0xA8B4, symBinAddr: 0x1DABC, symSize: 0x4C }
  - { offset: 0xA07E8, size: 0x8, addend: 0x0, symName: '___38-[SCLAlertViewShowBuilder setupFluent]_block_invoke.804', symObjAddr: 0xA900, symBinAddr: 0x1DB08, symSize: 0x6C }
  - { offset: 0xA0828, size: 0x8, addend: 0x0, symName: '___38-[SCLAlertViewShowBuilder setupFluent]_block_invoke.804', symObjAddr: 0xA900, symBinAddr: 0x1DB08, symSize: 0x6C }
  - { offset: 0xA0830, size: 0x8, addend: 0x0, symName: '-[SCLAlertViewShowBuilder showAlertView:]', symObjAddr: 0xA96C, symBinAddr: 0x1DB74, symSize: 0x60 }
  - { offset: 0xA087D, size: 0x8, addend: 0x0, symName: '-[SCLAlertViewShowBuilder showAlertView:]', symObjAddr: 0xA96C, symBinAddr: 0x1DB74, symSize: 0x60 }
  - { offset: 0xA0885, size: 0x8, addend: 0x0, symName: '-[SCLAlertViewShowBuilder showAlertView:onViewController:]', symObjAddr: 0xA9CC, symBinAddr: 0x1DBD4, symSize: 0x21C }
  - { offset: 0xA08C9, size: 0x8, addend: 0x0, symName: '-[SCLAlertViewShowBuilder showAlertView:onViewController:]', symObjAddr: 0xA9CC, symBinAddr: 0x1DBD4, symSize: 0x21C }
  - { offset: 0xA08D1, size: 0x8, addend: 0x0, symName: '-[SCLAlertViewShowBuilder parameterViewController]', symObjAddr: 0xABE8, symBinAddr: 0x1DDF0, symSize: 0x20 }
  - { offset: 0xA0937, size: 0x8, addend: 0x0, symName: '-[SCLAlertViewShowBuilder parameterViewController]', symObjAddr: 0xABE8, symBinAddr: 0x1DDF0, symSize: 0x20 }
  - { offset: 0xA093F, size: 0x8, addend: 0x0, symName: '-[SCLAlertViewShowBuilder setParameterViewController:]', symObjAddr: 0xAC08, symBinAddr: 0x1DE10, symSize: 0x14 }
  - { offset: 0xA0977, size: 0x8, addend: 0x0, symName: '-[SCLAlertViewShowBuilder setParameterViewController:]', symObjAddr: 0xAC08, symBinAddr: 0x1DE10, symSize: 0x14 }
  - { offset: 0xA097F, size: 0x8, addend: 0x0, symName: '-[SCLAlertViewShowBuilder parameterImage]', symObjAddr: 0xAC1C, symBinAddr: 0x1DE24, symSize: 0x10 }
  - { offset: 0xA09C1, size: 0x8, addend: 0x0, symName: '-[SCLAlertViewShowBuilder parameterImage]', symObjAddr: 0xAC1C, symBinAddr: 0x1DE24, symSize: 0x10 }
  - { offset: 0xA09C9, size: 0x8, addend: 0x0, symName: '-[SCLAlertViewShowBuilder setParameterImage:]', symObjAddr: 0xAC2C, symBinAddr: 0x1DE34, symSize: 0xC }
  - { offset: 0xA0A01, size: 0x8, addend: 0x0, symName: '-[SCLAlertViewShowBuilder setParameterImage:]', symObjAddr: 0xAC2C, symBinAddr: 0x1DE34, symSize: 0xC }
  - { offset: 0xA0A09, size: 0x8, addend: 0x0, symName: '-[SCLAlertViewShowBuilder parameterColor]', symObjAddr: 0xAC38, symBinAddr: 0x1DE40, symSize: 0x10 }
  - { offset: 0xA0A49, size: 0x8, addend: 0x0, symName: '-[SCLAlertViewShowBuilder parameterColor]', symObjAddr: 0xAC38, symBinAddr: 0x1DE40, symSize: 0x10 }
  - { offset: 0xA0A51, size: 0x8, addend: 0x0, symName: '-[SCLAlertViewShowBuilder setParameterColor:]', symObjAddr: 0xAC48, symBinAddr: 0x1DE50, symSize: 0xC }
  - { offset: 0xA0A89, size: 0x8, addend: 0x0, symName: '-[SCLAlertViewShowBuilder setParameterColor:]', symObjAddr: 0xAC48, symBinAddr: 0x1DE50, symSize: 0xC }
  - { offset: 0xA0A91, size: 0x8, addend: 0x0, symName: '-[SCLAlertViewShowBuilder parameterTitle]', symObjAddr: 0xAC54, symBinAddr: 0x1DE5C, symSize: 0x10 }
  - { offset: 0xA0AD1, size: 0x8, addend: 0x0, symName: '-[SCLAlertViewShowBuilder parameterTitle]', symObjAddr: 0xAC54, symBinAddr: 0x1DE5C, symSize: 0x10 }
  - { offset: 0xA0AD9, size: 0x8, addend: 0x0, symName: '-[SCLAlertViewShowBuilder setParameterTitle:]', symObjAddr: 0xAC64, symBinAddr: 0x1DE6C, symSize: 0xC }
  - { offset: 0xA0B11, size: 0x8, addend: 0x0, symName: '-[SCLAlertViewShowBuilder setParameterTitle:]', symObjAddr: 0xAC64, symBinAddr: 0x1DE6C, symSize: 0xC }
  - { offset: 0xA0B19, size: 0x8, addend: 0x0, symName: '-[SCLAlertViewShowBuilder parameterSubTitle]', symObjAddr: 0xAC70, symBinAddr: 0x1DE78, symSize: 0x10 }
  - { offset: 0xA0B59, size: 0x8, addend: 0x0, symName: '-[SCLAlertViewShowBuilder parameterSubTitle]', symObjAddr: 0xAC70, symBinAddr: 0x1DE78, symSize: 0x10 }
  - { offset: 0xA0B61, size: 0x8, addend: 0x0, symName: '-[SCLAlertViewShowBuilder setParameterSubTitle:]', symObjAddr: 0xAC80, symBinAddr: 0x1DE88, symSize: 0xC }
  - { offset: 0xA0B99, size: 0x8, addend: 0x0, symName: '-[SCLAlertViewShowBuilder setParameterSubTitle:]', symObjAddr: 0xAC80, symBinAddr: 0x1DE88, symSize: 0xC }
  - { offset: 0xA0BA1, size: 0x8, addend: 0x0, symName: '-[SCLAlertViewShowBuilder parameterCompleteText]', symObjAddr: 0xAC8C, symBinAddr: 0x1DE94, symSize: 0x10 }
  - { offset: 0xA0BE1, size: 0x8, addend: 0x0, symName: '-[SCLAlertViewShowBuilder parameterCompleteText]', symObjAddr: 0xAC8C, symBinAddr: 0x1DE94, symSize: 0x10 }
  - { offset: 0xA0BE9, size: 0x8, addend: 0x0, symName: '-[SCLAlertViewShowBuilder setParameterCompleteText:]', symObjAddr: 0xAC9C, symBinAddr: 0x1DEA4, symSize: 0xC }
  - { offset: 0xA0C21, size: 0x8, addend: 0x0, symName: '-[SCLAlertViewShowBuilder setParameterCompleteText:]', symObjAddr: 0xAC9C, symBinAddr: 0x1DEA4, symSize: 0xC }
  - { offset: 0xA0C29, size: 0x8, addend: 0x0, symName: '-[SCLAlertViewShowBuilder parameterCloseButtonTitle]', symObjAddr: 0xACA8, symBinAddr: 0x1DEB0, symSize: 0x10 }
  - { offset: 0xA0C69, size: 0x8, addend: 0x0, symName: '-[SCLAlertViewShowBuilder parameterCloseButtonTitle]', symObjAddr: 0xACA8, symBinAddr: 0x1DEB0, symSize: 0x10 }
  - { offset: 0xA0C71, size: 0x8, addend: 0x0, symName: '-[SCLAlertViewShowBuilder setParameterCloseButtonTitle:]', symObjAddr: 0xACB8, symBinAddr: 0x1DEC0, symSize: 0xC }
  - { offset: 0xA0CA9, size: 0x8, addend: 0x0, symName: '-[SCLAlertViewShowBuilder setParameterCloseButtonTitle:]', symObjAddr: 0xACB8, symBinAddr: 0x1DEC0, symSize: 0xC }
  - { offset: 0xA0CB1, size: 0x8, addend: 0x0, symName: '-[SCLAlertViewShowBuilder parameterStyle]', symObjAddr: 0xACC4, symBinAddr: 0x1DECC, symSize: 0x10 }
  - { offset: 0xA0CF1, size: 0x8, addend: 0x0, symName: '-[SCLAlertViewShowBuilder parameterStyle]', symObjAddr: 0xACC4, symBinAddr: 0x1DECC, symSize: 0x10 }
  - { offset: 0xA0CF9, size: 0x8, addend: 0x0, symName: '-[SCLAlertViewShowBuilder setParameterStyle:]', symObjAddr: 0xACD4, symBinAddr: 0x1DEDC, symSize: 0x10 }
  - { offset: 0xA0D31, size: 0x8, addend: 0x0, symName: '-[SCLAlertViewShowBuilder setParameterStyle:]', symObjAddr: 0xACD4, symBinAddr: 0x1DEDC, symSize: 0x10 }
  - { offset: 0xA0D39, size: 0x8, addend: 0x0, symName: '-[SCLAlertViewShowBuilder parameterDuration]', symObjAddr: 0xACE4, symBinAddr: 0x1DEEC, symSize: 0x10 }
  - { offset: 0xA0D77, size: 0x8, addend: 0x0, symName: '-[SCLAlertViewShowBuilder parameterDuration]', symObjAddr: 0xACE4, symBinAddr: 0x1DEEC, symSize: 0x10 }
  - { offset: 0xA0D7F, size: 0x8, addend: 0x0, symName: '-[SCLAlertViewShowBuilder setParameterDuration:]', symObjAddr: 0xACF4, symBinAddr: 0x1DEFC, symSize: 0x10 }
  - { offset: 0xA0DB5, size: 0x8, addend: 0x0, symName: '-[SCLAlertViewShowBuilder setParameterDuration:]', symObjAddr: 0xACF4, symBinAddr: 0x1DEFC, symSize: 0x10 }
  - { offset: 0xA0DBD, size: 0x8, addend: 0x0, symName: '-[SCLAlertViewShowBuilder viewController]', symObjAddr: 0xAD04, symBinAddr: 0x1DF0C, symSize: 0x10 }
  - { offset: 0xA0DFC, size: 0x8, addend: 0x0, symName: '-[SCLAlertViewShowBuilder viewController]', symObjAddr: 0xAD04, symBinAddr: 0x1DF0C, symSize: 0x10 }
  - { offset: 0xA0E04, size: 0x8, addend: 0x0, symName: '-[SCLAlertViewShowBuilder setViewController:]', symObjAddr: 0xAD14, symBinAddr: 0x1DF1C, symSize: 0xC }
  - { offset: 0xA0E3C, size: 0x8, addend: 0x0, symName: '-[SCLAlertViewShowBuilder setViewController:]', symObjAddr: 0xAD14, symBinAddr: 0x1DF1C, symSize: 0xC }
  - { offset: 0xA0E44, size: 0x8, addend: 0x0, symName: '-[SCLAlertViewShowBuilder image]', symObjAddr: 0xAD20, symBinAddr: 0x1DF28, symSize: 0x10 }
  - { offset: 0xA0E84, size: 0x8, addend: 0x0, symName: '-[SCLAlertViewShowBuilder image]', symObjAddr: 0xAD20, symBinAddr: 0x1DF28, symSize: 0x10 }
  - { offset: 0xA0E8C, size: 0x8, addend: 0x0, symName: '-[SCLAlertViewShowBuilder setImage:]', symObjAddr: 0xAD30, symBinAddr: 0x1DF38, symSize: 0xC }
  - { offset: 0xA0EC4, size: 0x8, addend: 0x0, symName: '-[SCLAlertViewShowBuilder setImage:]', symObjAddr: 0xAD30, symBinAddr: 0x1DF38, symSize: 0xC }
  - { offset: 0xA0ECC, size: 0x8, addend: 0x0, symName: '-[SCLAlertViewShowBuilder color]', symObjAddr: 0xAD3C, symBinAddr: 0x1DF44, symSize: 0x10 }
  - { offset: 0xA0F0C, size: 0x8, addend: 0x0, symName: '-[SCLAlertViewShowBuilder color]', symObjAddr: 0xAD3C, symBinAddr: 0x1DF44, symSize: 0x10 }
  - { offset: 0xA0F14, size: 0x8, addend: 0x0, symName: '-[SCLAlertViewShowBuilder setColor:]', symObjAddr: 0xAD4C, symBinAddr: 0x1DF54, symSize: 0xC }
  - { offset: 0xA0F4C, size: 0x8, addend: 0x0, symName: '-[SCLAlertViewShowBuilder setColor:]', symObjAddr: 0xAD4C, symBinAddr: 0x1DF54, symSize: 0xC }
  - { offset: 0xA0F54, size: 0x8, addend: 0x0, symName: '-[SCLAlertViewShowBuilder title]', symObjAddr: 0xAD58, symBinAddr: 0x1DF60, symSize: 0x10 }
  - { offset: 0xA0F94, size: 0x8, addend: 0x0, symName: '-[SCLAlertViewShowBuilder title]', symObjAddr: 0xAD58, symBinAddr: 0x1DF60, symSize: 0x10 }
  - { offset: 0xA0F9C, size: 0x8, addend: 0x0, symName: '-[SCLAlertViewShowBuilder setTitle:]', symObjAddr: 0xAD68, symBinAddr: 0x1DF70, symSize: 0xC }
  - { offset: 0xA0FD4, size: 0x8, addend: 0x0, symName: '-[SCLAlertViewShowBuilder setTitle:]', symObjAddr: 0xAD68, symBinAddr: 0x1DF70, symSize: 0xC }
  - { offset: 0xA0FDC, size: 0x8, addend: 0x0, symName: '-[SCLAlertViewShowBuilder subTitle]', symObjAddr: 0xAD74, symBinAddr: 0x1DF7C, symSize: 0x10 }
  - { offset: 0xA101C, size: 0x8, addend: 0x0, symName: '-[SCLAlertViewShowBuilder subTitle]', symObjAddr: 0xAD74, symBinAddr: 0x1DF7C, symSize: 0x10 }
  - { offset: 0xA1024, size: 0x8, addend: 0x0, symName: '-[SCLAlertViewShowBuilder setSubTitle:]', symObjAddr: 0xAD84, symBinAddr: 0x1DF8C, symSize: 0xC }
  - { offset: 0xA105C, size: 0x8, addend: 0x0, symName: '-[SCLAlertViewShowBuilder setSubTitle:]', symObjAddr: 0xAD84, symBinAddr: 0x1DF8C, symSize: 0xC }
  - { offset: 0xA1064, size: 0x8, addend: 0x0, symName: '-[SCLAlertViewShowBuilder completeText]', symObjAddr: 0xAD90, symBinAddr: 0x1DF98, symSize: 0x10 }
  - { offset: 0xA10A4, size: 0x8, addend: 0x0, symName: '-[SCLAlertViewShowBuilder completeText]', symObjAddr: 0xAD90, symBinAddr: 0x1DF98, symSize: 0x10 }
  - { offset: 0xA10AC, size: 0x8, addend: 0x0, symName: '-[SCLAlertViewShowBuilder setCompleteText:]', symObjAddr: 0xADA0, symBinAddr: 0x1DFA8, symSize: 0xC }
  - { offset: 0xA10E4, size: 0x8, addend: 0x0, symName: '-[SCLAlertViewShowBuilder setCompleteText:]', symObjAddr: 0xADA0, symBinAddr: 0x1DFA8, symSize: 0xC }
  - { offset: 0xA10EC, size: 0x8, addend: 0x0, symName: '-[SCLAlertViewShowBuilder style]', symObjAddr: 0xADAC, symBinAddr: 0x1DFB4, symSize: 0x10 }
  - { offset: 0xA112C, size: 0x8, addend: 0x0, symName: '-[SCLAlertViewShowBuilder style]', symObjAddr: 0xADAC, symBinAddr: 0x1DFB4, symSize: 0x10 }
  - { offset: 0xA1134, size: 0x8, addend: 0x0, symName: '-[SCLAlertViewShowBuilder setStyle:]', symObjAddr: 0xADBC, symBinAddr: 0x1DFC4, symSize: 0xC }
  - { offset: 0xA116C, size: 0x8, addend: 0x0, symName: '-[SCLAlertViewShowBuilder setStyle:]', symObjAddr: 0xADBC, symBinAddr: 0x1DFC4, symSize: 0xC }
  - { offset: 0xA1174, size: 0x8, addend: 0x0, symName: '-[SCLAlertViewShowBuilder closeButtonTitle]', symObjAddr: 0xADC8, symBinAddr: 0x1DFD0, symSize: 0x10 }
  - { offset: 0xA11B4, size: 0x8, addend: 0x0, symName: '-[SCLAlertViewShowBuilder closeButtonTitle]', symObjAddr: 0xADC8, symBinAddr: 0x1DFD0, symSize: 0x10 }
  - { offset: 0xA11BC, size: 0x8, addend: 0x0, symName: '-[SCLAlertViewShowBuilder setCloseButtonTitle:]', symObjAddr: 0xADD8, symBinAddr: 0x1DFE0, symSize: 0xC }
  - { offset: 0xA11F4, size: 0x8, addend: 0x0, symName: '-[SCLAlertViewShowBuilder setCloseButtonTitle:]', symObjAddr: 0xADD8, symBinAddr: 0x1DFE0, symSize: 0xC }
  - { offset: 0xA11FC, size: 0x8, addend: 0x0, symName: '-[SCLAlertViewShowBuilder duration]', symObjAddr: 0xADE4, symBinAddr: 0x1DFEC, symSize: 0x10 }
  - { offset: 0xA123C, size: 0x8, addend: 0x0, symName: '-[SCLAlertViewShowBuilder duration]', symObjAddr: 0xADE4, symBinAddr: 0x1DFEC, symSize: 0x10 }
  - { offset: 0xA1244, size: 0x8, addend: 0x0, symName: '-[SCLAlertViewShowBuilder setDuration:]', symObjAddr: 0xADF4, symBinAddr: 0x1DFFC, symSize: 0xC }
  - { offset: 0xA127C, size: 0x8, addend: 0x0, symName: '-[SCLAlertViewShowBuilder setDuration:]', symObjAddr: 0xADF4, symBinAddr: 0x1DFFC, symSize: 0xC }
  - { offset: 0xA1284, size: 0x8, addend: 0x0, symName: '-[SCLAlertViewShowBuilder show]', symObjAddr: 0xAE00, symBinAddr: 0x1E008, symSize: 0x10 }
  - { offset: 0xA12C4, size: 0x8, addend: 0x0, symName: '-[SCLAlertViewShowBuilder show]', symObjAddr: 0xAE00, symBinAddr: 0x1E008, symSize: 0x10 }
  - { offset: 0xA12CC, size: 0x8, addend: 0x0, symName: '-[SCLAlertViewShowBuilder setShow:]', symObjAddr: 0xAE10, symBinAddr: 0x1E018, symSize: 0xC }
  - { offset: 0xA1304, size: 0x8, addend: 0x0, symName: '-[SCLAlertViewShowBuilder setShow:]', symObjAddr: 0xAE10, symBinAddr: 0x1E018, symSize: 0xC }
  - { offset: 0xA130C, size: 0x8, addend: 0x0, symName: '-[SCLAlertViewShowBuilder .cxx_destruct]', symObjAddr: 0xAE1C, symBinAddr: 0x1E024, symSize: 0x168 }
  - { offset: 0xA134C, size: 0x8, addend: 0x0, symName: '-[SCLAlertViewShowBuilder .cxx_destruct]', symObjAddr: 0xAE1C, symBinAddr: 0x1E024, symSize: 0x168 }
  - { offset: 0xA5471, size: 0x8, addend: 0x0, symName: '-[SCLAlertViewResponder init:]', symObjAddr: 0x0, symBinAddr: 0x1E18C, symSize: 0x24 }
  - { offset: 0xA953E, size: 0x8, addend: 0x0, symName: '-[SCLAlertViewResponder init:]', symObjAddr: 0x0, symBinAddr: 0x1E18C, symSize: 0x24 }
  - { offset: 0xA9546, size: 0x8, addend: 0x0, symName: '-[SCLAlertViewResponder setTitletitle:]', symObjAddr: 0x24, symBinAddr: 0x1E1B0, symSize: 0x70 }
  - { offset: 0xA958C, size: 0x8, addend: 0x0, symName: '-[SCLAlertViewResponder setTitletitle:]', symObjAddr: 0x24, symBinAddr: 0x1E1B0, symSize: 0x70 }
  - { offset: 0xA9594, size: 0x8, addend: 0x0, symName: '-[SCLAlertViewResponder setSubTitle:]', symObjAddr: 0x94, symBinAddr: 0x1E220, symSize: 0x70 }
  - { offset: 0xA95D6, size: 0x8, addend: 0x0, symName: '-[SCLAlertViewResponder setSubTitle:]', symObjAddr: 0x94, symBinAddr: 0x1E220, symSize: 0x70 }
  - { offset: 0xA95DE, size: 0x8, addend: 0x0, symName: '-[SCLAlertViewResponder close]', symObjAddr: 0x104, symBinAddr: 0x1E290, symSize: 0x30 }
  - { offset: 0xA9620, size: 0x8, addend: 0x0, symName: '-[SCLAlertViewResponder close]', symObjAddr: 0x104, symBinAddr: 0x1E290, symSize: 0x30 }
  - { offset: 0xA9628, size: 0x8, addend: 0x0, symName: '-[SCLAlertViewResponder alertview]', symObjAddr: 0x134, symBinAddr: 0x1E2C0, symSize: 0xC }
  - { offset: 0xA965A, size: 0x8, addend: 0x0, symName: '-[SCLAlertViewResponder alertview]', symObjAddr: 0x134, symBinAddr: 0x1E2C0, symSize: 0xC }
  - { offset: 0xA9662, size: 0x8, addend: 0x0, symName: '-[SCLAlertViewResponder setAlertview:]', symObjAddr: 0x140, symBinAddr: 0x1E2CC, symSize: 0x8 }
  - { offset: 0xA9699, size: 0x8, addend: 0x0, symName: '-[SCLAlertViewResponder setAlertview:]', symObjAddr: 0x140, symBinAddr: 0x1E2CC, symSize: 0x8 }
  - { offset: 0xA96A1, size: 0x8, addend: 0x0, symName: '-[SCLAlertViewResponder .cxx_destruct]', symObjAddr: 0x148, symBinAddr: 0x1E2D4, symSize: 0xC }
  - { offset: 0xA96E0, size: 0x8, addend: 0x0, symName: '-[SCLAlertViewResponder .cxx_destruct]', symObjAddr: 0x148, symBinAddr: 0x1E2D4, symSize: 0xC }
  - { offset: 0xA975B, size: 0x8, addend: 0x0, symName: '+[SCLAlertViewStyleKit initialize]', symObjAddr: 0x0, symBinAddr: 0x1E2E0, symSize: 0x4 }
  - { offset: 0xA9779, size: 0x8, addend: 0x0, symName: _imageOfCheckmark, symObjAddr: 0x63E8, symBinAddr: 0x37A8C0, symSize: 0x0 }
  - { offset: 0xAA567, size: 0x8, addend: 0x0, symName: _imageOfCross, symObjAddr: 0x63F0, symBinAddr: 0x37A8C8, symSize: 0x0 }
  - { offset: 0xAA57D, size: 0x8, addend: 0x0, symName: _imageOfNotice, symObjAddr: 0x63F8, symBinAddr: 0x37A8D0, symSize: 0x0 }
  - { offset: 0xAA593, size: 0x8, addend: 0x0, symName: _imageOfWarning, symObjAddr: 0x6400, symBinAddr: 0x37A8D8, symSize: 0x0 }
  - { offset: 0xAA5A9, size: 0x8, addend: 0x0, symName: _imageOfInfo, symObjAddr: 0x6408, symBinAddr: 0x37A8E0, symSize: 0x0 }
  - { offset: 0xAA5BF, size: 0x8, addend: 0x0, symName: _imageOfEdit, symObjAddr: 0x6410, symBinAddr: 0x37A8E8, symSize: 0x0 }
  - { offset: 0xAA5D5, size: 0x8, addend: 0x0, symName: _imageOfQuestion, symObjAddr: 0x6418, symBinAddr: 0x37A8F0, symSize: 0x0 }
  - { offset: 0xAA615, size: 0x8, addend: 0x0, symName: '+[SCLAlertViewStyleKit initialize]', symObjAddr: 0x0, symBinAddr: 0x1E2E0, symSize: 0x4 }
  - { offset: 0xAA61D, size: 0x8, addend: 0x0, symName: '+[SCLAlertViewStyleKit drawCheckmark]', symObjAddr: 0x4, symBinAddr: 0x1E2E4, symSize: 0x238 }
  - { offset: 0xAA64B, size: 0x8, addend: 0x0, symName: '+[SCLAlertViewStyleKit drawCheckmark]', symObjAddr: 0x4, symBinAddr: 0x1E2E4, symSize: 0x238 }
  - { offset: 0xAA653, size: 0x8, addend: 0x0, symName: '+[SCLAlertViewStyleKit drawCross]', symObjAddr: 0x23C, symBinAddr: 0x1E51C, symSize: 0xCC }
  - { offset: 0xAA691, size: 0x8, addend: 0x0, symName: '+[SCLAlertViewStyleKit drawCross]', symObjAddr: 0x23C, symBinAddr: 0x1E51C, symSize: 0xCC }
  - { offset: 0xAA699, size: 0x8, addend: 0x0, symName: '+[SCLAlertViewStyleKit drawNotice]', symObjAddr: 0x308, symBinAddr: 0x1E5E8, symSize: 0x4EC }
  - { offset: 0xAA6D7, size: 0x8, addend: 0x0, symName: '+[SCLAlertViewStyleKit drawNotice]', symObjAddr: 0x308, symBinAddr: 0x1E5E8, symSize: 0x4EC }
  - { offset: 0xAA6DF, size: 0x8, addend: 0x0, symName: '+[SCLAlertViewStyleKit drawWarning]', symObjAddr: 0x7F4, symBinAddr: 0x1EAD4, symSize: 0x458 }
  - { offset: 0xAA71D, size: 0x8, addend: 0x0, symName: '+[SCLAlertViewStyleKit drawWarning]', symObjAddr: 0x7F4, symBinAddr: 0x1EAD4, symSize: 0x458 }
  - { offset: 0xAA725, size: 0x8, addend: 0x0, symName: '+[SCLAlertViewStyleKit drawInfo]', symObjAddr: 0xC4C, symBinAddr: 0x1EF2C, symSize: 0x2AC }
  - { offset: 0xAA783, size: 0x8, addend: 0x0, symName: '+[SCLAlertViewStyleKit drawInfo]', symObjAddr: 0xC4C, symBinAddr: 0x1EF2C, symSize: 0x2AC }
  - { offset: 0xAA78B, size: 0x8, addend: 0x0, symName: '+[SCLAlertViewStyleKit drawEdit]', symObjAddr: 0xEF8, symBinAddr: 0x1F1D8, symSize: 0x394 }
  - { offset: 0xAA7D9, size: 0x8, addend: 0x0, symName: '+[SCLAlertViewStyleKit drawEdit]', symObjAddr: 0xEF8, symBinAddr: 0x1F1D8, symSize: 0x394 }
  - { offset: 0xAA7E1, size: 0x8, addend: 0x0, symName: '+[SCLAlertViewStyleKit drawQuestion]', symObjAddr: 0x128C, symBinAddr: 0x1F56C, symSize: 0x318 }
  - { offset: 0xAA82F, size: 0x8, addend: 0x0, symName: '+[SCLAlertViewStyleKit drawQuestion]', symObjAddr: 0x128C, symBinAddr: 0x1F56C, symSize: 0x318 }
  - { offset: 0xAA837, size: 0x8, addend: 0x0, symName: '+[SCLAlertViewStyleKit imageOfCheckmark]', symObjAddr: 0x15A4, symBinAddr: 0x1F884, symSize: 0x6C }
  - { offset: 0xAA885, size: 0x8, addend: 0x0, symName: '+[SCLAlertViewStyleKit imageOfCheckmark]', symObjAddr: 0x15A4, symBinAddr: 0x1F884, symSize: 0x6C }
  - { offset: 0xAA88D, size: 0x8, addend: 0x0, symName: '+[SCLAlertViewStyleKit imageOfCross]', symObjAddr: 0x1610, symBinAddr: 0x1F8F0, symSize: 0x6C }
  - { offset: 0xAA8C0, size: 0x8, addend: 0x0, symName: '+[SCLAlertViewStyleKit imageOfCross]', symObjAddr: 0x1610, symBinAddr: 0x1F8F0, symSize: 0x6C }
  - { offset: 0xAA8C8, size: 0x8, addend: 0x0, symName: '+[SCLAlertViewStyleKit imageOfNotice]', symObjAddr: 0x167C, symBinAddr: 0x1F95C, symSize: 0x6C }
  - { offset: 0xAA8FB, size: 0x8, addend: 0x0, symName: '+[SCLAlertViewStyleKit imageOfNotice]', symObjAddr: 0x167C, symBinAddr: 0x1F95C, symSize: 0x6C }
  - { offset: 0xAA903, size: 0x8, addend: 0x0, symName: '+[SCLAlertViewStyleKit imageOfWarning]', symObjAddr: 0x16E8, symBinAddr: 0x1F9C8, symSize: 0x6C }
  - { offset: 0xAA936, size: 0x8, addend: 0x0, symName: '+[SCLAlertViewStyleKit imageOfWarning]', symObjAddr: 0x16E8, symBinAddr: 0x1F9C8, symSize: 0x6C }
  - { offset: 0xAA93E, size: 0x8, addend: 0x0, symName: '+[SCLAlertViewStyleKit imageOfInfo]', symObjAddr: 0x1754, symBinAddr: 0x1FA34, symSize: 0x6C }
  - { offset: 0xAA971, size: 0x8, addend: 0x0, symName: '+[SCLAlertViewStyleKit imageOfInfo]', symObjAddr: 0x1754, symBinAddr: 0x1FA34, symSize: 0x6C }
  - { offset: 0xAA979, size: 0x8, addend: 0x0, symName: '+[SCLAlertViewStyleKit imageOfEdit]', symObjAddr: 0x17C0, symBinAddr: 0x1FAA0, symSize: 0x6C }
  - { offset: 0xAA9AC, size: 0x8, addend: 0x0, symName: '+[SCLAlertViewStyleKit imageOfEdit]', symObjAddr: 0x17C0, symBinAddr: 0x1FAA0, symSize: 0x6C }
  - { offset: 0xAA9B4, size: 0x8, addend: 0x0, symName: '+[SCLAlertViewStyleKit imageOfQuestion]', symObjAddr: 0x182C, symBinAddr: 0x1FB0C, symSize: 0x6C }
  - { offset: 0xAA9E7, size: 0x8, addend: 0x0, symName: '+[SCLAlertViewStyleKit imageOfQuestion]', symObjAddr: 0x182C, symBinAddr: 0x1FB0C, symSize: 0x6C }
  - { offset: 0xAADBB, size: 0x8, addend: 0x0, symName: '-[SCLButton init]', symObjAddr: 0x0, symBinAddr: 0x1FB78, symSize: 0x58 }
  - { offset: 0xAE1CB, size: 0x8, addend: 0x0, symName: '-[SCLButton init]', symObjAddr: 0x0, symBinAddr: 0x1FB78, symSize: 0x58 }
  - { offset: 0xAE1D3, size: 0x8, addend: 0x0, symName: '-[SCLButton initWithWindowWidth:]', symObjAddr: 0x58, symBinAddr: 0x1FBD0, symSize: 0x60 }
  - { offset: 0xAE209, size: 0x8, addend: 0x0, symName: '-[SCLButton initWithWindowWidth:]', symObjAddr: 0x58, symBinAddr: 0x1FBD0, symSize: 0x60 }
  - { offset: 0xAE211, size: 0x8, addend: 0x0, symName: '-[SCLButton initWithCoder:]', symObjAddr: 0xB8, symBinAddr: 0x1FC30, symSize: 0x58 }
  - { offset: 0xAE257, size: 0x8, addend: 0x0, symName: '-[SCLButton initWithCoder:]', symObjAddr: 0xB8, symBinAddr: 0x1FC30, symSize: 0x58 }
  - { offset: 0xAE25F, size: 0x8, addend: 0x0, symName: '-[SCLButton initWithFrame:]', symObjAddr: 0x110, symBinAddr: 0x1FC88, symSize: 0x58 }
  - { offset: 0xAE2A5, size: 0x8, addend: 0x0, symName: '-[SCLButton initWithFrame:]', symObjAddr: 0x110, symBinAddr: 0x1FC88, symSize: 0x58 }
  - { offset: 0xAE2AD, size: 0x8, addend: 0x0, symName: '-[SCLButton setupWithWindowWidth:]', symObjAddr: 0x168, symBinAddr: 0x1FCE0, symSize: 0xA0 }
  - { offset: 0xAE2EF, size: 0x8, addend: 0x0, symName: '-[SCLButton setupWithWindowWidth:]', symObjAddr: 0x168, symBinAddr: 0x1FCE0, symSize: 0xA0 }
  - { offset: 0xAE2F7, size: 0x8, addend: 0x0, symName: '-[SCLButton adjustWidthWithWindowWidth:numberOfButtons:]', symObjAddr: 0x208, symBinAddr: 0x1FD80, symSize: 0x38 }
  - { offset: 0xAE339, size: 0x8, addend: 0x0, symName: '-[SCLButton adjustWidthWithWindowWidth:numberOfButtons:]', symObjAddr: 0x208, symBinAddr: 0x1FD80, symSize: 0x38 }
  - { offset: 0xAE341, size: 0x8, addend: 0x0, symName: '-[SCLButton setTitle:forState:]', symObjAddr: 0x240, symBinAddr: 0x1FDB8, symSize: 0x104 }
  - { offset: 0xAE3AF, size: 0x8, addend: 0x0, symName: '-[SCLButton setTitle:forState:]', symObjAddr: 0x240, symBinAddr: 0x1FDB8, symSize: 0x104 }
  - { offset: 0xAE3B7, size: 0x8, addend: 0x0, symName: '-[SCLButton setHighlighted:]', symObjAddr: 0x344, symBinAddr: 0x1FEBC, symSize: 0x8C }
  - { offset: 0xAE44B, size: 0x8, addend: 0x0, symName: '-[SCLButton setHighlighted:]', symObjAddr: 0x344, symBinAddr: 0x1FEBC, symSize: 0x8C }
  - { offset: 0xAE453, size: 0x8, addend: 0x0, symName: '-[SCLButton setDefaultBackgroundColor:]', symObjAddr: 0x3D0, symBinAddr: 0x1FF48, symSize: 0x50 }
  - { offset: 0xAE491, size: 0x8, addend: 0x0, symName: '-[SCLButton setDefaultBackgroundColor:]', symObjAddr: 0x3D0, symBinAddr: 0x1FF48, symSize: 0x50 }
  - { offset: 0xAE499, size: 0x8, addend: 0x0, symName: '-[SCLButton setTimer:]', symObjAddr: 0x420, symBinAddr: 0x1FF98, symSize: 0xB0 }
  - { offset: 0xAE4DB, size: 0x8, addend: 0x0, symName: '-[SCLButton setTimer:]', symObjAddr: 0x420, symBinAddr: 0x1FF98, symSize: 0xB0 }
  - { offset: 0xAE4E3, size: 0x8, addend: 0x0, symName: '-[SCLButton parseConfig:]', symObjAddr: 0x4D0, symBinAddr: 0x20048, symSize: 0x2E4 }
  - { offset: 0xAE525, size: 0x8, addend: 0x0, symName: '-[SCLButton parseConfig:]', symObjAddr: 0x4D0, symBinAddr: 0x20048, symSize: 0x2E4 }
  - { offset: 0xAE52D, size: 0x8, addend: 0x0, symName: '-[SCLButton darkerColorForColor:]', symObjAddr: 0x7B4, symBinAddr: 0x2032C, symSize: 0x8C }
  - { offset: 0xAE56F, size: 0x8, addend: 0x0, symName: '-[SCLButton darkerColorForColor:]', symObjAddr: 0x7B4, symBinAddr: 0x2032C, symSize: 0x8C }
  - { offset: 0xAE577, size: 0x8, addend: 0x0, symName: '-[SCLButton lighterColorForColor:]', symObjAddr: 0x840, symBinAddr: 0x203B8, symSize: 0x80 }
  - { offset: 0xAE68B, size: 0x8, addend: 0x0, symName: '-[SCLButton lighterColorForColor:]', symObjAddr: 0x840, symBinAddr: 0x203B8, symSize: 0x80 }
  - { offset: 0xAE693, size: 0x8, addend: 0x0, symName: '-[SCLButton actionType]', symObjAddr: 0x8C0, symBinAddr: 0x20438, symSize: 0x10 }
  - { offset: 0xAE7A7, size: 0x8, addend: 0x0, symName: '-[SCLButton actionType]', symObjAddr: 0x8C0, symBinAddr: 0x20438, symSize: 0x10 }
  - { offset: 0xAE7AF, size: 0x8, addend: 0x0, symName: '-[SCLButton setActionType:]', symObjAddr: 0x8D0, symBinAddr: 0x20448, symSize: 0x10 }
  - { offset: 0xAE7E6, size: 0x8, addend: 0x0, symName: '-[SCLButton setActionType:]', symObjAddr: 0x8D0, symBinAddr: 0x20448, symSize: 0x10 }
  - { offset: 0xAE7EE, size: 0x8, addend: 0x0, symName: '-[SCLButton actionBlock]', symObjAddr: 0x8E0, symBinAddr: 0x20458, symSize: 0x10 }
  - { offset: 0xAE82B, size: 0x8, addend: 0x0, symName: '-[SCLButton actionBlock]', symObjAddr: 0x8E0, symBinAddr: 0x20458, symSize: 0x10 }
  - { offset: 0xAE833, size: 0x8, addend: 0x0, symName: '-[SCLButton setActionBlock:]', symObjAddr: 0x8F0, symBinAddr: 0x20468, symSize: 0xC }
  - { offset: 0xAE86A, size: 0x8, addend: 0x0, symName: '-[SCLButton setActionBlock:]', symObjAddr: 0x8F0, symBinAddr: 0x20468, symSize: 0xC }
  - { offset: 0xAE872, size: 0x8, addend: 0x0, symName: '-[SCLButton validationBlock]', symObjAddr: 0x8FC, symBinAddr: 0x20474, symSize: 0x10 }
  - { offset: 0xAE8B1, size: 0x8, addend: 0x0, symName: '-[SCLButton validationBlock]', symObjAddr: 0x8FC, symBinAddr: 0x20474, symSize: 0x10 }
  - { offset: 0xAE8B9, size: 0x8, addend: 0x0, symName: '-[SCLButton setValidationBlock:]', symObjAddr: 0x90C, symBinAddr: 0x20484, symSize: 0xC }
  - { offset: 0xAE8F0, size: 0x8, addend: 0x0, symName: '-[SCLButton setValidationBlock:]', symObjAddr: 0x90C, symBinAddr: 0x20484, symSize: 0xC }
  - { offset: 0xAE8F8, size: 0x8, addend: 0x0, symName: '-[SCLButton completeButtonFormatBlock]', symObjAddr: 0x918, symBinAddr: 0x20490, symSize: 0x10 }
  - { offset: 0xAE937, size: 0x8, addend: 0x0, symName: '-[SCLButton completeButtonFormatBlock]', symObjAddr: 0x918, symBinAddr: 0x20490, symSize: 0x10 }
  - { offset: 0xAE93F, size: 0x8, addend: 0x0, symName: '-[SCLButton setCompleteButtonFormatBlock:]', symObjAddr: 0x928, symBinAddr: 0x204A0, symSize: 0xC }
  - { offset: 0xAE976, size: 0x8, addend: 0x0, symName: '-[SCLButton setCompleteButtonFormatBlock:]', symObjAddr: 0x928, symBinAddr: 0x204A0, symSize: 0xC }
  - { offset: 0xAE97E, size: 0x8, addend: 0x0, symName: '-[SCLButton buttonFormatBlock]', symObjAddr: 0x934, symBinAddr: 0x204AC, symSize: 0x10 }
  - { offset: 0xAE9BD, size: 0x8, addend: 0x0, symName: '-[SCLButton buttonFormatBlock]', symObjAddr: 0x934, symBinAddr: 0x204AC, symSize: 0x10 }
  - { offset: 0xAE9C5, size: 0x8, addend: 0x0, symName: '-[SCLButton setButtonFormatBlock:]', symObjAddr: 0x944, symBinAddr: 0x204BC, symSize: 0xC }
  - { offset: 0xAE9FC, size: 0x8, addend: 0x0, symName: '-[SCLButton setButtonFormatBlock:]', symObjAddr: 0x944, symBinAddr: 0x204BC, symSize: 0xC }
  - { offset: 0xAEA04, size: 0x8, addend: 0x0, symName: '-[SCLButton defaultBackgroundColor]', symObjAddr: 0x950, symBinAddr: 0x204C8, symSize: 0x10 }
  - { offset: 0xAEA43, size: 0x8, addend: 0x0, symName: '-[SCLButton defaultBackgroundColor]', symObjAddr: 0x950, symBinAddr: 0x204C8, symSize: 0x10 }
  - { offset: 0xAEA4B, size: 0x8, addend: 0x0, symName: '-[SCLButton target]', symObjAddr: 0x960, symBinAddr: 0x204D8, symSize: 0x10 }
  - { offset: 0xAEA82, size: 0x8, addend: 0x0, symName: '-[SCLButton target]', symObjAddr: 0x960, symBinAddr: 0x204D8, symSize: 0x10 }
  - { offset: 0xAEA8A, size: 0x8, addend: 0x0, symName: '-[SCLButton setTarget:]', symObjAddr: 0x970, symBinAddr: 0x204E8, symSize: 0xC }
  - { offset: 0xAEAC1, size: 0x8, addend: 0x0, symName: '-[SCLButton setTarget:]', symObjAddr: 0x970, symBinAddr: 0x204E8, symSize: 0xC }
  - { offset: 0xAEAC9, size: 0x8, addend: 0x0, symName: '-[SCLButton selector]', symObjAddr: 0x97C, symBinAddr: 0x204F4, symSize: 0x10 }
  - { offset: 0xAEB08, size: 0x8, addend: 0x0, symName: '-[SCLButton selector]', symObjAddr: 0x97C, symBinAddr: 0x204F4, symSize: 0x10 }
  - { offset: 0xAEB10, size: 0x8, addend: 0x0, symName: '-[SCLButton setSelector:]', symObjAddr: 0x98C, symBinAddr: 0x20504, symSize: 0x10 }
  - { offset: 0xAEB47, size: 0x8, addend: 0x0, symName: '-[SCLButton setSelector:]', symObjAddr: 0x98C, symBinAddr: 0x20504, symSize: 0x10 }
  - { offset: 0xAEB4F, size: 0x8, addend: 0x0, symName: '-[SCLButton timer]', symObjAddr: 0x99C, symBinAddr: 0x20514, symSize: 0x10 }
  - { offset: 0xAEB8C, size: 0x8, addend: 0x0, symName: '-[SCLButton timer]', symObjAddr: 0x99C, symBinAddr: 0x20514, symSize: 0x10 }
  - { offset: 0xAEB94, size: 0x8, addend: 0x0, symName: '-[SCLButton .cxx_destruct]', symObjAddr: 0x9AC, symBinAddr: 0x20524, symSize: 0xA4 }
  - { offset: 0xAEBCB, size: 0x8, addend: 0x0, symName: '-[SCLButton .cxx_destruct]', symObjAddr: 0x9AC, symBinAddr: 0x20524, symSize: 0xA4 }
  - { offset: 0xAEC54, size: 0x8, addend: 0x0, symName: '-[SCLSwitchView init]', symObjAddr: 0x0, symBinAddr: 0x205C8, symSize: 0x50 }
  - { offset: 0xB0DD8, size: 0x8, addend: 0x0, symName: '-[SCLSwitchView init]', symObjAddr: 0x0, symBinAddr: 0x205C8, symSize: 0x50 }
  - { offset: 0xB0DE0, size: 0x8, addend: 0x0, symName: '-[SCLSwitchView initWithCoder:]', symObjAddr: 0x50, symBinAddr: 0x20618, symSize: 0x50 }
  - { offset: 0xB0E16, size: 0x8, addend: 0x0, symName: '-[SCLSwitchView initWithCoder:]', symObjAddr: 0x50, symBinAddr: 0x20618, symSize: 0x50 }
  - { offset: 0xB0E1E, size: 0x8, addend: 0x0, symName: '-[SCLSwitchView initWithFrame:]', symObjAddr: 0xA0, symBinAddr: 0x20668, symSize: 0x50 }
  - { offset: 0xB0E64, size: 0x8, addend: 0x0, symName: '-[SCLSwitchView initWithFrame:]', symObjAddr: 0xA0, symBinAddr: 0x20668, symSize: 0x50 }
  - { offset: 0xB0E6C, size: 0x8, addend: 0x0, symName: '-[SCLSwitchView setup]', symObjAddr: 0xF0, symBinAddr: 0x206B8, symSize: 0x2F4 }
  - { offset: 0xB0EAE, size: 0x8, addend: 0x0, symName: '-[SCLSwitchView setup]', symObjAddr: 0xF0, symBinAddr: 0x206B8, symSize: 0x2F4 }
  - { offset: 0xB0EB6, size: 0x8, addend: 0x0, symName: '-[SCLSwitchView tintColor]', symObjAddr: 0x3E4, symBinAddr: 0x209AC, symSize: 0x44 }
  - { offset: 0xB0F38, size: 0x8, addend: 0x0, symName: '-[SCLSwitchView tintColor]', symObjAddr: 0x3E4, symBinAddr: 0x209AC, symSize: 0x44 }
  - { offset: 0xB0F40, size: 0x8, addend: 0x0, symName: '-[SCLSwitchView labelColor]', symObjAddr: 0x428, symBinAddr: 0x209F0, symSize: 0x44 }
  - { offset: 0xB0F76, size: 0x8, addend: 0x0, symName: '-[SCLSwitchView labelColor]', symObjAddr: 0x428, symBinAddr: 0x209F0, symSize: 0x44 }
  - { offset: 0xB0F7E, size: 0x8, addend: 0x0, symName: '-[SCLSwitchView labelFont]', symObjAddr: 0x46C, symBinAddr: 0x20A34, symSize: 0x44 }
  - { offset: 0xB0FB4, size: 0x8, addend: 0x0, symName: '-[SCLSwitchView labelFont]', symObjAddr: 0x46C, symBinAddr: 0x20A34, symSize: 0x44 }
  - { offset: 0xB0FBC, size: 0x8, addend: 0x0, symName: '-[SCLSwitchView labelText]', symObjAddr: 0x4B0, symBinAddr: 0x20A78, symSize: 0x44 }
  - { offset: 0xB0FF2, size: 0x8, addend: 0x0, symName: '-[SCLSwitchView labelText]', symObjAddr: 0x4B0, symBinAddr: 0x20A78, symSize: 0x44 }
  - { offset: 0xB0FFA, size: 0x8, addend: 0x0, symName: '-[SCLSwitchView isSelected]', symObjAddr: 0x4F4, symBinAddr: 0x20ABC, symSize: 0x3C }
  - { offset: 0xB1030, size: 0x8, addend: 0x0, symName: '-[SCLSwitchView isSelected]', symObjAddr: 0x4F4, symBinAddr: 0x20ABC, symSize: 0x3C }
  - { offset: 0xB1038, size: 0x8, addend: 0x0, symName: '-[SCLSwitchView setTintColor:]', symObjAddr: 0x530, symBinAddr: 0x20AF8, symSize: 0x50 }
  - { offset: 0xB106E, size: 0x8, addend: 0x0, symName: '-[SCLSwitchView setTintColor:]', symObjAddr: 0x530, symBinAddr: 0x20AF8, symSize: 0x50 }
  - { offset: 0xB1076, size: 0x8, addend: 0x0, symName: '-[SCLSwitchView setLabelColor:]', symObjAddr: 0x580, symBinAddr: 0x20B48, symSize: 0x50 }
  - { offset: 0xB10B8, size: 0x8, addend: 0x0, symName: '-[SCLSwitchView setLabelColor:]', symObjAddr: 0x580, symBinAddr: 0x20B48, symSize: 0x50 }
  - { offset: 0xB10C0, size: 0x8, addend: 0x0, symName: '-[SCLSwitchView setLabelFont:]', symObjAddr: 0x5D0, symBinAddr: 0x20B98, symSize: 0x50 }
  - { offset: 0xB1102, size: 0x8, addend: 0x0, symName: '-[SCLSwitchView setLabelFont:]', symObjAddr: 0x5D0, symBinAddr: 0x20B98, symSize: 0x50 }
  - { offset: 0xB110A, size: 0x8, addend: 0x0, symName: '-[SCLSwitchView setLabelText:]', symObjAddr: 0x620, symBinAddr: 0x20BE8, symSize: 0x50 }
  - { offset: 0xB114C, size: 0x8, addend: 0x0, symName: '-[SCLSwitchView setLabelText:]', symObjAddr: 0x620, symBinAddr: 0x20BE8, symSize: 0x50 }
  - { offset: 0xB1154, size: 0x8, addend: 0x0, symName: '-[SCLSwitchView setSelected:]', symObjAddr: 0x670, symBinAddr: 0x20C38, symSize: 0x38 }
  - { offset: 0xB1196, size: 0x8, addend: 0x0, symName: '-[SCLSwitchView setSelected:]', symObjAddr: 0x670, symBinAddr: 0x20C38, symSize: 0x38 }
  - { offset: 0xB119E, size: 0x8, addend: 0x0, symName: '-[SCLSwitchView switchKnob]', symObjAddr: 0x6A8, symBinAddr: 0x20C70, symSize: 0x10 }
  - { offset: 0xB11DC, size: 0x8, addend: 0x0, symName: '-[SCLSwitchView switchKnob]', symObjAddr: 0x6A8, symBinAddr: 0x20C70, symSize: 0x10 }
  - { offset: 0xB11E4, size: 0x8, addend: 0x0, symName: '-[SCLSwitchView setSwitchKnob:]', symObjAddr: 0x6B8, symBinAddr: 0x20C80, symSize: 0x14 }
  - { offset: 0xB121B, size: 0x8, addend: 0x0, symName: '-[SCLSwitchView setSwitchKnob:]', symObjAddr: 0x6B8, symBinAddr: 0x20C80, symSize: 0x14 }
  - { offset: 0xB1223, size: 0x8, addend: 0x0, symName: '-[SCLSwitchView switchLabel]', symObjAddr: 0x6CC, symBinAddr: 0x20C94, symSize: 0x10 }
  - { offset: 0xB1264, size: 0x8, addend: 0x0, symName: '-[SCLSwitchView switchLabel]', symObjAddr: 0x6CC, symBinAddr: 0x20C94, symSize: 0x10 }
  - { offset: 0xB126C, size: 0x8, addend: 0x0, symName: '-[SCLSwitchView setSwitchLabel:]', symObjAddr: 0x6DC, symBinAddr: 0x20CA4, symSize: 0x14 }
  - { offset: 0xB12A3, size: 0x8, addend: 0x0, symName: '-[SCLSwitchView setSwitchLabel:]', symObjAddr: 0x6DC, symBinAddr: 0x20CA4, symSize: 0x14 }
  - { offset: 0xB12AB, size: 0x8, addend: 0x0, symName: '-[SCLSwitchView .cxx_destruct]', symObjAddr: 0x6F0, symBinAddr: 0x20CB8, symSize: 0x40 }
  - { offset: 0xB12EC, size: 0x8, addend: 0x0, symName: '-[SCLSwitchView .cxx_destruct]', symObjAddr: 0x6F0, symBinAddr: 0x20CB8, symSize: 0x40 }
  - { offset: 0xB138B, size: 0x8, addend: 0x0, symName: '-[SCLTextView init]', symObjAddr: 0x0, symBinAddr: 0x20CF8, symSize: 0x50 }
  - { offset: 0xB3391, size: 0x8, addend: 0x0, symName: '-[SCLTextView init]', symObjAddr: 0x0, symBinAddr: 0x20CF8, symSize: 0x50 }
  - { offset: 0xB3399, size: 0x8, addend: 0x0, symName: '-[SCLTextView initWithCoder:]', symObjAddr: 0x50, symBinAddr: 0x20D48, symSize: 0x50 }
  - { offset: 0xB33CF, size: 0x8, addend: 0x0, symName: '-[SCLTextView initWithCoder:]', symObjAddr: 0x50, symBinAddr: 0x20D48, symSize: 0x50 }
  - { offset: 0xB33D7, size: 0x8, addend: 0x0, symName: '-[SCLTextView initWithFrame:]', symObjAddr: 0xA0, symBinAddr: 0x20D98, symSize: 0x50 }
  - { offset: 0xB341D, size: 0x8, addend: 0x0, symName: '-[SCLTextView initWithFrame:]', symObjAddr: 0xA0, symBinAddr: 0x20D98, symSize: 0x50 }
  - { offset: 0xB3425, size: 0x8, addend: 0x0, symName: '-[SCLTextView setup]', symObjAddr: 0xF0, symBinAddr: 0x20DE8, symSize: 0xA4 }
  - { offset: 0xB3467, size: 0x8, addend: 0x0, symName: '-[SCLTextView setup]', symObjAddr: 0xF0, symBinAddr: 0x20DE8, symSize: 0xA4 }
  - { offset: 0xB3505, size: 0x8, addend: 0x0, symName: '-[SCLTimerDisplay initWithFrame:]', symObjAddr: 0x0, symBinAddr: 0x20E8C, symSize: 0x80 }
  - { offset: 0xB4864, size: 0x8, addend: 0x0, symName: '-[SCLTimerDisplay initWithFrame:]', symObjAddr: 0x0, symBinAddr: 0x20E8C, symSize: 0x80 }
  - { offset: 0xB486C, size: 0x8, addend: 0x0, symName: '-[SCLTimerDisplay initWithOrigin:radius:]', symObjAddr: 0x80, symBinAddr: 0x20F0C, symSize: 0x8 }
  - { offset: 0xB48AE, size: 0x8, addend: 0x0, symName: '-[SCLTimerDisplay initWithOrigin:radius:]', symObjAddr: 0x80, symBinAddr: 0x20F0C, symSize: 0x8 }
  - { offset: 0xB48B6, size: 0x8, addend: 0x0, symName: '-[SCLTimerDisplay initWithOrigin:radius:lineWidth:]', symObjAddr: 0x88, symBinAddr: 0x20F14, symSize: 0x1D4 }
  - { offset: 0xB4904, size: 0x8, addend: 0x0, symName: '-[SCLTimerDisplay initWithOrigin:radius:lineWidth:]', symObjAddr: 0x88, symBinAddr: 0x20F14, symSize: 0x1D4 }
  - { offset: 0xB490C, size: 0x8, addend: 0x0, symName: '-[SCLTimerDisplay updateFrame:]', symObjAddr: 0x25C, symBinAddr: 0x210E8, symSize: 0x9C }
  - { offset: 0xB4972, size: 0x8, addend: 0x0, symName: '-[SCLTimerDisplay updateFrame:]', symObjAddr: 0x25C, symBinAddr: 0x210E8, symSize: 0x9C }
  - { offset: 0xB497A, size: 0x8, addend: 0x0, symName: '-[SCLTimerDisplay drawRect:]', symObjAddr: 0x2F8, symBinAddr: 0x21184, symSize: 0x124 }
  - { offset: 0xB49EC, size: 0x8, addend: 0x0, symName: '-[SCLTimerDisplay drawRect:]', symObjAddr: 0x2F8, symBinAddr: 0x21184, symSize: 0x124 }
  - { offset: 0xB49F4, size: 0x8, addend: 0x0, symName: '-[SCLTimerDisplay startTimerWithTimeLimit:completed:]', symObjAddr: 0x41C, symBinAddr: 0x212A8, symSize: 0xEC }
  - { offset: 0xB4A42, size: 0x8, addend: 0x0, symName: '-[SCLTimerDisplay startTimerWithTimeLimit:completed:]', symObjAddr: 0x41C, symBinAddr: 0x212A8, symSize: 0xEC }
  - { offset: 0xB4A4A, size: 0x8, addend: 0x0, symName: '-[SCLTimerDisplay cancelTimer]', symObjAddr: 0x508, symBinAddr: 0x21394, symSize: 0x10 }
  - { offset: 0xB4A9C, size: 0x8, addend: 0x0, symName: '-[SCLTimerDisplay cancelTimer]', symObjAddr: 0x508, symBinAddr: 0x21394, symSize: 0x10 }
  - { offset: 0xB4AA4, size: 0x8, addend: 0x0, symName: '-[SCLTimerDisplay stopTimer]', symObjAddr: 0x518, symBinAddr: 0x213A4, symSize: 0x4C }
  - { offset: 0xB4AD6, size: 0x8, addend: 0x0, symName: '-[SCLTimerDisplay stopTimer]', symObjAddr: 0x518, symBinAddr: 0x213A4, symSize: 0x4C }
  - { offset: 0xB4ADE, size: 0x8, addend: 0x0, symName: '-[SCLTimerDisplay updateTimerButton:]', symObjAddr: 0x564, symBinAddr: 0x213F0, symSize: 0xF8 }
  - { offset: 0xB4B10, size: 0x8, addend: 0x0, symName: '-[SCLTimerDisplay updateTimerButton:]', symObjAddr: 0x564, symBinAddr: 0x213F0, symSize: 0xF8 }
  - { offset: 0xB4B18, size: 0x8, addend: 0x0, symName: '-[SCLTimerDisplay currentAngle]', symObjAddr: 0x65C, symBinAddr: 0x214E8, symSize: 0x10 }
  - { offset: 0xB4B5A, size: 0x8, addend: 0x0, symName: '-[SCLTimerDisplay currentAngle]', symObjAddr: 0x65C, symBinAddr: 0x214E8, symSize: 0x10 }
  - { offset: 0xB4B62, size: 0x8, addend: 0x0, symName: '-[SCLTimerDisplay setCurrentAngle:]', symObjAddr: 0x66C, symBinAddr: 0x214F8, symSize: 0x10 }
  - { offset: 0xB4B97, size: 0x8, addend: 0x0, symName: '-[SCLTimerDisplay setCurrentAngle:]', symObjAddr: 0x66C, symBinAddr: 0x214F8, symSize: 0x10 }
  - { offset: 0xB4B9F, size: 0x8, addend: 0x0, symName: '-[SCLTimerDisplay buttonIndex]', symObjAddr: 0x67C, symBinAddr: 0x21508, symSize: 0x10 }
  - { offset: 0xB4BDD, size: 0x8, addend: 0x0, symName: '-[SCLTimerDisplay buttonIndex]', symObjAddr: 0x67C, symBinAddr: 0x21508, symSize: 0x10 }
  - { offset: 0xB4BE5, size: 0x8, addend: 0x0, symName: '-[SCLTimerDisplay setButtonIndex:]', symObjAddr: 0x68C, symBinAddr: 0x21518, symSize: 0x10 }
  - { offset: 0xB4C1C, size: 0x8, addend: 0x0, symName: '-[SCLTimerDisplay setButtonIndex:]', symObjAddr: 0x68C, symBinAddr: 0x21518, symSize: 0x10 }
  - { offset: 0xB4C24, size: 0x8, addend: 0x0, symName: '-[SCLTimerDisplay color]', symObjAddr: 0x69C, symBinAddr: 0x21528, symSize: 0x10 }
  - { offset: 0xB4C61, size: 0x8, addend: 0x0, symName: '-[SCLTimerDisplay color]', symObjAddr: 0x69C, symBinAddr: 0x21528, symSize: 0x10 }
  - { offset: 0xB4C69, size: 0x8, addend: 0x0, symName: '-[SCLTimerDisplay setColor:]', symObjAddr: 0x6AC, symBinAddr: 0x21538, symSize: 0x14 }
  - { offset: 0xB4CA0, size: 0x8, addend: 0x0, symName: '-[SCLTimerDisplay setColor:]', symObjAddr: 0x6AC, symBinAddr: 0x21538, symSize: 0x14 }
  - { offset: 0xB4CA8, size: 0x8, addend: 0x0, symName: '-[SCLTimerDisplay reverse]', symObjAddr: 0x6C0, symBinAddr: 0x2154C, symSize: 0x10 }
  - { offset: 0xB4CE9, size: 0x8, addend: 0x0, symName: '-[SCLTimerDisplay reverse]', symObjAddr: 0x6C0, symBinAddr: 0x2154C, symSize: 0x10 }
  - { offset: 0xB4CF1, size: 0x8, addend: 0x0, symName: '-[SCLTimerDisplay setReverse:]', symObjAddr: 0x6D0, symBinAddr: 0x2155C, symSize: 0x10 }
  - { offset: 0xB4D28, size: 0x8, addend: 0x0, symName: '-[SCLTimerDisplay setReverse:]', symObjAddr: 0x6D0, symBinAddr: 0x2155C, symSize: 0x10 }
  - { offset: 0xB4D30, size: 0x8, addend: 0x0, symName: '-[SCLTimerDisplay countLabel]', symObjAddr: 0x6E0, symBinAddr: 0x2156C, symSize: 0x10 }
  - { offset: 0xB4D6B, size: 0x8, addend: 0x0, symName: '-[SCLTimerDisplay countLabel]', symObjAddr: 0x6E0, symBinAddr: 0x2156C, symSize: 0x10 }
  - { offset: 0xB4D73, size: 0x8, addend: 0x0, symName: '-[SCLTimerDisplay setCountLabel:]', symObjAddr: 0x6F0, symBinAddr: 0x2157C, symSize: 0x14 }
  - { offset: 0xB4DAA, size: 0x8, addend: 0x0, symName: '-[SCLTimerDisplay setCountLabel:]', symObjAddr: 0x6F0, symBinAddr: 0x2157C, symSize: 0x14 }
  - { offset: 0xB4DB2, size: 0x8, addend: 0x0, symName: '-[SCLTimerDisplay .cxx_destruct]', symObjAddr: 0x704, symBinAddr: 0x21590, symSize: 0x68 }
  - { offset: 0xB4DF3, size: 0x8, addend: 0x0, symName: '-[SCLTimerDisplay .cxx_destruct]', symObjAddr: 0x704, symBinAddr: 0x21590, symSize: 0x68 }
  - { offset: 0xB4F38, size: 0x8, addend: 0x0, symName: '-[UIImage(ImageEffects) applyLightEffect]', symObjAddr: 0x0, symBinAddr: 0x215F8, symSize: 0x74 }
  - { offset: 0xB4F4A, size: 0x8, addend: 0x0, symName: '-[UIImage(ImageEffects) applyTintEffectWithColor:]', symObjAddr: 0x164, symBinAddr: 0x2175C, symSize: 0x110 }
  - { offset: 0xB4F52, size: 0x8, addend: 0x0, symName: '-[UIImage(ImageEffects) applyBlurWithRadius:tintColor:saturationDeltaFactor:maskImage:]', symObjAddr: 0x274, symBinAddr: 0x2186C, symSize: 0x720 }
  - { offset: 0xB504F, size: 0x8, addend: 0x0, symName: '-[UIImage(ImageEffects) applyBlurWithRadius:tintColor:saturationDeltaFactor:maskImage:]', symObjAddr: 0x274, symBinAddr: 0x2186C, symSize: 0x720 }
  - { offset: 0xB5057, size: 0x8, addend: 0x0, symName: '+[UIImage(ImageEffects) imageWithColor:]', symObjAddr: 0x994, symBinAddr: 0x21F8C, symSize: 0x98 }
  - { offset: 0xB56DE, size: 0x8, addend: 0x0, symName: '-[UIImage(ImageEffects) applyLightEffect]', symObjAddr: 0x0, symBinAddr: 0x215F8, symSize: 0x74 }
  - { offset: 0xB56E6, size: 0x8, addend: 0x0, symName: '-[UIImage(ImageEffects) applyExtraLightEffect]', symObjAddr: 0x74, symBinAddr: 0x2166C, symSize: 0x78 }
  - { offset: 0xB572C, size: 0x8, addend: 0x0, symName: '-[UIImage(ImageEffects) applyExtraLightEffect]', symObjAddr: 0x74, symBinAddr: 0x2166C, symSize: 0x78 }
  - { offset: 0xB5734, size: 0x8, addend: 0x0, symName: '-[UIImage(ImageEffects) applyDarkEffect]', symObjAddr: 0xEC, symBinAddr: 0x216E4, symSize: 0x78 }
  - { offset: 0xB577A, size: 0x8, addend: 0x0, symName: '-[UIImage(ImageEffects) applyDarkEffect]', symObjAddr: 0xEC, symBinAddr: 0x216E4, symSize: 0x78 }
  - { offset: 0xB5782, size: 0x8, addend: 0x0, symName: '-[UIImage(ImageEffects) applyTintEffectWithColor:]', symObjAddr: 0x164, symBinAddr: 0x2175C, symSize: 0x110 }
  - { offset: 0xB57C8, size: 0x8, addend: 0x0, symName: '+[UIImage(ImageEffects) imageWithColor:]', symObjAddr: 0x994, symBinAddr: 0x21F8C, symSize: 0x98 }
  - { offset: 0xB57D0, size: 0x8, addend: 0x0, symName: '+[UIImage(ImageEffects) convertViewToImage]', symObjAddr: 0xA2C, symBinAddr: 0x22024, symSize: 0xB8 }
  - { offset: 0xB5847, size: 0x8, addend: 0x0, symName: '+[UIImage(ImageEffects) convertViewToImage]', symObjAddr: 0xA2C, symBinAddr: 0x22024, symSize: 0xB8 }
  - { offset: 0xB584F, size: 0x8, addend: 0x0, symName: '+[UIImage(ImageEffects) convertViewToImage:]', symObjAddr: 0xAE4, symBinAddr: 0x220DC, symSize: 0xA8 }
  - { offset: 0xB58C6, size: 0x8, addend: 0x0, symName: '+[UIImage(ImageEffects) convertViewToImage:]', symObjAddr: 0xAE4, symBinAddr: 0x220DC, symSize: 0xA8 }
  - { offset: 0xB7B75, size: 0x8, addend: 0x0, symName: __Z6va2rvaP14mach_header_64y, symObjAddr: 0x0, symBinAddr: 0x22184, symSize: 0xC4 }
  - { offset: 0xB7BB1, size: 0x8, addend: 0x0, symName: __Z21StaticInlineHookPatchPcyS_, symObjAddr: 0xCCC, symBinAddr: 0x22E50, symSize: 0x7E0 }
  - { offset: 0xB7BB9, size: 0x8, addend: 0x0, symName: __Z19find_module_by_pathPc, symObjAddr: 0x14AC, symBinAddr: 0x23630, symSize: 0x17C }
  - { offset: 0xB7BEA, size: 0x8, addend: 0x0, symName: __ZZ21StaticInlineHookPatchPcyS_E22gStaticInlineHookMachO, symObjAddr: 0x18700, symBinAddr: 0x37A8F8, symSize: 0x0 }
  - { offset: 0xBC594, size: 0x8, addend: 0x0, symName: __Z6va2rvaP14mach_header_64y, symObjAddr: 0x0, symBinAddr: 0x22184, symSize: 0xC4 }
  - { offset: 0xBC59C, size: 0x8, addend: 0x0, symName: __Z8rva2dataP14mach_header_64y, symObjAddr: 0xC4, symBinAddr: 0x22248, symSize: 0x12C }
  - { offset: 0xBC64C, size: 0x8, addend: 0x0, symName: __Z8rva2dataP14mach_header_64y, symObjAddr: 0xC4, symBinAddr: 0x22248, symSize: 0x12C }
  - { offset: 0xBC654, size: 0x8, addend: 0x0, symName: __Z15load_macho_dataP8NSString, symObjAddr: 0x1F0, symBinAddr: 0x22374, symSize: 0x2D8 }
  - { offset: 0xBC791, size: 0x8, addend: 0x0, symName: __Z15load_macho_dataP8NSString, symObjAddr: 0x1F0, symBinAddr: 0x22374, symSize: 0x2D8 }
  - { offset: 0xBC799, size: 0x8, addend: 0x0, symName: __Z16add_hook_sectionP13NSMutableData, symObjAddr: 0x4C8, symBinAddr: 0x2264C, symSize: 0x67C }
  - { offset: 0xBC995, size: 0x8, addend: 0x0, symName: __Z16add_hook_sectionP13NSMutableData, symObjAddr: 0x4C8, symBinAddr: 0x2264C, symSize: 0x67C }
  - { offset: 0xBC99D, size: 0x8, addend: 0x0, symName: __Z9hex2bytesPcPh, symObjAddr: 0xB44, symBinAddr: 0x22CC8, symSize: 0xF8 }
  - { offset: 0xBCC4D, size: 0x8, addend: 0x0, symName: __Z9hex2bytesPcPh, symObjAddr: 0xB44, symBinAddr: 0x22CC8, symSize: 0xF8 }
  - { offset: 0xBCC55, size: 0x8, addend: 0x0, symName: __Z15calc_patch_hashyPc, symObjAddr: 0xC3C, symBinAddr: 0x22DC0, symSize: 0x90 }
  - { offset: 0xBCD4B, size: 0x8, addend: 0x0, symName: __Z15calc_patch_hashyPc, symObjAddr: 0xC3C, symBinAddr: 0x22DC0, symSize: 0x90 }
  - { offset: 0xBCD53, size: 0x8, addend: 0x0, symName: __Z21StaticInlineHookPatchPcyS_, symObjAddr: 0xCCC, symBinAddr: 0x22E50, symSize: 0x7E0 }
  - { offset: 0xBCD9B, size: 0x8, addend: 0x0, symName: __Z19find_module_by_pathPc, symObjAddr: 0x14AC, symBinAddr: 0x23630, symSize: 0x17C }
  - { offset: 0xBCDA3, size: 0x8, addend: 0x0, symName: __Z15find_hook_blockPvy, symObjAddr: 0x1628, symBinAddr: 0x237AC, symSize: 0x11C }
  - { offset: 0xBCE43, size: 0x8, addend: 0x0, symName: __Z15find_hook_blockPvy, symObjAddr: 0x1628, symBinAddr: 0x237AC, symSize: 0x11C }
  - { offset: 0xBCE4B, size: 0x8, addend: 0x0, symName: __Z24StaticInlineHookFunctionPcyPv, symObjAddr: 0x1744, symBinAddr: 0x238C8, symSize: 0x6C }
  - { offset: 0xBCF4F, size: 0x8, addend: 0x0, symName: __Z24StaticInlineHookFunctionPcyPv, symObjAddr: 0x1744, symBinAddr: 0x238C8, symSize: 0x6C }
  - { offset: 0xBCF57, size: 0x8, addend: 0x0, symName: __Z15ActiveCodePatchPcyS_, symObjAddr: 0x17B0, symBinAddr: 0x23934, symSize: 0xB4 }
  - { offset: 0xBCFDB, size: 0x8, addend: 0x0, symName: __Z15ActiveCodePatchPcyS_, symObjAddr: 0x17B0, symBinAddr: 0x23934, symSize: 0xB4 }
  - { offset: 0xBCFE3, size: 0x8, addend: 0x0, symName: __Z17DeactiveCodePatchPcyS_, symObjAddr: 0x1864, symBinAddr: 0x239E8, symSize: 0xA0 }
  - { offset: 0xBD067, size: 0x8, addend: 0x0, symName: __Z17DeactiveCodePatchPcyS_, symObjAddr: 0x1864, symBinAddr: 0x239E8, symSize: 0xA0 }
  - { offset: 0xBD06F, size: 0x8, addend: 0x0, symName: __Z13getRealOffsety, symObjAddr: 0x1904, symBinAddr: 0x23A88, symSize: 0x10 }
  - { offset: 0xBD0F3, size: 0x8, addend: 0x0, symName: __Z13getRealOffsety, symObjAddr: 0x1904, symBinAddr: 0x23A88, symSize: 0x10 }
  - { offset: 0xBD0FB, size: 0x8, addend: 0x0, symName: __Z11patchOffsetyNSt3__112basic_stringIcNS_11char_traitsIcEENS_9allocatorIcEEEE, symObjAddr: 0x1914, symBinAddr: 0x23A98, symSize: 0xE0 }
  - { offset: 0xBD2BB, size: 0x8, addend: 0x0, symName: __Z11patchOffsetyNSt3__112basic_stringIcNS_11char_traitsIcEENS_9allocatorIcEEEE, symObjAddr: 0x1914, symBinAddr: 0x23A98, symSize: 0xE0 }
  - { offset: 0xBDA8B, size: 0x8, addend: 0x0, symName: __Z10LightThemev, symObjAddr: 0x0, symBinAddr: 0x23B78, symSize: 0x21C }
  - { offset: 0xBDA9C, size: 0x8, addend: 0x0, symName: __Z12ToggleWidgetPKcS0_PbS1_, symObjAddr: 0x78C, symBinAddr: 0x24304, symSize: 0xD68 }
  - { offset: 0xBDAD3, size: 0x8, addend: 0x0, symName: __ZZ12ToggleWidgetPKcS0_PbS1_E14previousStates, symObjAddr: 0x9AB60, symBinAddr: 0x37A908, symSize: 0x0 }
  - { offset: 0xBDAED, size: 0x8, addend: 0x0, symName: __ZZ12ToggleWidgetPKcS0_PbS1_E20settingsButtonStates, symObjAddr: 0x9AB80, symBinAddr: 0x37A928, symSize: 0x0 }
  - { offset: 0xD4428, size: 0x8, addend: 0x0, symName: __ZNSt3__1L19piecewise_constructE, symObjAddr: 0x6580, symBinAddr: 0xA6420, symSize: 0x0 }
  - { offset: 0xD61A1, size: 0x8, addend: 0x0, symName: __ZNSt3__1lsB8nn180100IcNS_11char_traitsIcEEEERNS_13basic_ostreamIT_T0_EES7_RKNS_9__iom_t10IS4_EE, symObjAddr: 0x2F74, symBinAddr: 0x26AC4, symSize: 0x160 }
  - { offset: 0xD61A9, size: 0x8, addend: 0x0, symName: __ZNSt3__119basic_ostringstreamIcNS_11char_traitsIcEENS_9allocatorIcEEED1Ev, symObjAddr: 0x30D4, symBinAddr: 0x26C24, symSize: 0x8C }
  - { offset: 0xD84D4, size: 0x8, addend: 0x0, symName: __ZNSt3__119__allocate_at_leastB8nn180100INS_9allocatorI6OutputEEEENS_19__allocation_resultINS_16allocator_traitsIT_E7pointerEEERS6_m, symObjAddr: 0x5DF8, symBinAddr: 0x28F98, symSize: 0x48 }
  - { offset: 0xD84DC, size: 0x8, addend: 0x0, symName: __ZNSt3__114__split_bufferI6OutputRNS_9allocatorIS1_EEED2Ev, symObjAddr: 0x5E40, symBinAddr: 0x28FE0, symSize: 0x30 }
  - { offset: 0xD922D, size: 0x8, addend: 0x0, symName: __Z12ToggleButtonPKcPb, symObjAddr: 0x151C, symBinAddr: 0x2506C, symSize: 0x6C4 }
  - { offset: 0xD9235, size: 0x8, addend: 0x0, symName: __ZNSt3__13mapIibNS_4lessIiEENS_9allocatorINS_4pairIKibEEEEED1B8nn180100Ev, symObjAddr: 0x1BE0, symBinAddr: 0x25730, symSize: 0x28 }
  - { offset: 0xD9264, size: 0x8, addend: 0x0, symName: __ZZ12ToggleButtonPKcPbE12toggleStates, symObjAddr: 0x9ABA0, symBinAddr: 0x37A948, symSize: 0x0 }
  - { offset: 0xD927E, size: 0x8, addend: 0x0, symName: __ZZ12ToggleButtonPKcPbE14bounceProgress, symObjAddr: 0x9ABC0, symBinAddr: 0x37A968, symSize: 0x0 }
  - { offset: 0xD9298, size: 0x8, addend: 0x0, symName: __ZZ12ToggleButtonPKcPbE17animationProgress, symObjAddr: 0x9ABE0, symBinAddr: 0x37A988, symSize: 0x0 }
  - { offset: 0xDAADA, size: 0x8, addend: 0x0, symName: __Z16ToggleButtonMiniPKcPb, symObjAddr: 0x1C30, symBinAddr: 0x25780, symSize: 0x7B0 }
  - { offset: 0xDAAE2, size: 0x8, addend: 0x0, symName: __Z15SliderFloatMiniPKcPfffb, symObjAddr: 0x23E0, symBinAddr: 0x25F30, symSize: 0x1F4 }
  - { offset: 0xDAB13, size: 0x8, addend: 0x0, symName: __ZZ16ToggleButtonMiniPKcPbE12toggleStates, symObjAddr: 0x9AC00, symBinAddr: 0x37A9A8, symSize: 0x0 }
  - { offset: 0xDAB2E, size: 0x8, addend: 0x0, symName: __ZZ16ToggleButtonMiniPKcPbE14bounceProgress, symObjAddr: 0x9AC20, symBinAddr: 0x37A9C8, symSize: 0x0 }
  - { offset: 0xDAB49, size: 0x8, addend: 0x0, symName: __ZZ16ToggleButtonMiniPKcPbE17animationProgress, symObjAddr: 0x9AC40, symBinAddr: 0x37A9E8, symSize: 0x0 }
  - { offset: 0xDB913, size: 0x8, addend: 0x0, symName: __Z13TextInputMiniPKcRNSt3__112basic_stringIcNS1_11char_traitsIcEENS1_9allocatorIcEEEEb, symObjAddr: 0x29F4, symBinAddr: 0x26544, symSize: 0x3B0 }
  - { offset: 0xDB91B, size: 0x8, addend: 0x0, symName: __ZNSt3__113unordered_mapINS_12basic_stringIcNS_11char_traitsIcEENS_9allocatorIcEEEEA256_cNS_4hashIS6_EENS_8equal_toIS6_EENS4_INS_4pairIKS6_S7_EEEEED1B8nn180100Ev, symObjAddr: 0x2DA4, symBinAddr: 0x268F4, symSize: 0x4 }
  - { offset: 0xDB94C, size: 0x8, addend: 0x0, symName: __ZZ13TextInputMiniPKcRNSt3__112basic_stringIcNS1_11char_traitsIcEENS1_9allocatorIcEEEEbE7buffers, symObjAddr: 0x9AC60, symBinAddr: 0x37AA08, symSize: 0x0 }
  - { offset: 0xDD84B, size: 0x8, addend: 0x0, symName: __ZN7Console8instanceE, symObjAddr: 0x9AC90, symBinAddr: 0x37A7C8, symSize: 0x0 }
  - { offset: 0xDE1CA, size: 0x8, addend: 0x0, symName: __ZNSt3__16vectorI6OutputNS_9allocatorIS1_EEE26__swap_out_circular_bufferERNS_14__split_bufferIS1_RS3_EE, symObjAddr: 0x5D54, symBinAddr: 0x28EF4, symSize: 0xA4 }
  - { offset: 0xDE1D2, size: 0x8, addend: 0x0, symName: __ZNSt3__119__allocate_at_leastB8nn180100INS_9allocatorI6OutputEEEENS_19__allocation_resultINS_16allocator_traitsIT_E7pointerEEERS6_m, symObjAddr: 0x5DF8, symBinAddr: 0x28F98, symSize: 0x48 }
  - { offset: 0xDE623, size: 0x8, addend: 0x0, symName: __Z10LightThemev, symObjAddr: 0x0, symBinAddr: 0x23B78, symSize: 0x21C }
  - { offset: 0xDE62B, size: 0x8, addend: 0x0, symName: __Z15CopyToClipboardPKc, symObjAddr: 0x21C, symBinAddr: 0x23D94, symSize: 0x94 }
  - { offset: 0xDEAEA, size: 0x8, addend: 0x0, symName: __Z15CopyToClipboardPKc, symObjAddr: 0x21C, symBinAddr: 0x23D94, symSize: 0x94 }
  - { offset: 0xDEAF2, size: 0x8, addend: 0x0, symName: __Z16saveBoolSettingsPKcb, symObjAddr: 0x2B0, symBinAddr: 0x23E28, symSize: 0xA4 }
  - { offset: 0xDEB2F, size: 0x8, addend: 0x0, symName: __Z16saveBoolSettingsPKcb, symObjAddr: 0x2B0, symBinAddr: 0x23E28, symSize: 0xA4 }
  - { offset: 0xDEB37, size: 0x8, addend: 0x0, symName: __Z16loadBoolSettingsPKcb, symObjAddr: 0x354, symBinAddr: 0x23ECC, symSize: 0xF8 }
  - { offset: 0xDEB83, size: 0x8, addend: 0x0, symName: __Z16loadBoolSettingsPKcb, symObjAddr: 0x354, symBinAddr: 0x23ECC, symSize: 0xF8 }
  - { offset: 0xDEB8B, size: 0x8, addend: 0x0, symName: __Z14saveIntSettingPKci, symObjAddr: 0x44C, symBinAddr: 0x23FC4, symSize: 0xA4 }
  - { offset: 0xDEBDF, size: 0x8, addend: 0x0, symName: __Z14saveIntSettingPKci, symObjAddr: 0x44C, symBinAddr: 0x23FC4, symSize: 0xA4 }
  - { offset: 0xDEBE7, size: 0x8, addend: 0x0, symName: __Z14loadIntSettingPKci, symObjAddr: 0x4F0, symBinAddr: 0x24068, symSize: 0xF8 }
  - { offset: 0xDEC37, size: 0x8, addend: 0x0, symName: __Z14loadIntSettingPKci, symObjAddr: 0x4F0, symBinAddr: 0x24068, symSize: 0xF8 }
  - { offset: 0xDEC3F, size: 0x8, addend: 0x0, symName: __Z16saveFloatSettingPKcf, symObjAddr: 0x5E8, symBinAddr: 0x24160, symSize: 0xAC }
  - { offset: 0xDEC97, size: 0x8, addend: 0x0, symName: __Z16saveFloatSettingPKcf, symObjAddr: 0x5E8, symBinAddr: 0x24160, symSize: 0xAC }
  - { offset: 0xDEC9F, size: 0x8, addend: 0x0, symName: __Z17loadFloatSettingsPKcf, symObjAddr: 0x694, symBinAddr: 0x2420C, symSize: 0xF8 }
  - { offset: 0xDECEF, size: 0x8, addend: 0x0, symName: __Z17loadFloatSettingsPKcf, symObjAddr: 0x694, symBinAddr: 0x2420C, symSize: 0xF8 }
  - { offset: 0xDECF7, size: 0x8, addend: 0x0, symName: __Z12ToggleWidgetPKcS0_PbS1_, symObjAddr: 0x78C, symBinAddr: 0x24304, symSize: 0xD68 }
  - { offset: 0xDFAD8, size: 0x8, addend: 0x0, symName: __ZNSt3__13mapIibNS_4lessIiEENS_9allocatorINS_4pairIKibEEEEED1B8nn180100Ev, symObjAddr: 0x1BE0, symBinAddr: 0x25730, symSize: 0x28 }
  - { offset: 0xDFAE0, size: 0x8, addend: 0x0, symName: __ZNSt3__13mapIifNS_4lessIiEENS_9allocatorINS_4pairIKifEEEEED1B8nn180100Ev, symObjAddr: 0x1C08, symBinAddr: 0x25758, symSize: 0x28 }
  - { offset: 0xDFC42, size: 0x8, addend: 0x0, symName: __ZNSt3__13mapIifNS_4lessIiEENS_9allocatorINS_4pairIKifEEEEED1B8nn180100Ev, symObjAddr: 0x1C08, symBinAddr: 0x25758, symSize: 0x28 }
  - { offset: 0xDFC4A, size: 0x8, addend: 0x0, symName: __Z16ToggleButtonMiniPKcPb, symObjAddr: 0x1C30, symBinAddr: 0x25780, symSize: 0x7B0 }
  - { offset: 0xDFD1D, size: 0x8, addend: 0x0, symName: __Z15SliderFloatMiniPKcPfffb, symObjAddr: 0x23E0, symBinAddr: 0x25F30, symSize: 0x1F4 }
  - { offset: 0xDFD25, size: 0x8, addend: 0x0, symName: __Z13SliderIntMiniPKcPiiib, symObjAddr: 0x25D4, symBinAddr: 0x26124, symSize: 0x1F0 }
  - { offset: 0xE0597, size: 0x8, addend: 0x0, symName: __Z13SliderIntMiniPKcPiiib, symObjAddr: 0x25D4, symBinAddr: 0x26124, symSize: 0x1F0 }
  - { offset: 0xE059F, size: 0x8, addend: 0x0, symName: __Z12IntInputMiniPKcPiii, symObjAddr: 0x27C4, symBinAddr: 0x26314, symSize: 0x19C }
  - { offset: 0xE0DF4, size: 0x8, addend: 0x0, symName: __Z12IntInputMiniPKcPiii, symObjAddr: 0x27C4, symBinAddr: 0x26314, symSize: 0x19C }
  - { offset: 0xE0DFC, size: 0x8, addend: 0x0, symName: __Z13isValidNumberRKNSt3__112basic_stringIcNS_11char_traitsIcEENS_9allocatorIcEEEE, symObjAddr: 0x2960, symBinAddr: 0x264B0, symSize: 0x94 }
  - { offset: 0xE1602, size: 0x8, addend: 0x0, symName: __Z13isValidNumberRKNSt3__112basic_stringIcNS_11char_traitsIcEENS_9allocatorIcEEEE, symObjAddr: 0x2960, symBinAddr: 0x264B0, symSize: 0x94 }
  - { offset: 0xE160A, size: 0x8, addend: 0x0, symName: __Z13TextInputMiniPKcRNSt3__112basic_stringIcNS1_11char_traitsIcEENS1_9allocatorIcEEEEb, symObjAddr: 0x29F4, symBinAddr: 0x26544, symSize: 0x3B0 }
  - { offset: 0xE1695, size: 0x8, addend: 0x0, symName: __Z13isValidNumberRKNSt3__112basic_stringIcNS_11char_traitsIcEENS_9allocatorIcEEEE, symObjAddr: 0x2960, symBinAddr: 0x264B0, symSize: 0x94 }
  - { offset: 0xE1AC1, size: 0x8, addend: 0x0, symName: __ZNSt3__113unordered_mapINS_12basic_stringIcNS_11char_traitsIcEENS_9allocatorIcEEEEA256_cNS_4hashIS6_EENS_8equal_toIS6_EENS4_INS_4pairIKS6_S7_EEEEED1B8nn180100Ev, symObjAddr: 0x2DA4, symBinAddr: 0x268F4, symSize: 0x4 }
  - { offset: 0xE1AC9, size: 0x8, addend: 0x0, symName: __ZN7Console14getCurrentTimeEv, symObjAddr: 0x2DA8, symBinAddr: 0x268F8, symSize: 0xF8 }
  - { offset: 0xE1AFD, size: 0x8, addend: 0x0, symName: __ZNSt3__113unordered_mapINS_12basic_stringIcNS_11char_traitsIcEENS_9allocatorIcEEEEA256_cNS_4hashIS6_EENS_8equal_toIS6_EENS4_INS_4pairIKS6_S7_EEEEED1B8nn180100Ev, symObjAddr: 0x2DA4, symBinAddr: 0x268F4, symSize: 0x4 }
  - { offset: 0xE1B05, size: 0x8, addend: 0x0, symName: __ZN7Console14getCurrentTimeEv, symObjAddr: 0x2DA8, symBinAddr: 0x268F8, symSize: 0xF8 }
  - { offset: 0xE1B25, size: 0x8, addend: 0x0, symName: __ZNSt3__113unordered_mapINS_12basic_stringIcNS_11char_traitsIcEENS_9allocatorIcEEEEA256_cNS_4hashIS6_EENS_8equal_toIS6_EENS4_INS_4pairIKS6_S7_EEEEED1B8nn180100Ev, symObjAddr: 0x2DA4, symBinAddr: 0x268F4, symSize: 0x4 }
  - { offset: 0xE1B2D, size: 0x8, addend: 0x0, symName: __ZN7Console14getCurrentTimeEv, symObjAddr: 0x2DA8, symBinAddr: 0x268F8, symSize: 0xF8 }
  - { offset: 0xE1C5E, size: 0x8, addend: 0x0, symName: __ZN7Console14getCurrentTimeEv, symObjAddr: 0x2DA8, symBinAddr: 0x268F8, symSize: 0xF8 }
  - { offset: 0xE1C66, size: 0x8, addend: 0x0, symName: __ZNSt3__119basic_ostringstreamIcNS_11char_traitsIcEENS_9allocatorIcEEEC1B8nn180100Ev, symObjAddr: 0x2EA0, symBinAddr: 0x269F0, symSize: 0xD4 }
  - { offset: 0xE1FE4, size: 0x8, addend: 0x0, symName: __ZNSt3__119basic_ostringstreamIcNS_11char_traitsIcEENS_9allocatorIcEEEC1B8nn180100Ev, symObjAddr: 0x2EA0, symBinAddr: 0x269F0, symSize: 0xD4 }
  - { offset: 0xE1FEC, size: 0x8, addend: 0x0, symName: __ZNSt3__1lsB8nn180100IcNS_11char_traitsIcEEEERNS_13basic_ostreamIT_T0_EES7_RKNS_9__iom_t10IS4_EE, symObjAddr: 0x2F74, symBinAddr: 0x26AC4, symSize: 0x160 }
  - { offset: 0xE2462, size: 0x8, addend: 0x0, symName: __ZNSt3__119basic_ostringstreamIcNS_11char_traitsIcEENS_9allocatorIcEEED1Ev, symObjAddr: 0x30D4, symBinAddr: 0x26C24, symSize: 0x8C }
  - { offset: 0xE246A, size: 0x8, addend: 0x0, symName: __ZN7Console11logInternalERKNSt3__112basic_stringIcNS0_11char_traitsIcEENS0_9allocatorIcEEEEbi, symObjAddr: 0x3160, symBinAddr: 0x26CB0, symSize: 0x154 }
  - { offset: 0xE295D, size: 0x8, addend: 0x0, symName: __ZN7Console11logInternalERKNSt3__112basic_stringIcNS0_11char_traitsIcEENS0_9allocatorIcEEEEbi, symObjAddr: 0x3160, symBinAddr: 0x26CB0, symSize: 0x154 }
  - { offset: 0xE2965, size: 0x8, addend: 0x0, symName: __ZN6OutputD1Ev, symObjAddr: 0x32B4, symBinAddr: 0x26E04, symSize: 0x40 }
  - { offset: 0xE33C7, size: 0x8, addend: 0x0, symName: __ZN6OutputD1Ev, symObjAddr: 0x32B4, symBinAddr: 0x26E04, symSize: 0x40 }
  - { offset: 0xE33CF, size: 0x8, addend: 0x0, symName: __ZN7Console9renderLogER6Output, symObjAddr: 0x32F4, symBinAddr: 0x26E44, symSize: 0x1DC }
  - { offset: 0xE372F, size: 0x8, addend: 0x0, symName: __ZN7Console9renderLogER6Output, symObjAddr: 0x32F4, symBinAddr: 0x26E44, symSize: 0x1DC }
  - { offset: 0xE3737, size: 0x8, addend: 0x0, symName: __ZN7Console14renderLogErrorER6Output, symObjAddr: 0x34D0, symBinAddr: 0x27020, symSize: 0x200 }
  - { offset: 0xE4615, size: 0x8, addend: 0x0, symName: __ZN7Console14renderLogErrorER6Output, symObjAddr: 0x34D0, symBinAddr: 0x27020, symSize: 0x200 }
  - { offset: 0xE461D, size: 0x8, addend: 0x0, symName: __ZN7Console13renderLogInfoER6Output, symObjAddr: 0x36D0, symBinAddr: 0x27220, symSize: 0x200 }
  - { offset: 0xE5502, size: 0x8, addend: 0x0, symName: __ZN7Console13renderLogInfoER6Output, symObjAddr: 0x36D0, symBinAddr: 0x27220, symSize: 0x200 }
  - { offset: 0xE550A, size: 0x8, addend: 0x0, symName: __ZN7Console16renderLogSuccessER6Output, symObjAddr: 0x38D0, symBinAddr: 0x27420, symSize: 0x200 }
  - { offset: 0xE63EF, size: 0x8, addend: 0x0, symName: __ZN7Console16renderLogSuccessER6Output, symObjAddr: 0x38D0, symBinAddr: 0x27420, symSize: 0x200 }
  - { offset: 0xE63F7, size: 0x8, addend: 0x0, symName: __ZN7Console16renderLogWarningER6Output, symObjAddr: 0x3AD0, symBinAddr: 0x27620, symSize: 0x200 }
  - { offset: 0xE72DC, size: 0x8, addend: 0x0, symName: __ZN7Console16renderLogWarningER6Output, symObjAddr: 0x3AD0, symBinAddr: 0x27620, symSize: 0x200 }
  - { offset: 0xE72E4, size: 0x8, addend: 0x0, symName: __ZN7Console14renderInternalEv, symObjAddr: 0x3CD0, symBinAddr: 0x27820, symSize: 0x2D8 }
  - { offset: 0xE8206, size: 0x8, addend: 0x0, symName: __ZN7Console14renderInternalEv, symObjAddr: 0x3CD0, symBinAddr: 0x27820, symSize: 0x2D8 }
  - { offset: 0xE820E, size: 0x8, addend: 0x0, symName: __ZTv0_n24_NSt3__119basic_ostringstreamIcNS_11char_traitsIcEENS_9allocatorIcEEED1Ev, symObjAddr: 0x3FA8, symBinAddr: 0x27AF8, symSize: 0x8C }
  - { offset: 0xE899D, size: 0x8, addend: 0x0, symName: __ZTv0_n24_NSt3__119basic_ostringstreamIcNS_11char_traitsIcEENS_9allocatorIcEEED1Ev, symObjAddr: 0x3FA8, symBinAddr: 0x27AF8, symSize: 0x8C }
  - { offset: 0xE89A5, size: 0x8, addend: 0x0, symName: __ZNSt3__119basic_ostringstreamIcNS_11char_traitsIcEENS_9allocatorIcEEED0Ev, symObjAddr: 0x4034, symBinAddr: 0x27B84, symSize: 0x8C }
  - { offset: 0xE89C8, size: 0x8, addend: 0x0, symName: __ZNSt3__119basic_ostringstreamIcNS_11char_traitsIcEENS_9allocatorIcEEED0Ev, symObjAddr: 0x4034, symBinAddr: 0x27B84, symSize: 0x8C }
  - { offset: 0xE8BCA, size: 0x8, addend: 0x0, symName: __ZNSt3__119basic_ostringstreamIcNS_11char_traitsIcEENS_9allocatorIcEEED0Ev, symObjAddr: 0x4034, symBinAddr: 0x27B84, symSize: 0x8C }
  - { offset: 0xE8BD2, size: 0x8, addend: 0x0, symName: __ZTv0_n24_NSt3__119basic_ostringstreamIcNS_11char_traitsIcEENS_9allocatorIcEEED0Ev, symObjAddr: 0x40C0, symBinAddr: 0x27C10, symSize: 0x94 }
  - { offset: 0xE8E2B, size: 0x8, addend: 0x0, symName: __ZTv0_n24_NSt3__119basic_ostringstreamIcNS_11char_traitsIcEENS_9allocatorIcEEED0Ev, symObjAddr: 0x40C0, symBinAddr: 0x27C10, symSize: 0x94 }
  - { offset: 0xE91BB, size: 0x8, addend: 0x0, symName: __ZN6OutputC2ENSt3__112basic_stringIcNS0_11char_traitsIcEENS0_9allocatorIcEEEEbi, symObjAddr: 0x4500, symBinAddr: 0x27CA4, symSize: 0x6C }
  - { offset: 0xE9681, size: 0x8, addend: 0x0, symName: __ZNSt3__16__treeINS_12__value_typeINS_12basic_stringIcNS_11char_traitsIcEENS_9allocatorIcEEEEbEENS_19__map_value_compareIS7_S8_NS_4lessIS7_EELb1EEENS5_IS8_EEE4findIS7_EENS_15__tree_iteratorIS8_PNS_11__tree_nodeIS8_PvEElEERKT_, symObjAddr: 0x4674, symBinAddr: 0x27D10, symSize: 0x8C }
  - { offset: 0xE9864, size: 0x8, addend: 0x0, symName: __ZNSt3__122__tree_node_destructorINS_9allocatorINS_11__tree_nodeINS_12__value_typeINS_12basic_stringIcNS_11char_traitsIcEENS1_IcEEEEbEEPvEEEEEclB8nn180100EPSB_, symObjAddr: 0x4A88, symBinAddr: 0x27D9C, symSize: 0x4C }
  - { offset: 0xE986C, size: 0x8, addend: 0x0, symName: __ZNSt3__16__treeINS_12__value_typeINS_12basic_stringIcNS_11char_traitsIcEENS_9allocatorIcEEEEbEENS_19__map_value_compareIS7_S8_NS_4lessIS7_EELb1EEENS5_IS8_EEE25__emplace_unique_key_argsIS7_JRKNS_21piecewise_construct_tENS_5tupleIJRKS7_EEENSJ_IJEEEEEENS_4pairINS_15__tree_iteratorIS8_PNS_11__tree_nodeIS8_PvEElEEbEERKT_DpOT0_, symObjAddr: 0x4AD4, symBinAddr: 0x27DE8, symSize: 0x94 }
  - { offset: 0xE9C3B, size: 0x8, addend: 0x0, symName: __ZNSt3__16__treeINS_12__value_typeINS_12basic_stringIcNS_11char_traitsIcEENS_9allocatorIcEEEEbEENS_19__map_value_compareIS7_S8_NS_4lessIS7_EELb1EEENS5_IS8_EEE25__emplace_unique_key_argsIS7_JRKNS_21piecewise_construct_tENS_5tupleIJRKS7_EEENSJ_IJEEEEEENS_4pairINS_15__tree_iteratorIS8_PNS_11__tree_nodeIS8_PvEElEEbEERKT_DpOT0_, symObjAddr: 0x4AD4, symBinAddr: 0x27DE8, symSize: 0x94 }
  - { offset: 0xE9C43, size: 0x8, addend: 0x0, symName: __ZNSt3__16__treeINS_12__value_typeINS_12basic_stringIcNS_11char_traitsIcEENS_9allocatorIcEEEEbEENS_19__map_value_compareIS7_S8_NS_4lessIS7_EELb1EEENS5_IS8_EEE16__construct_nodeIJRKNS_21piecewise_construct_tENS_5tupleIJRKS7_EEENSJ_IJEEEEEENS_10unique_ptrINS_11__tree_nodeIS8_PvEENS_22__tree_node_destructorINS5_ISR_EEEEEEDpOT_, symObjAddr: 0x4B68, symBinAddr: 0x27E7C, symSize: 0xA4 }
  - { offset: 0xEA2D7, size: 0x8, addend: 0x0, symName: __ZNSt3__16__treeINS_12__value_typeINS_12basic_stringIcNS_11char_traitsIcEENS_9allocatorIcEEEEbEENS_19__map_value_compareIS7_S8_NS_4lessIS7_EELb1EEENS5_IS8_EEE16__construct_nodeIJRKNS_21piecewise_construct_tENS_5tupleIJRKS7_EEENSJ_IJEEEEEENS_10unique_ptrINS_11__tree_nodeIS8_PvEENS_22__tree_node_destructorINS5_ISR_EEEEEEDpOT_, symObjAddr: 0x4B68, symBinAddr: 0x27E7C, symSize: 0xA4 }
  - { offset: 0xEA845, size: 0x8, addend: 0x0, symName: __ZNSt3__16__treeINS_12__value_typeIibEENS_19__map_value_compareIiS2_NS_4lessIiEELb1EEENS_9allocatorIS2_EEE7destroyEPNS_11__tree_nodeIS2_PvEE, symObjAddr: 0x4C94, symBinAddr: 0x27F20, symSize: 0x40 }
  - { offset: 0xEA84D, size: 0x8, addend: 0x0, symName: __ZNSt3__16__treeINS_12__value_typeIifEENS_19__map_value_compareIiS2_NS_4lessIiEELb1EEENS_9allocatorIS2_EEE7destroyEPNS_11__tree_nodeIS2_PvEE, symObjAddr: 0x4CD4, symBinAddr: 0x27F60, symSize: 0x40 }
  - { offset: 0xEAA3E, size: 0x8, addend: 0x0, symName: __ZNSt3__16__treeINS_12__value_typeIifEENS_19__map_value_compareIiS2_NS_4lessIiEELb1EEENS_9allocatorIS2_EEE7destroyEPNS_11__tree_nodeIS2_PvEE, symObjAddr: 0x4CD4, symBinAddr: 0x27F60, symSize: 0x40 }
  - { offset: 0xEAA46, size: 0x8, addend: 0x0, symName: __ZNSt3__16__treeINS_12__value_typeIibEENS_19__map_value_compareIiS2_NS_4lessIiEELb1EEENS_9allocatorIS2_EEE25__emplace_unique_key_argsIiJRKNS_21piecewise_construct_tENS_5tupleIJRKiEEENSE_IJEEEEEENS_4pairINS_15__tree_iteratorIS2_PNS_11__tree_nodeIS2_PvEElEEbEERKT_DpOT0_, symObjAddr: 0x4D14, symBinAddr: 0x27FA0, symSize: 0xC0 }
  - { offset: 0xEAFAE, size: 0x8, addend: 0x0, symName: __ZNSt3__16__treeINS_12__value_typeIibEENS_19__map_value_compareIiS2_NS_4lessIiEELb1EEENS_9allocatorIS2_EEE25__emplace_unique_key_argsIiJRKNS_21piecewise_construct_tENS_5tupleIJRKiEEENSE_IJEEEEEENS_4pairINS_15__tree_iteratorIS2_PNS_11__tree_nodeIS2_PvEElEEbEERKT_DpOT0_, symObjAddr: 0x4D14, symBinAddr: 0x27FA0, symSize: 0xC0 }
  - { offset: 0xEAFB6, size: 0x8, addend: 0x0, symName: __ZNSt3__16__treeINS_12__value_typeIibEENS_19__map_value_compareIiS2_NS_4lessIiEELb1EEENS_9allocatorIS2_EEE16__insert_node_atEPNS_15__tree_end_nodeIPNS_16__tree_node_baseIPvEEEERSE_SE_, symObjAddr: 0x4DD4, symBinAddr: 0x28060, symSize: 0x54 }
  - { offset: 0xEB394, size: 0x8, addend: 0x0, symName: __ZNSt3__16__treeINS_12__value_typeIibEENS_19__map_value_compareIiS2_NS_4lessIiEELb1EEENS_9allocatorIS2_EEE16__insert_node_atEPNS_15__tree_end_nodeIPNS_16__tree_node_baseIPvEEEERSE_SE_, symObjAddr: 0x4DD4, symBinAddr: 0x28060, symSize: 0x54 }
  - { offset: 0xEB39C, size: 0x8, addend: 0x0, symName: __ZNSt3__16__treeINS_12__value_typeIifEENS_19__map_value_compareIiS2_NS_4lessIiEELb1EEENS_9allocatorIS2_EEE25__emplace_unique_key_argsIiJRKNS_21piecewise_construct_tENS_5tupleIJRKiEEENSE_IJEEEEEENS_4pairINS_15__tree_iteratorIS2_PNS_11__tree_nodeIS2_PvEElEEbEERKT_DpOT0_, symObjAddr: 0x4E28, symBinAddr: 0x280B4, symSize: 0xBC }
  - { offset: 0xEB840, size: 0x8, addend: 0x0, symName: __ZNSt3__16__treeINS_12__value_typeIifEENS_19__map_value_compareIiS2_NS_4lessIiEELb1EEENS_9allocatorIS2_EEE25__emplace_unique_key_argsIiJRKNS_21piecewise_construct_tENS_5tupleIJRKiEEENSE_IJEEEEEENS_4pairINS_15__tree_iteratorIS2_PNS_11__tree_nodeIS2_PvEElEEbEERKT_DpOT0_, symObjAddr: 0x4E28, symBinAddr: 0x280B4, symSize: 0xBC }
  - { offset: 0xEB848, size: 0x8, addend: 0x0, symName: __ZNSt3__16__treeINS_12__value_typeIifEENS_19__map_value_compareIiS2_NS_4lessIiEELb1EEENS_9allocatorIS2_EEE16__insert_node_atEPNS_15__tree_end_nodeIPNS_16__tree_node_baseIPvEEEERSE_SE_, symObjAddr: 0x4EE4, symBinAddr: 0x28170, symSize: 0x54 }
  - { offset: 0xEBC26, size: 0x8, addend: 0x0, symName: __ZNSt3__16__treeINS_12__value_typeIifEENS_19__map_value_compareIiS2_NS_4lessIiEELb1EEENS_9allocatorIS2_EEE16__insert_node_atEPNS_15__tree_end_nodeIPNS_16__tree_node_baseIPvEEEERSE_SE_, symObjAddr: 0x4EE4, symBinAddr: 0x28170, symSize: 0x54 }
  - { offset: 0xEBC2E, size: 0x8, addend: 0x0, symName: __ZNSt3__112__hash_tableINS_17__hash_value_typeINS_12basic_stringIcNS_11char_traitsIcEENS_9allocatorIcEEEEA256_cEENS_22__unordered_map_hasherIS7_S9_NS_4hashIS7_EENS_8equal_toIS7_EELb1EEENS_21__unordered_map_equalIS7_S9_SE_SC_Lb1EEENS5_IS9_EEED2Ev, symObjAddr: 0x4F38, symBinAddr: 0x281C4, symSize: 0x38 }
  - { offset: 0xEBDD1, size: 0x8, addend: 0x0, symName: __ZNSt3__112__hash_tableINS_17__hash_value_typeINS_12basic_stringIcNS_11char_traitsIcEENS_9allocatorIcEEEEA256_cEENS_22__unordered_map_hasherIS7_S9_NS_4hashIS7_EENS_8equal_toIS7_EELb1EEENS_21__unordered_map_equalIS7_S9_SE_SC_Lb1EEENS5_IS9_EEED2Ev, symObjAddr: 0x4F38, symBinAddr: 0x281C4, symSize: 0x38 }
  - { offset: 0xEBDD9, size: 0x8, addend: 0x0, symName: __ZNSt3__112__hash_tableINS_17__hash_value_typeINS_12basic_stringIcNS_11char_traitsIcEENS_9allocatorIcEEEEA256_cEENS_22__unordered_map_hasherIS7_S9_NS_4hashIS7_EENS_8equal_toIS7_EELb1EEENS_21__unordered_map_equalIS7_S9_SE_SC_Lb1EEENS5_IS9_EEE17__deallocate_nodeEPNS_16__hash_node_baseIPNS_11__hash_nodeIS9_PvEEEE, symObjAddr: 0x4F70, symBinAddr: 0x281FC, symSize: 0x44 }
  - { offset: 0xEC0B5, size: 0x8, addend: 0x0, symName: __ZNSt3__112__hash_tableINS_17__hash_value_typeINS_12basic_stringIcNS_11char_traitsIcEENS_9allocatorIcEEEEA256_cEENS_22__unordered_map_hasherIS7_S9_NS_4hashIS7_EENS_8equal_toIS7_EELb1EEENS_21__unordered_map_equalIS7_S9_SE_SC_Lb1EEENS5_IS9_EEE17__deallocate_nodeEPNS_16__hash_node_baseIPNS_11__hash_nodeIS9_PvEEEE, symObjAddr: 0x4F70, symBinAddr: 0x281FC, symSize: 0x44 }
  - { offset: 0xEC0BD, size: 0x8, addend: 0x0, symName: __ZNSt3__112__hash_tableINS_17__hash_value_typeINS_12basic_stringIcNS_11char_traitsIcEENS_9allocatorIcEEEEA256_cEENS_22__unordered_map_hasherIS7_S9_NS_4hashIS7_EENS_8equal_toIS7_EELb1EEENS_21__unordered_map_equalIS7_S9_SE_SC_Lb1EEENS5_IS9_EEE25__emplace_unique_key_argsIS7_JRKNS_21piecewise_construct_tENS_5tupleIJRKS7_EEENSO_IJEEEEEENS_4pairINS_15__hash_iteratorIPNS_11__hash_nodeIS9_PvEEEEbEERKT_DpOT0_, symObjAddr: 0x4FB4, symBinAddr: 0x28240, symSize: 0x2A0 }
  - { offset: 0xEC725, size: 0x8, addend: 0x0, symName: __ZNSt3__112__hash_tableINS_17__hash_value_typeINS_12basic_stringIcNS_11char_traitsIcEENS_9allocatorIcEEEEA256_cEENS_22__unordered_map_hasherIS7_S9_NS_4hashIS7_EENS_8equal_toIS7_EELb1EEENS_21__unordered_map_equalIS7_S9_SE_SC_Lb1EEENS5_IS9_EEE25__emplace_unique_key_argsIS7_JRKNS_21piecewise_construct_tENS_5tupleIJRKS7_EEENSO_IJEEEEEENS_4pairINS_15__hash_iteratorIPNS_11__hash_nodeIS9_PvEEEEbEERKT_DpOT0_, symObjAddr: 0x4FB4, symBinAddr: 0x28240, symSize: 0x2A0 }
  - { offset: 0xEC72D, size: 0x8, addend: 0x0, symName: __ZNSt3__112__hash_tableINS_17__hash_value_typeINS_12basic_stringIcNS_11char_traitsIcEENS_9allocatorIcEEEEA256_cEENS_22__unordered_map_hasherIS7_S9_NS_4hashIS7_EENS_8equal_toIS7_EELb1EEENS_21__unordered_map_equalIS7_S9_SE_SC_Lb1EEENS5_IS9_EEE21__construct_node_hashIRKNS_21piecewise_construct_tEJNS_5tupleIJRKS7_EEENSO_IJEEEEEENS_10unique_ptrINS_11__hash_nodeIS9_PvEENS_22__hash_node_destructorINS5_ISW_EEEEEEmOT_DpOT0_, symObjAddr: 0x5254, symBinAddr: 0x284E0, symSize: 0xCC }
  - { offset: 0xED430, size: 0x8, addend: 0x0, symName: __ZNSt3__112__hash_tableINS_17__hash_value_typeINS_12basic_stringIcNS_11char_traitsIcEENS_9allocatorIcEEEEA256_cEENS_22__unordered_map_hasherIS7_S9_NS_4hashIS7_EENS_8equal_toIS7_EELb1EEENS_21__unordered_map_equalIS7_S9_SE_SC_Lb1EEENS5_IS9_EEE21__construct_node_hashIRKNS_21piecewise_construct_tEJNS_5tupleIJRKS7_EEENSO_IJEEEEEENS_10unique_ptrINS_11__hash_nodeIS9_PvEENS_22__hash_node_destructorINS5_ISW_EEEEEEmOT_DpOT0_, symObjAddr: 0x5254, symBinAddr: 0x284E0, symSize: 0xCC }
  - { offset: 0xED438, size: 0x8, addend: 0x0, symName: __ZNKSt3__121__murmur2_or_cityhashImLm64EEclB8nn180100EPKvm, symObjAddr: 0x5320, symBinAddr: 0x285AC, symSize: 0x208 }
  - { offset: 0xED96A, size: 0x8, addend: 0x0, symName: __ZNKSt3__121__murmur2_or_cityhashImLm64EEclB8nn180100EPKvm, symObjAddr: 0x5320, symBinAddr: 0x285AC, symSize: 0x208 }
  - { offset: 0xED992, size: 0x8, addend: 0x0, symName: __ZNKSt3__121__murmur2_or_cityhashImLm64EEclB8nn180100EPKvm, symObjAddr: 0x5320, symBinAddr: 0x285AC, symSize: 0x208 }
  - { offset: 0xED9B9, size: 0x8, addend: 0x0, symName: __ZNKSt3__121__murmur2_or_cityhashImLm64EEclB8nn180100EPKvm, symObjAddr: 0x5320, symBinAddr: 0x285AC, symSize: 0x208 }
  - { offset: 0xEDB54, size: 0x8, addend: 0x0, symName: __ZNKSt3__121__murmur2_or_cityhashImLm64EEclB8nn180100EPKvm, symObjAddr: 0x5320, symBinAddr: 0x285AC, symSize: 0x208 }
  - { offset: 0xEDB5C, size: 0x8, addend: 0x0, symName: __ZNSt3__121__murmur2_or_cityhashImLm64EE18__hash_len_0_to_16B8nn180100EPKcm, symObjAddr: 0x5528, symBinAddr: 0x287B4, symSize: 0xF8 }
  - { offset: 0xEE2DC, size: 0x8, addend: 0x0, symName: __ZNSt3__121__murmur2_or_cityhashImLm64EE18__hash_len_0_to_16B8nn180100EPKcm, symObjAddr: 0x5528, symBinAddr: 0x287B4, symSize: 0xF8 }
  - { offset: 0xEE2E4, size: 0x8, addend: 0x0, symName: __ZNSt3__121__murmur2_or_cityhashImLm64EE19__hash_len_17_to_32B8nn180100EPKcm, symObjAddr: 0x5620, symBinAddr: 0x288AC, symSize: 0xAC }
  - { offset: 0xEE58B, size: 0x8, addend: 0x0, symName: __ZNSt3__121__murmur2_or_cityhashImLm64EE19__hash_len_17_to_32B8nn180100EPKcm, symObjAddr: 0x5620, symBinAddr: 0x288AC, symSize: 0xAC }
  - { offset: 0xEE593, size: 0x8, addend: 0x0, symName: __ZNSt3__121__murmur2_or_cityhashImLm64EE19__hash_len_33_to_64B8nn180100EPKcm, symObjAddr: 0x56CC, symBinAddr: 0x28958, symSize: 0xC0 }
  - { offset: 0xEE753, size: 0x8, addend: 0x0, symName: __ZNSt3__121__murmur2_or_cityhashImLm64EE19__hash_len_33_to_64B8nn180100EPKcm, symObjAddr: 0x56CC, symBinAddr: 0x28958, symSize: 0xC0 }
  - { offset: 0xEE75B, size: 0x8, addend: 0x0, symName: __ZNKSt3__18equal_toINS_12basic_stringIcNS_11char_traitsIcEENS_9allocatorIcEEEEEclB8nn180100ERKS6_S9_, symObjAddr: 0x578C, symBinAddr: 0x28A18, symSize: 0xA4 }
  - { offset: 0xEEAA3, size: 0x8, addend: 0x0, symName: __ZNKSt3__18equal_toINS_12basic_stringIcNS_11char_traitsIcEENS_9allocatorIcEEEEEclB8nn180100ERKS6_S9_, symObjAddr: 0x578C, symBinAddr: 0x28A18, symSize: 0xA4 }
  - { offset: 0xEEAAB, size: 0x8, addend: 0x0, symName: __ZNSt3__112__hash_tableINS_17__hash_value_typeINS_12basic_stringIcNS_11char_traitsIcEENS_9allocatorIcEEEEA256_cEENS_22__unordered_map_hasherIS7_S9_NS_4hashIS7_EENS_8equal_toIS7_EELb1EEENS_21__unordered_map_equalIS7_S9_SE_SC_Lb1EEENS5_IS9_EEE8__rehashILb1EEEvm, symObjAddr: 0x5830, symBinAddr: 0x28ABC, symSize: 0xDC }
  - { offset: 0xEEC7B, size: 0x8, addend: 0x0, symName: __ZNSt3__112__hash_tableINS_17__hash_value_typeINS_12basic_stringIcNS_11char_traitsIcEENS_9allocatorIcEEEEA256_cEENS_22__unordered_map_hasherIS7_S9_NS_4hashIS7_EENS_8equal_toIS7_EELb1EEENS_21__unordered_map_equalIS7_S9_SE_SC_Lb1EEENS5_IS9_EEE8__rehashILb1EEEvm, symObjAddr: 0x5830, symBinAddr: 0x28ABC, symSize: 0xDC }
  - { offset: 0xEEC83, size: 0x8, addend: 0x0, symName: __ZNSt3__112__hash_tableINS_17__hash_value_typeINS_12basic_stringIcNS_11char_traitsIcEENS_9allocatorIcEEEEA256_cEENS_22__unordered_map_hasherIS7_S9_NS_4hashIS7_EENS_8equal_toIS7_EELb1EEENS_21__unordered_map_equalIS7_S9_SE_SC_Lb1EEENS5_IS9_EEE11__do_rehashILb1EEEvm, symObjAddr: 0x590C, symBinAddr: 0x28B98, symSize: 0x158 }
  - { offset: 0xEEE34, size: 0x8, addend: 0x0, symName: __ZNSt3__112__hash_tableINS_17__hash_value_typeINS_12basic_stringIcNS_11char_traitsIcEENS_9allocatorIcEEEEA256_cEENS_22__unordered_map_hasherIS7_S9_NS_4hashIS7_EENS_8equal_toIS7_EELb1EEENS_21__unordered_map_equalIS7_S9_SE_SC_Lb1EEENS5_IS9_EEE11__do_rehashILb1EEEvm, symObjAddr: 0x590C, symBinAddr: 0x28B98, symSize: 0x158 }
  - { offset: 0xEEE3C, size: 0x8, addend: 0x0, symName: __ZNSt3__122__hash_node_destructorINS_9allocatorINS_11__hash_nodeINS_17__hash_value_typeINS_12basic_stringIcNS_11char_traitsIcEENS1_IcEEEEA256_cEEPvEEEEEclB8nn180100EPSC_, symObjAddr: 0x5A64, symBinAddr: 0x28CF0, symSize: 0x4C }
  - { offset: 0xEF45B, size: 0x8, addend: 0x0, symName: __ZNSt3__122__hash_node_destructorINS_9allocatorINS_11__hash_nodeINS_17__hash_value_typeINS_12basic_stringIcNS_11char_traitsIcEENS1_IcEEEEA256_cEEPvEEEEEclB8nn180100EPSC_, symObjAddr: 0x5A64, symBinAddr: 0x28CF0, symSize: 0x4C }
  - { offset: 0xEFA64, size: 0x8, addend: 0x0, symName: __ZNSt3__16vectorI6OutputNS_9allocatorIS1_EEE21__push_back_slow_pathIRKS1_EEPS1_OT_, symObjAddr: 0x5B9C, symBinAddr: 0x28D3C, symSize: 0x120 }
  - { offset: 0xEFA6C, size: 0x8, addend: 0x0, symName: __ZNSt3__19allocatorI6OutputE9constructB8nn180100IS1_JRKS1_EEEvPT_DpOT0_, symObjAddr: 0x5CBC, symBinAddr: 0x28E5C, symSize: 0x98 }
  - { offset: 0xEFD58, size: 0x8, addend: 0x0, symName: __ZNSt3__19allocatorI6OutputE9constructB8nn180100IS1_JRKS1_EEEvPT_DpOT0_, symObjAddr: 0x5CBC, symBinAddr: 0x28E5C, symSize: 0x98 }
  - { offset: 0xEFDD8, size: 0x8, addend: 0x0, symName: __ZNSt3__19allocatorI6OutputE9constructB8nn180100IS1_JRKS1_EEEvPT_DpOT0_, symObjAddr: 0x5CBC, symBinAddr: 0x28E5C, symSize: 0x98 }
  - { offset: 0xEFDE0, size: 0x8, addend: 0x0, symName: __ZNSt3__16vectorI6OutputNS_9allocatorIS1_EEE26__swap_out_circular_bufferERNS_14__split_bufferIS1_RS3_EE, symObjAddr: 0x5D54, symBinAddr: 0x28EF4, symSize: 0xA4 }
  - { offset: 0xF0395, size: 0x8, addend: 0x0, symName: __ZNSt3__114__split_bufferI6OutputRNS_9allocatorIS1_EEED2Ev, symObjAddr: 0x5E40, symBinAddr: 0x28FE0, symSize: 0x30 }
  - { offset: 0xF039D, size: 0x8, addend: 0x0, symName: __ZNSt3__114__split_bufferI6OutputRNS_9allocatorIS1_EEE5clearB8nn180100Ev, symObjAddr: 0x5E70, symBinAddr: 0x29010, symSize: 0x44 }
  - { offset: 0xF059A, size: 0x8, addend: 0x0, symName: __ZNSt3__114__split_bufferI6OutputRNS_9allocatorIS1_EEE5clearB8nn180100Ev, symObjAddr: 0x5E70, symBinAddr: 0x29010, symSize: 0x44 }
  - { offset: 0xF05A2, size: 0x8, addend: 0x0, symName: __ZNSt3__19allocatorI6OutputE7destroyB8nn180100EPS1_, symObjAddr: 0x5EB4, symBinAddr: 0x29054, symSize: 0x44 }
  - { offset: 0xF06E0, size: 0x8, addend: 0x0, symName: __ZNSt3__19allocatorI6OutputE7destroyB8nn180100EPS1_, symObjAddr: 0x5EB4, symBinAddr: 0x29054, symSize: 0x44 }
  - { offset: 0xF06E8, size: 0x8, addend: 0x0, symName: __ZN6OutputC2ENSt3__112basic_stringIcNS0_11char_traitsIcEENS0_9allocatorIcEEEEbi.cold.1, symObjAddr: 0x5EF8, symBinAddr: 0x8C970, symSize: 0x14 }
  - { offset: 0xF097E, size: 0x8, addend: 0x0, symName: __ZN6OutputC2ENSt3__112basic_stringIcNS0_11char_traitsIcEENS0_9allocatorIcEEEEbi.cold.1, symObjAddr: 0x5EF8, symBinAddr: 0x8C970, symSize: 0x14 }
  - { offset: 0xF09A6, size: 0x8, addend: 0x0, symName: __ZN6OutputC2ENSt3__112basic_stringIcNS0_11char_traitsIcEENS0_9allocatorIcEEEEbi.cold.1, symObjAddr: 0x5EF8, symBinAddr: 0x8C970, symSize: 0x14 }
  - { offset: 0xF09CE, size: 0x8, addend: 0x0, symName: __ZN6OutputC2ENSt3__112basic_stringIcNS0_11char_traitsIcEENS0_9allocatorIcEEEEbi.cold.1, symObjAddr: 0x5EF8, symBinAddr: 0x8C970, symSize: 0x14 }
  - { offset: 0xF09FF, size: 0x8, addend: 0x0, symName: __ZN6OutputC2ENSt3__112basic_stringIcNS0_11char_traitsIcEENS0_9allocatorIcEEEEbi.cold.1, symObjAddr: 0x5EF8, symBinAddr: 0x8C970, symSize: 0x14 }
  - { offset: 0xF0A27, size: 0x8, addend: 0x0, symName: __ZN6OutputC2ENSt3__112basic_stringIcNS0_11char_traitsIcEENS0_9allocatorIcEEEEbi.cold.1, symObjAddr: 0x5EF8, symBinAddr: 0x8C970, symSize: 0x14 }
  - { offset: 0xF0A4A, size: 0x8, addend: 0x0, symName: __ZN6OutputC2ENSt3__112basic_stringIcNS0_11char_traitsIcEENS0_9allocatorIcEEEEbi.cold.1, symObjAddr: 0x5EF8, symBinAddr: 0x8C970, symSize: 0x14 }
  - { offset: 0xF0A6D, size: 0x8, addend: 0x0, symName: __ZN6OutputC2ENSt3__112basic_stringIcNS0_11char_traitsIcEENS0_9allocatorIcEEEEbi.cold.1, symObjAddr: 0x5EF8, symBinAddr: 0x8C970, symSize: 0x14 }
  - { offset: 0xF0A89, size: 0x8, addend: 0x0, symName: __ZN6OutputC2ENSt3__112basic_stringIcNS0_11char_traitsIcEENS0_9allocatorIcEEEEbi.cold.1, symObjAddr: 0x5EF8, symBinAddr: 0x8C970, symSize: 0x14 }
  - { offset: 0xF0AA6, size: 0x8, addend: 0x0, symName: __ZN6OutputC2ENSt3__112basic_stringIcNS0_11char_traitsIcEENS0_9allocatorIcEEEEbi.cold.1, symObjAddr: 0x5EF8, symBinAddr: 0x8C970, symSize: 0x14 }
  - { offset: 0xFEFBD, size: 0x8, addend: 0x0, symName: _SmilySans, symObjAddr: 0x1DE8, symBinAddr: 0xF4068, symSize: 0x0 }
  - { offset: 0xFEFDF, size: 0x8, addend: 0x0, symName: '-[ImGuiDrawViewX addFontsToImGui:]', symObjAddr: 0x250, symBinAddr: 0x29228, symSize: 0xDC }
  - { offset: 0xFEFE7, size: 0x8, addend: 0x0, symName: '+[ImGuiDrawViewX showChange:]', symObjAddr: 0x32C, symBinAddr: 0x29304, symSize: 0xC }
  - { offset: 0xFF00D, size: 0x8, addend: 0x0, symName: '__ZZ34-[ImGuiDrawViewX addFontsToImGui:]E11iconsRanges', symObjAddr: 0x284718, symBinAddr: 0xA6438, symSize: 0x0 }
  - { offset: 0xFF089, size: 0x8, addend: 0x0, symName: '-[ImGuiDrawViewX drawInMTKView:]', symObjAddr: 0xD18, symBinAddr: 0x29CF0, symSize: 0x378 }
  - { offset: 0xFF091, size: 0x8, addend: 0x0, symName: '-[ImGuiDrawViewX updateUserInteractionEnabled]', symObjAddr: 0x1090, symBinAddr: 0x2A068, symSize: 0xCC }
  - { offset: 0xFF0B7, size: 0x8, addend: 0x0, symName: '__ZZ32-[ImGuiDrawViewX drawInMTKView:]E6inited', symObjAddr: 0x2FD2F7, symBinAddr: 0x37AA38, symSize: 0x0 }
  - { offset: 0xFF198, size: 0x8, addend: 0x0, symName: __ZL11fontAwesome, symObjAddr: 0x28471E, symBinAddr: 0xA643E, symSize: 0x0 }
  - { offset: 0xFF1CE, size: 0x8, addend: 0x0, symName: __ZL11menuVisible, symObjAddr: 0x283E6C, symBinAddr: 0x3760EC, symSize: 0x0 }
  - { offset: 0xFFC46, size: 0x8, addend: 0x0, symName: '-[ImGuiDrawViewX initWithNibName:bundle:]', symObjAddr: 0xC0, symBinAddr: 0x29098, symSize: 0x11C }
  - { offset: 0xFFC4E, size: 0x8, addend: 0x0, symName: '-[ImGuiDrawViewX setupImGuiContext]', symObjAddr: 0x1DC, symBinAddr: 0x291B4, symSize: 0x74 }
  - { offset: 0xFFCB3, size: 0x8, addend: 0x0, symName: '-[ImGuiDrawViewX setupImGuiContext]', symObjAddr: 0x1DC, symBinAddr: 0x291B4, symSize: 0x74 }
  - { offset: 0xFFCBB, size: 0x8, addend: 0x0, symName: '-[ImGuiDrawViewX addFontsToImGui:]', symObjAddr: 0x250, symBinAddr: 0x29228, symSize: 0xDC }
  - { offset: 0xFFD05, size: 0x8, addend: 0x0, symName: '+[ImGuiDrawViewX showChange:]', symObjAddr: 0x32C, symBinAddr: 0x29304, symSize: 0xC }
  - { offset: 0xFFD0D, size: 0x8, addend: 0x0, symName: '+[ImGuiDrawViewX isMenuShowing]', symObjAddr: 0x338, symBinAddr: 0x29310, symSize: 0xC }
  - { offset: 0xFFD4F, size: 0x8, addend: 0x0, symName: '+[ImGuiDrawViewX isMenuShowing]', symObjAddr: 0x338, symBinAddr: 0x29310, symSize: 0xC }
  - { offset: 0xFFD57, size: 0x8, addend: 0x0, symName: '-[ImGuiDrawViewX mtkView]', symObjAddr: 0x344, symBinAddr: 0x2931C, symSize: 0x4 }
  - { offset: 0xFFD92, size: 0x8, addend: 0x0, symName: '-[ImGuiDrawViewX mtkView]', symObjAddr: 0x344, symBinAddr: 0x2931C, symSize: 0x4 }
  - { offset: 0xFFD9A, size: 0x8, addend: 0x0, symName: '-[ImGuiDrawViewX loadView]', symObjAddr: 0x348, symBinAddr: 0x29320, symSize: 0xEC }
  - { offset: 0xFFDD8, size: 0x8, addend: 0x0, symName: '-[ImGuiDrawViewX loadView]', symObjAddr: 0x348, symBinAddr: 0x29320, symSize: 0xEC }
  - { offset: 0xFFDE0, size: 0x8, addend: 0x0, symName: '-[ImGuiDrawViewX viewDidLoad]', symObjAddr: 0x434, symBinAddr: 0x2940C, symSize: 0x310 }
  - { offset: 0xFFE3D, size: 0x8, addend: 0x0, symName: '-[ImGuiDrawViewX viewDidLoad]', symObjAddr: 0x434, symBinAddr: 0x2940C, symSize: 0x310 }
  - { offset: 0xFFE45, size: 0x8, addend: 0x0, symName: '-[ImGuiDrawViewX textFieldDidBeginEditing:]', symObjAddr: 0x744, symBinAddr: 0x2971C, symSize: 0x5C }
  - { offset: 0xFFE7C, size: 0x8, addend: 0x0, symName: '-[ImGuiDrawViewX textFieldDidBeginEditing:]', symObjAddr: 0x744, symBinAddr: 0x2971C, symSize: 0x5C }
  - { offset: 0xFFE84, size: 0x8, addend: 0x0, symName: '-[ImGuiDrawViewX textFieldDidEndEditing:]', symObjAddr: 0x7A0, symBinAddr: 0x29778, symSize: 0x5C }
  - { offset: 0xFFECA, size: 0x8, addend: 0x0, symName: '-[ImGuiDrawViewX textFieldDidEndEditing:]', symObjAddr: 0x7A0, symBinAddr: 0x29778, symSize: 0x5C }
  - { offset: 0xFFED2, size: 0x8, addend: 0x0, symName: '-[ImGuiDrawViewX textFieldShouldDelete:]', symObjAddr: 0x7FC, symBinAddr: 0x297D4, symSize: 0x98 }
  - { offset: 0xFFF18, size: 0x8, addend: 0x0, symName: '-[ImGuiDrawViewX textFieldShouldDelete:]', symObjAddr: 0x7FC, symBinAddr: 0x297D4, symSize: 0x98 }
  - { offset: 0xFFF20, size: 0x8, addend: 0x0, symName: '___40-[ImGuiDrawViewX textFieldShouldDelete:]_block_invoke', symObjAddr: 0x894, symBinAddr: 0x2986C, symSize: 0x18 }
  - { offset: 0xFFF74, size: 0x8, addend: 0x0, symName: '___40-[ImGuiDrawViewX textFieldShouldDelete:]_block_invoke', symObjAddr: 0x894, symBinAddr: 0x2986C, symSize: 0x18 }
  - { offset: 0xFFF7C, size: 0x8, addend: 0x0, symName: '-[ImGuiDrawViewX textField:shouldChangeCharactersInRange:replacementString:]', symObjAddr: 0x8AC, symBinAddr: 0x29884, symSize: 0x200 }
  - { offset: 0xFFFA6, size: 0x8, addend: 0x0, symName: '-[ImGuiDrawViewX textField:shouldChangeCharactersInRange:replacementString:]', symObjAddr: 0x8AC, symBinAddr: 0x29884, symSize: 0x200 }
  - { offset: 0xFFFAE, size: 0x8, addend: 0x0, symName: '___76-[ImGuiDrawViewX textField:shouldChangeCharactersInRange:replacementString:]_block_invoke', symObjAddr: 0xAAC, symBinAddr: 0x29A84, symSize: 0x64 }
  - { offset: 0x10004D, size: 0x8, addend: 0x0, symName: '___76-[ImGuiDrawViewX textField:shouldChangeCharactersInRange:replacementString:]_block_invoke', symObjAddr: 0xAAC, symBinAddr: 0x29A84, symSize: 0x64 }
  - { offset: 0x100055, size: 0x8, addend: 0x0, symName: '___76-[ImGuiDrawViewX textField:shouldChangeCharactersInRange:replacementString:]_block_invoke_2', symObjAddr: 0xB10, symBinAddr: 0x29AE8, symSize: 0x60 }
  - { offset: 0x1000E5, size: 0x8, addend: 0x0, symName: '___76-[ImGuiDrawViewX textField:shouldChangeCharactersInRange:replacementString:]_block_invoke_2', symObjAddr: 0xB10, symBinAddr: 0x29AE8, symSize: 0x60 }
  - { offset: 0x1000ED, size: 0x8, addend: 0x0, symName: ___copy_helper_block_ea8_32s, symObjAddr: 0xB70, symBinAddr: 0x29B48, symSize: 0x8 }
  - { offset: 0x100119, size: 0x8, addend: 0x0, symName: ___copy_helper_block_ea8_32s, symObjAddr: 0xB70, symBinAddr: 0x29B48, symSize: 0x8 }
  - { offset: 0x100121, size: 0x8, addend: 0x0, symName: ___destroy_helper_block_ea8_32s, symObjAddr: 0xB78, symBinAddr: 0x29B50, symSize: 0x8 }
  - { offset: 0x100150, size: 0x8, addend: 0x0, symName: ___destroy_helper_block_ea8_32s, symObjAddr: 0xB78, symBinAddr: 0x29B50, symSize: 0x8 }
  - { offset: 0x100158, size: 0x8, addend: 0x0, symName: '-[ImGuiDrawViewX updateIOWithTouchEvent:]', symObjAddr: 0xB80, symBinAddr: 0x29B58, symSize: 0x178 }
  - { offset: 0x10017A, size: 0x8, addend: 0x0, symName: '-[ImGuiDrawViewX updateIOWithTouchEvent:]', symObjAddr: 0xB80, symBinAddr: 0x29B58, symSize: 0x178 }
  - { offset: 0x100182, size: 0x8, addend: 0x0, symName: '-[ImGuiDrawViewX touchesBegan:withEvent:]', symObjAddr: 0xCF8, symBinAddr: 0x29CD0, symSize: 0x8 }
  - { offset: 0x100205, size: 0x8, addend: 0x0, symName: '-[ImGuiDrawViewX touchesBegan:withEvent:]', symObjAddr: 0xCF8, symBinAddr: 0x29CD0, symSize: 0x8 }
  - { offset: 0x10020D, size: 0x8, addend: 0x0, symName: '-[ImGuiDrawViewX touchesMoved:withEvent:]', symObjAddr: 0xD00, symBinAddr: 0x29CD8, symSize: 0x8 }
  - { offset: 0x100265, size: 0x8, addend: 0x0, symName: '-[ImGuiDrawViewX touchesMoved:withEvent:]', symObjAddr: 0xD00, symBinAddr: 0x29CD8, symSize: 0x8 }
  - { offset: 0x10026D, size: 0x8, addend: 0x0, symName: '-[ImGuiDrawViewX touchesCancelled:withEvent:]', symObjAddr: 0xD08, symBinAddr: 0x29CE0, symSize: 0x8 }
  - { offset: 0x1002C5, size: 0x8, addend: 0x0, symName: '-[ImGuiDrawViewX touchesCancelled:withEvent:]', symObjAddr: 0xD08, symBinAddr: 0x29CE0, symSize: 0x8 }
  - { offset: 0x1002CD, size: 0x8, addend: 0x0, symName: '-[ImGuiDrawViewX touchesEnded:withEvent:]', symObjAddr: 0xD10, symBinAddr: 0x29CE8, symSize: 0x8 }
  - { offset: 0x100325, size: 0x8, addend: 0x0, symName: '-[ImGuiDrawViewX touchesEnded:withEvent:]', symObjAddr: 0xD10, symBinAddr: 0x29CE8, symSize: 0x8 }
  - { offset: 0x10032D, size: 0x8, addend: 0x0, symName: '-[ImGuiDrawViewX drawInMTKView:]', symObjAddr: 0xD18, symBinAddr: 0x29CF0, symSize: 0x378 }
  - { offset: 0x100385, size: 0x8, addend: 0x0, symName: '-[ImGuiDrawViewX updateUserInteractionEnabled]', symObjAddr: 0x1090, symBinAddr: 0x2A068, symSize: 0xCC }
  - { offset: 0x10038D, size: 0x8, addend: 0x0, symName: '-[ImGuiDrawViewX mtkView:drawableSizeWillChange:]', symObjAddr: 0x115C, symBinAddr: 0x2A134, symSize: 0x4 }
  - { offset: 0x1003D5, size: 0x8, addend: 0x0, symName: '-[ImGuiDrawViewX mtkView:drawableSizeWillChange:]', symObjAddr: 0x115C, symBinAddr: 0x2A134, symSize: 0x4 }
  - { offset: 0x1003DD, size: 0x8, addend: 0x0, symName: '-[ImGuiDrawViewX hasText]', symObjAddr: 0x1160, symBinAddr: 0x2A138, symSize: 0x8 }
  - { offset: 0x100431, size: 0x8, addend: 0x0, symName: '-[ImGuiDrawViewX hasText]', symObjAddr: 0x1160, symBinAddr: 0x2A138, symSize: 0x8 }
  - { offset: 0x100439, size: 0x8, addend: 0x0, symName: '-[ImGuiDrawViewX insertText:]', symObjAddr: 0x1168, symBinAddr: 0x2A140, symSize: 0xCC }
  - { offset: 0x100475, size: 0x8, addend: 0x0, symName: '-[ImGuiDrawViewX insertText:]', symObjAddr: 0x1168, symBinAddr: 0x2A140, symSize: 0xCC }
  - { offset: 0x10047D, size: 0x8, addend: 0x0, symName: '-[ImGuiDrawViewX deleteBackward]', symObjAddr: 0x1234, symBinAddr: 0x2A20C, symSize: 0x8C }
  - { offset: 0x1004F1, size: 0x8, addend: 0x0, symName: '-[ImGuiDrawViewX deleteBackward]', symObjAddr: 0x1234, symBinAddr: 0x2A20C, symSize: 0x8C }
  - { offset: 0x1004F9, size: 0x8, addend: 0x0, symName: '___32-[ImGuiDrawViewX deleteBackward]_block_invoke', symObjAddr: 0x12C0, symBinAddr: 0x2A298, symSize: 0x18 }
  - { offset: 0x100541, size: 0x8, addend: 0x0, symName: '___32-[ImGuiDrawViewX deleteBackward]_block_invoke', symObjAddr: 0x12C0, symBinAddr: 0x2A298, symSize: 0x18 }
  - { offset: 0x100549, size: 0x8, addend: 0x0, symName: '-[ImGuiDrawViewX canBecomeFirstResponder]', symObjAddr: 0x12D8, symBinAddr: 0x2A2B0, symSize: 0x8 }
  - { offset: 0x100575, size: 0x8, addend: 0x0, symName: '-[ImGuiDrawViewX canBecomeFirstResponder]', symObjAddr: 0x12D8, symBinAddr: 0x2A2B0, symSize: 0x8 }
  - { offset: 0x10057D, size: 0x8, addend: 0x0, symName: '-[ImGuiDrawViewX keyboardWillShow:]', symObjAddr: 0x12E0, symBinAddr: 0x2A2B8, symSize: 0x58 }
  - { offset: 0x1005B9, size: 0x8, addend: 0x0, symName: '-[ImGuiDrawViewX keyboardWillShow:]', symObjAddr: 0x12E0, symBinAddr: 0x2A2B8, symSize: 0x58 }
  - { offset: 0x1005C1, size: 0x8, addend: 0x0, symName: '-[ImGuiDrawViewX keyboardWillHide:]', symObjAddr: 0x1338, symBinAddr: 0x2A310, symSize: 0x58 }
  - { offset: 0x100609, size: 0x8, addend: 0x0, symName: '-[ImGuiDrawViewX keyboardWillHide:]', symObjAddr: 0x1338, symBinAddr: 0x2A310, symSize: 0x58 }
  - { offset: 0x100611, size: 0x8, addend: 0x0, symName: '-[ImGuiDrawViewX dealloc]', symObjAddr: 0x1390, symBinAddr: 0x2A368, symSize: 0xA8 }
  - { offset: 0x100659, size: 0x8, addend: 0x0, symName: '-[ImGuiDrawViewX dealloc]', symObjAddr: 0x1390, symBinAddr: 0x2A368, symSize: 0xA8 }
  - { offset: 0x100699, size: 0x8, addend: 0x0, symName: '-[ImGuiDrawViewX textField]', symObjAddr: 0x1448, symBinAddr: 0x2A410, symSize: 0x10 }
  - { offset: 0x1006A1, size: 0x8, addend: 0x0, symName: '-[ImGuiDrawViewX setTextField:]', symObjAddr: 0x1458, symBinAddr: 0x2A420, symSize: 0x14 }
  - { offset: 0x1006E1, size: 0x8, addend: 0x0, symName: '-[ImGuiDrawViewX setTextField:]', symObjAddr: 0x1458, symBinAddr: 0x2A420, symSize: 0x14 }
  - { offset: 0x1006E9, size: 0x8, addend: 0x0, symName: '-[ImGuiDrawViewX isKeyboardVisible]', symObjAddr: 0x146C, symBinAddr: 0x2A434, symSize: 0x10 }
  - { offset: 0x100733, size: 0x8, addend: 0x0, symName: '-[ImGuiDrawViewX isKeyboardVisible]', symObjAddr: 0x146C, symBinAddr: 0x2A434, symSize: 0x10 }
  - { offset: 0x10073B, size: 0x8, addend: 0x0, symName: '-[ImGuiDrawViewX setIsKeyboardVisible:]', symObjAddr: 0x147C, symBinAddr: 0x2A444, symSize: 0x10 }
  - { offset: 0x10077B, size: 0x8, addend: 0x0, symName: '-[ImGuiDrawViewX setIsKeyboardVisible:]', symObjAddr: 0x147C, symBinAddr: 0x2A444, symSize: 0x10 }
  - { offset: 0x100783, size: 0x8, addend: 0x0, symName: '-[ImGuiDrawViewX device]', symObjAddr: 0x148C, symBinAddr: 0x2A454, symSize: 0x10 }
  - { offset: 0x1007C8, size: 0x8, addend: 0x0, symName: '-[ImGuiDrawViewX device]', symObjAddr: 0x148C, symBinAddr: 0x2A454, symSize: 0x10 }
  - { offset: 0x1007D0, size: 0x8, addend: 0x0, symName: '-[ImGuiDrawViewX setDevice:]', symObjAddr: 0x149C, symBinAddr: 0x2A464, symSize: 0x14 }
  - { offset: 0x100810, size: 0x8, addend: 0x0, symName: '-[ImGuiDrawViewX setDevice:]', symObjAddr: 0x149C, symBinAddr: 0x2A464, symSize: 0x14 }
  - { offset: 0x100818, size: 0x8, addend: 0x0, symName: '-[ImGuiDrawViewX commandQueue]', symObjAddr: 0x14B0, symBinAddr: 0x2A478, symSize: 0x10 }
  - { offset: 0x100862, size: 0x8, addend: 0x0, symName: '-[ImGuiDrawViewX commandQueue]', symObjAddr: 0x14B0, symBinAddr: 0x2A478, symSize: 0x10 }
  - { offset: 0x10086A, size: 0x8, addend: 0x0, symName: '-[ImGuiDrawViewX setCommandQueue:]', symObjAddr: 0x14C0, symBinAddr: 0x2A488, symSize: 0x14 }
  - { offset: 0x1008AA, size: 0x8, addend: 0x0, symName: '-[ImGuiDrawViewX setCommandQueue:]', symObjAddr: 0x14C0, symBinAddr: 0x2A488, symSize: 0x14 }
  - { offset: 0x1008B2, size: 0x8, addend: 0x0, symName: '-[ImGuiDrawViewX .cxx_destruct]', symObjAddr: 0x14D4, symBinAddr: 0x2A49C, symSize: 0x54 }
  - { offset: 0x1008FC, size: 0x8, addend: 0x0, symName: '-[ImGuiDrawViewX .cxx_destruct]', symObjAddr: 0x14D4, symBinAddr: 0x2A49C, symSize: 0x54 }
  - { offset: 0x106E18, size: 0x8, addend: 0x0, symName: __ZL9extraInfo, symObjAddr: 0x1B750, symBinAddr: 0x37AA40, symSize: 0x0 }
  - { offset: 0x106FDA, size: 0x8, addend: 0x0, symName: _MenuOrigin, symObjAddr: 0x1B758, symBinAddr: 0x37A7D0, symSize: 0x0 }
  - { offset: 0x106FF5, size: 0x8, addend: 0x0, symName: _MenuSize, symObjAddr: 0x1B760, symBinAddr: 0x37A7D8, symSize: 0x0 }
  - { offset: 0x107010, size: 0x8, addend: 0x0, symName: _InvisibleMenuButton, symObjAddr: 0x1B768, symBinAddr: 0x37A7E0, symSize: 0x0 }
  - { offset: 0x10805D, size: 0x8, addend: 0x0, symName: _VisibleMenuButton, symObjAddr: 0x1B770, symBinAddr: 0x37A7E8, symSize: 0x0 }
  - { offset: 0x108078, size: 0x8, addend: 0x0, symName: _menuTouchView, symObjAddr: 0x1B778, symBinAddr: 0x37A7F0, symSize: 0x0 }
  - { offset: 0x1080B4, size: 0x8, addend: 0x0, symName: _hideRecordTextfield, symObjAddr: 0x1B780, symBinAddr: 0x37A7F8, symSize: 0x0 }
  - { offset: 0x1080CF, size: 0x8, addend: 0x0, symName: _hideRecordView, symObjAddr: 0x1B788, symBinAddr: 0x37A800, symSize: 0x0 }
  - { offset: 0x1080EA, size: 0x8, addend: 0x0, symName: _StreamerMode, symObjAddr: 0x1B790, symBinAddr: 0x37A808, symSize: 0x0 }
  - { offset: 0x108105, size: 0x8, addend: 0x0, symName: _MoveMenu, symObjAddr: 0x1948, symBinAddr: 0x376150, symSize: 0x0 }
  - { offset: 0x108120, size: 0x8, addend: 0x0, symName: _isOpened, symObjAddr: 0x1B791, symBinAddr: 0x37A809, symSize: 0x0 }
  - { offset: 0x108157, size: 0x8, addend: 0x0, symName: '-[MenuInteraction pointInside:withEvent:]', symObjAddr: 0x0, symBinAddr: 0x2A7B0, symSize: 0xCC }
  - { offset: 0x10815F, size: 0x8, addend: 0x0, symName: '-[MenuInteraction touchesBegan:withEvent:]', symObjAddr: 0xCC, symBinAddr: 0x2A87C, symSize: 0x7C }
  - { offset: 0x1081D3, size: 0x8, addend: 0x0, symName: '-[MenuInteraction touchesBegan:withEvent:]', symObjAddr: 0xCC, symBinAddr: 0x2A87C, symSize: 0x7C }
  - { offset: 0x1081DB, size: 0x8, addend: 0x0, symName: '-[MenuInteraction touchesMoved:withEvent:]', symObjAddr: 0x148, symBinAddr: 0x2A8F8, symSize: 0x7C }
  - { offset: 0x108230, size: 0x8, addend: 0x0, symName: '-[MenuInteraction touchesMoved:withEvent:]', symObjAddr: 0x148, symBinAddr: 0x2A8F8, symSize: 0x7C }
  - { offset: 0x108238, size: 0x8, addend: 0x0, symName: '-[MenuInteraction touchesCancelled:withEvent:]', symObjAddr: 0x1C4, symBinAddr: 0x2A974, symSize: 0x7C }
  - { offset: 0x10828D, size: 0x8, addend: 0x0, symName: '-[MenuInteraction touchesCancelled:withEvent:]', symObjAddr: 0x1C4, symBinAddr: 0x2A974, symSize: 0x7C }
  - { offset: 0x108295, size: 0x8, addend: 0x0, symName: '-[MenuInteraction touchesEnded:withEvent:]', symObjAddr: 0x240, symBinAddr: 0x2A9F0, symSize: 0x7C }
  - { offset: 0x1082EA, size: 0x8, addend: 0x0, symName: '-[MenuInteraction touchesEnded:withEvent:]', symObjAddr: 0x240, symBinAddr: 0x2A9F0, symSize: 0x7C }
  - { offset: 0x1082F2, size: 0x8, addend: 0x0, symName: '-[MenuUtils GetImGuiView]', symObjAddr: 0x2BC, symBinAddr: 0x2AA6C, symSize: 0x8 }
  - { offset: 0x108347, size: 0x8, addend: 0x0, symName: '-[MenuUtils GetImGuiView]', symObjAddr: 0x2BC, symBinAddr: 0x2AA6C, symSize: 0x8 }
  - { offset: 0x10834F, size: 0x8, addend: 0x0, symName: '+[MenuUtils loadMenu]', symObjAddr: 0x2C4, symBinAddr: 0x2AA74, symSize: 0x58 }
  - { offset: 0x10838E, size: 0x8, addend: 0x0, symName: '+[MenuUtils loadMenu]', symObjAddr: 0x2C4, symBinAddr: 0x2AA74, symSize: 0x58 }
  - { offset: 0x108396, size: 0x8, addend: 0x0, symName: '___21+[MenuUtils loadMenu]_block_invoke', symObjAddr: 0x31C, symBinAddr: 0x2AACC, symSize: 0x3C }
  - { offset: 0x1083CC, size: 0x8, addend: 0x0, symName: '___21+[MenuUtils loadMenu]_block_invoke', symObjAddr: 0x31C, symBinAddr: 0x2AACC, symSize: 0x3C }
  - { offset: 0x1083D4, size: 0x8, addend: 0x0, symName: '-[MenuUtils initTapGes]', symObjAddr: 0x358, symBinAddr: 0x2AB08, symSize: 0x8B4 }
  - { offset: 0x1083FC, size: 0x8, addend: 0x0, symName: '-[MenuUtils initTapGes]', symObjAddr: 0x358, symBinAddr: 0x2AB08, symSize: 0x8B4 }
  - { offset: 0x108404, size: 0x8, addend: 0x0, symName: '-[MenuUtils showMenu:]', symObjAddr: 0xC0C, symBinAddr: 0x2B3BC, symSize: 0xAC }
  - { offset: 0x1084BF, size: 0x8, addend: 0x0, symName: '-[MenuUtils showMenu:]', symObjAddr: 0xC0C, symBinAddr: 0x2B3BC, symSize: 0xAC }
  - { offset: 0x1084C7, size: 0x8, addend: 0x0, symName: '___22-[MenuUtils showMenu:]_block_invoke', symObjAddr: 0xCB8, symBinAddr: 0x2B468, symSize: 0x4C }
  - { offset: 0x10850C, size: 0x8, addend: 0x0, symName: '___22-[MenuUtils showMenu:]_block_invoke', symObjAddr: 0xCB8, symBinAddr: 0x2B468, symSize: 0x4C }
  - { offset: 0x108514, size: 0x8, addend: 0x0, symName: '___22-[MenuUtils showMenu:]_block_invoke_2', symObjAddr: 0xD04, symBinAddr: 0x2B4B4, symSize: 0x40 }
  - { offset: 0x10853B, size: 0x8, addend: 0x0, symName: '___22-[MenuUtils showMenu:]_block_invoke_2', symObjAddr: 0xD04, symBinAddr: 0x2B4B4, symSize: 0x40 }
  - { offset: 0x108543, size: 0x8, addend: 0x0, symName: '-[MenuUtils buttonDragged:withEvent:]', symObjAddr: 0xD44, symBinAddr: 0x2B4F4, symSize: 0x308 }
  - { offset: 0x10856B, size: 0x8, addend: 0x0, symName: '-[MenuUtils buttonDragged:withEvent:]', symObjAddr: 0xD44, symBinAddr: 0x2B4F4, symSize: 0x308 }
  - { offset: 0x108573, size: 0x8, addend: 0x0, symName: '-[MenuUtils buttonDragStarted:]', symObjAddr: 0x104C, symBinAddr: 0x2B7FC, symSize: 0xA8 }
  - { offset: 0x10863E, size: 0x8, addend: 0x0, symName: '-[MenuUtils buttonDragStarted:]', symObjAddr: 0x104C, symBinAddr: 0x2B7FC, symSize: 0xA8 }
  - { offset: 0x108646, size: 0x8, addend: 0x0, symName: '___31-[MenuUtils buttonDragStarted:]_block_invoke', symObjAddr: 0x10F4, symBinAddr: 0x2B8A4, symSize: 0x94 }
  - { offset: 0x10868B, size: 0x8, addend: 0x0, symName: '___31-[MenuUtils buttonDragStarted:]_block_invoke', symObjAddr: 0x10F4, symBinAddr: 0x2B8A4, symSize: 0x94 }
  - { offset: 0x1086BF, size: 0x8, addend: 0x0, symName: '-[MenuUtils buttonDragEnded:]', symObjAddr: 0x1198, symBinAddr: 0x2B938, symSize: 0xA8 }
  - { offset: 0x1086C7, size: 0x8, addend: 0x0, symName: '___29-[MenuUtils buttonDragEnded:]_block_invoke', symObjAddr: 0x1240, symBinAddr: 0x2B9E0, symSize: 0xC4 }
  - { offset: 0x10870C, size: 0x8, addend: 0x0, symName: '___29-[MenuUtils buttonDragEnded:]_block_invoke', symObjAddr: 0x1240, symBinAddr: 0x2B9E0, symSize: 0xC4 }
  - { offset: 0x108714, size: 0x8, addend: 0x0, symName: '-[MenuUtils vna]', symObjAddr: 0x1304, symBinAddr: 0x2BAA4, symSize: 0x8 }
  - { offset: 0x108740, size: 0x8, addend: 0x0, symName: '-[MenuUtils vna]', symObjAddr: 0x1304, symBinAddr: 0x2BAA4, symSize: 0x8 }
  - { offset: 0x108748, size: 0x8, addend: 0x0, symName: '-[MenuUtils setVna:]', symObjAddr: 0x130C, symBinAddr: 0x2BAAC, symSize: 0xC }
  - { offset: 0x108788, size: 0x8, addend: 0x0, symName: '-[MenuUtils setVna:]', symObjAddr: 0x130C, symBinAddr: 0x2BAAC, symSize: 0xC }
  - { offset: 0x108790, size: 0x8, addend: 0x0, symName: '-[MenuUtils .cxx_destruct]', symObjAddr: 0x1318, symBinAddr: 0x2BAB8, symSize: 0xC }
  - { offset: 0x1087DA, size: 0x8, addend: 0x0, symName: '-[MenuUtils .cxx_destruct]', symObjAddr: 0x1318, symBinAddr: 0x2BAB8, symSize: 0xC }
  - { offset: 0x108BFA, size: 0x8, addend: 0x0, symName: __Z20ImGui_ImplMetal_InitPU19objcproto9MTLDevice11objc_object, symObjAddr: 0x0, symBinAddr: 0x2BC78, symSize: 0x8C }
  - { offset: 0x108C1C, size: 0x8, addend: 0x0, symName: __ZL20g_sharedMetalContext, symObjAddr: 0x1B8F0, symBinAddr: 0x37AA48, symSize: 0x0 }
  - { offset: 0x108E8D, size: 0x8, addend: 0x0, symName: __Z20ImGui_ImplMetal_InitPU19objcproto9MTLDevice11objc_object, symObjAddr: 0x0, symBinAddr: 0x2BC78, symSize: 0x8C }
  - { offset: 0x108E95, size: 0x8, addend: 0x0, symName: ____Z20ImGui_ImplMetal_InitPU19objcproto9MTLDevice11objc_object_block_invoke, symObjAddr: 0x8C, symBinAddr: 0x2BD04, symSize: 0x30 }
  - { offset: 0x108EC4, size: 0x8, addend: 0x0, symName: __ZZ20ImGui_ImplMetal_InitPU19objcproto9MTLDevice11objc_objectE9onceToken, symObjAddr: 0x1B8F8, symBinAddr: 0x37AA50, symSize: 0x0 }
  - { offset: 0x10920E, size: 0x8, addend: 0x0, symName: ____Z20ImGui_ImplMetal_InitPU19objcproto9MTLDevice11objc_object_block_invoke, symObjAddr: 0x8C, symBinAddr: 0x2BD04, symSize: 0x30 }
  - { offset: 0x109216, size: 0x8, addend: 0x0, symName: __Z35ImGui_ImplMetal_CreateDeviceObjectsPU19objcproto9MTLDevice11objc_object, symObjAddr: 0xBC, symBinAddr: 0x2BD34, symSize: 0x58 }
  - { offset: 0x10923D, size: 0x8, addend: 0x0, symName: __Z35ImGui_ImplMetal_CreateDeviceObjectsPU19objcproto9MTLDevice11objc_object, symObjAddr: 0xBC, symBinAddr: 0x2BD34, symSize: 0x58 }
  - { offset: 0x109245, size: 0x8, addend: 0x0, symName: __Z24ImGui_ImplMetal_Shutdownv, symObjAddr: 0x114, symBinAddr: 0x2BD8C, symSize: 0x3C }
  - { offset: 0x1092D7, size: 0x8, addend: 0x0, symName: __Z24ImGui_ImplMetal_Shutdownv, symObjAddr: 0x114, symBinAddr: 0x2BD8C, symSize: 0x3C }
  - { offset: 0x1092DF, size: 0x8, addend: 0x0, symName: __Z36ImGui_ImplMetal_DestroyDeviceObjectsv, symObjAddr: 0x150, symBinAddr: 0x2BDC8, symSize: 0x3C }
  - { offset: 0x109305, size: 0x8, addend: 0x0, symName: __Z36ImGui_ImplMetal_DestroyDeviceObjectsv, symObjAddr: 0x150, symBinAddr: 0x2BDC8, symSize: 0x3C }
  - { offset: 0x109370, size: 0x8, addend: 0x0, symName: __Z36ImGui_ImplMetal_DestroyDeviceObjectsv, symObjAddr: 0x150, symBinAddr: 0x2BDC8, symSize: 0x3C }
  - { offset: 0x109378, size: 0x8, addend: 0x0, symName: __Z24ImGui_ImplMetal_NewFrameP23MTLRenderPassDescriptor, symObjAddr: 0x18C, symBinAddr: 0x2BE04, symSize: 0x80 }
  - { offset: 0x1093E8, size: 0x8, addend: 0x0, symName: __Z24ImGui_ImplMetal_NewFrameP23MTLRenderPassDescriptor, symObjAddr: 0x18C, symBinAddr: 0x2BE04, symSize: 0x80 }
  - { offset: 0x1093F0, size: 0x8, addend: 0x0, symName: __Z30ImGui_ImplMetal_RenderDrawDataP10ImDrawDataPU27objcproto16MTLCommandBuffer11objc_objectPU34objcproto23MTLRenderCommandEncoder11objc_object, symObjAddr: 0x20C, symBinAddr: 0x2BE84, symSize: 0x18 }
  - { offset: 0x10941A, size: 0x8, addend: 0x0, symName: __Z30ImGui_ImplMetal_RenderDrawDataP10ImDrawDataPU27objcproto16MTLCommandBuffer11objc_objectPU34objcproto23MTLRenderCommandEncoder11objc_object, symObjAddr: 0x20C, symBinAddr: 0x2BE84, symSize: 0x18 }
  - { offset: 0x109422, size: 0x8, addend: 0x0, symName: __Z34ImGui_ImplMetal_CreateFontsTexturePU19objcproto9MTLDevice11objc_object, symObjAddr: 0x224, symBinAddr: 0x2BE9C, symSize: 0x68 }
  - { offset: 0x109472, size: 0x8, addend: 0x0, symName: __Z34ImGui_ImplMetal_CreateFontsTexturePU19objcproto9MTLDevice11objc_object, symObjAddr: 0x224, symBinAddr: 0x2BE9C, symSize: 0x68 }
  - { offset: 0x10947A, size: 0x8, addend: 0x0, symName: __Z35ImGui_ImplMetal_DestroyFontsTexturev, symObjAddr: 0x28C, symBinAddr: 0x2BF04, symSize: 0x38 }
  - { offset: 0x1094F3, size: 0x8, addend: 0x0, symName: __Z35ImGui_ImplMetal_DestroyFontsTexturev, symObjAddr: 0x28C, symBinAddr: 0x2BF04, symSize: 0x38 }
  - { offset: 0x1094FB, size: 0x8, addend: 0x0, symName: '-[MetalBuffer initWithBuffer:]', symObjAddr: 0x2C4, symBinAddr: 0x2BF3C, symSize: 0xDC }
  - { offset: 0x10954F, size: 0x8, addend: 0x0, symName: '-[MetalBuffer initWithBuffer:]', symObjAddr: 0x2C4, symBinAddr: 0x2BF3C, symSize: 0xDC }
  - { offset: 0x109557, size: 0x8, addend: 0x0, symName: '-[MetalBuffer buffer]', symObjAddr: 0x3A0, symBinAddr: 0x2C018, symSize: 0x8 }
  - { offset: 0x1095A9, size: 0x8, addend: 0x0, symName: '-[MetalBuffer buffer]', symObjAddr: 0x3A0, symBinAddr: 0x2C018, symSize: 0x8 }
  - { offset: 0x1095B1, size: 0x8, addend: 0x0, symName: '-[MetalBuffer setBuffer:]', symObjAddr: 0x3A8, symBinAddr: 0x2C020, symSize: 0xC }
  - { offset: 0x1095F1, size: 0x8, addend: 0x0, symName: '-[MetalBuffer setBuffer:]', symObjAddr: 0x3A8, symBinAddr: 0x2C020, symSize: 0xC }
  - { offset: 0x1095F9, size: 0x8, addend: 0x0, symName: '-[MetalBuffer lastReuseTime]', symObjAddr: 0x3B4, symBinAddr: 0x2C02C, symSize: 0x8 }
  - { offset: 0x109643, size: 0x8, addend: 0x0, symName: '-[MetalBuffer lastReuseTime]', symObjAddr: 0x3B4, symBinAddr: 0x2C02C, symSize: 0x8 }
  - { offset: 0x10964B, size: 0x8, addend: 0x0, symName: '-[MetalBuffer setLastReuseTime:]', symObjAddr: 0x3BC, symBinAddr: 0x2C034, symSize: 0x8 }
  - { offset: 0x10968A, size: 0x8, addend: 0x0, symName: '-[MetalBuffer setLastReuseTime:]', symObjAddr: 0x3BC, symBinAddr: 0x2C034, symSize: 0x8 }
  - { offset: 0x109692, size: 0x8, addend: 0x0, symName: '-[MetalBuffer .cxx_destruct]', symObjAddr: 0x3C4, symBinAddr: 0x2C03C, symSize: 0xC }
  - { offset: 0x1096DA, size: 0x8, addend: 0x0, symName: '-[MetalBuffer .cxx_destruct]', symObjAddr: 0x3C4, symBinAddr: 0x2C03C, symSize: 0xC }
  - { offset: 0x1096E2, size: 0x8, addend: 0x0, symName: '-[FramebufferDescriptor initWithRenderPassDescriptor:]', symObjAddr: 0x3D0, symBinAddr: 0x2C048, symSize: 0x21C }
  - { offset: 0x10971A, size: 0x8, addend: 0x0, symName: '-[FramebufferDescriptor initWithRenderPassDescriptor:]', symObjAddr: 0x3D0, symBinAddr: 0x2C048, symSize: 0x21C }
  - { offset: 0x109722, size: 0x8, addend: 0x0, symName: '-[FramebufferDescriptor copyWithZone:]', symObjAddr: 0x5EC, symBinAddr: 0x2C264, symSize: 0x98 }
  - { offset: 0x109774, size: 0x8, addend: 0x0, symName: '-[FramebufferDescriptor copyWithZone:]', symObjAddr: 0x5EC, symBinAddr: 0x2C264, symSize: 0x98 }
  - { offset: 0x10977C, size: 0x8, addend: 0x0, symName: '-[FramebufferDescriptor hash]', symObjAddr: 0x684, symBinAddr: 0x2C2FC, symSize: 0x28 }
  - { offset: 0x1097E1, size: 0x8, addend: 0x0, symName: '-[FramebufferDescriptor hash]', symObjAddr: 0x684, symBinAddr: 0x2C2FC, symSize: 0x28 }
  - { offset: 0x1097E9, size: 0x8, addend: 0x0, symName: '-[FramebufferDescriptor isEqual:]', symObjAddr: 0x6AC, symBinAddr: 0x2C324, symSize: 0xF8 }
  - { offset: 0x10987B, size: 0x8, addend: 0x0, symName: '-[FramebufferDescriptor isEqual:]', symObjAddr: 0x6AC, symBinAddr: 0x2C324, symSize: 0xF8 }
  - { offset: 0x109883, size: 0x8, addend: 0x0, symName: '-[FramebufferDescriptor sampleCount]', symObjAddr: 0x7A4, symBinAddr: 0x2C41C, symSize: 0x8 }
  - { offset: 0x1098E4, size: 0x8, addend: 0x0, symName: '-[FramebufferDescriptor sampleCount]', symObjAddr: 0x7A4, symBinAddr: 0x2C41C, symSize: 0x8 }
  - { offset: 0x1098EC, size: 0x8, addend: 0x0, symName: '-[FramebufferDescriptor setSampleCount:]', symObjAddr: 0x7AC, symBinAddr: 0x2C424, symSize: 0x8 }
  - { offset: 0x10992C, size: 0x8, addend: 0x0, symName: '-[FramebufferDescriptor setSampleCount:]', symObjAddr: 0x7AC, symBinAddr: 0x2C424, symSize: 0x8 }
  - { offset: 0x109934, size: 0x8, addend: 0x0, symName: '-[FramebufferDescriptor colorPixelFormat]', symObjAddr: 0x7B4, symBinAddr: 0x2C42C, symSize: 0x8 }
  - { offset: 0x10997B, size: 0x8, addend: 0x0, symName: '-[FramebufferDescriptor colorPixelFormat]', symObjAddr: 0x7B4, symBinAddr: 0x2C42C, symSize: 0x8 }
  - { offset: 0x109983, size: 0x8, addend: 0x0, symName: '-[FramebufferDescriptor setColorPixelFormat:]', symObjAddr: 0x7BC, symBinAddr: 0x2C434, symSize: 0x8 }
  - { offset: 0x1099C3, size: 0x8, addend: 0x0, symName: '-[FramebufferDescriptor setColorPixelFormat:]', symObjAddr: 0x7BC, symBinAddr: 0x2C434, symSize: 0x8 }
  - { offset: 0x1099CB, size: 0x8, addend: 0x0, symName: '-[FramebufferDescriptor depthPixelFormat]', symObjAddr: 0x7C4, symBinAddr: 0x2C43C, symSize: 0x8 }
  - { offset: 0x109A12, size: 0x8, addend: 0x0, symName: '-[FramebufferDescriptor depthPixelFormat]', symObjAddr: 0x7C4, symBinAddr: 0x2C43C, symSize: 0x8 }
  - { offset: 0x109A1A, size: 0x8, addend: 0x0, symName: '-[FramebufferDescriptor setDepthPixelFormat:]', symObjAddr: 0x7CC, symBinAddr: 0x2C444, symSize: 0x8 }
  - { offset: 0x109A5A, size: 0x8, addend: 0x0, symName: '-[FramebufferDescriptor setDepthPixelFormat:]', symObjAddr: 0x7CC, symBinAddr: 0x2C444, symSize: 0x8 }
  - { offset: 0x109A62, size: 0x8, addend: 0x0, symName: '-[FramebufferDescriptor stencilPixelFormat]', symObjAddr: 0x7D4, symBinAddr: 0x2C44C, symSize: 0x8 }
  - { offset: 0x109AA9, size: 0x8, addend: 0x0, symName: '-[FramebufferDescriptor stencilPixelFormat]', symObjAddr: 0x7D4, symBinAddr: 0x2C44C, symSize: 0x8 }
  - { offset: 0x109AB1, size: 0x8, addend: 0x0, symName: '-[FramebufferDescriptor setStencilPixelFormat:]', symObjAddr: 0x7DC, symBinAddr: 0x2C454, symSize: 0x8 }
  - { offset: 0x109AF1, size: 0x8, addend: 0x0, symName: '-[FramebufferDescriptor setStencilPixelFormat:]', symObjAddr: 0x7DC, symBinAddr: 0x2C454, symSize: 0x8 }
  - { offset: 0x109AF9, size: 0x8, addend: 0x0, symName: '-[MetalContext init]', symObjAddr: 0x7E4, symBinAddr: 0x2C45C, symSize: 0xF8 }
  - { offset: 0x109B40, size: 0x8, addend: 0x0, symName: '-[MetalContext init]', symObjAddr: 0x7E4, symBinAddr: 0x2C45C, symSize: 0xF8 }
  - { offset: 0x109B48, size: 0x8, addend: 0x0, symName: '-[MetalContext makeDeviceObjectsWithDevice:]', symObjAddr: 0x8DC, symBinAddr: 0x2C554, symSize: 0xBC }
  - { offset: 0x109B87, size: 0x8, addend: 0x0, symName: '-[MetalContext makeDeviceObjectsWithDevice:]', symObjAddr: 0x8DC, symBinAddr: 0x2C554, symSize: 0xBC }
  - { offset: 0x109B8F, size: 0x8, addend: 0x0, symName: '-[MetalContext makeFontTextureWithDevice:]', symObjAddr: 0x998, symBinAddr: 0x2C610, symSize: 0x130 }
  - { offset: 0x109D1F, size: 0x8, addend: 0x0, symName: '-[MetalContext makeFontTextureWithDevice:]', symObjAddr: 0x998, symBinAddr: 0x2C610, symSize: 0x130 }
  - { offset: 0x109D27, size: 0x8, addend: 0x0, symName: '-[MetalContext dequeueReusableBufferOfLength:device:]', symObjAddr: 0xAC8, symBinAddr: 0x2C740, symSize: 0x43C }
  - { offset: 0x109E33, size: 0x8, addend: 0x0, symName: '-[MetalContext dequeueReusableBufferOfLength:device:]', symObjAddr: 0xAC8, symBinAddr: 0x2C740, symSize: 0x43C }
  - { offset: 0x109E3B, size: 0x8, addend: 0x0, symName: '-[MetalContext enqueueReusableBuffer:]', symObjAddr: 0xF04, symBinAddr: 0x2CB7C, symSize: 0x7C }
  - { offset: 0x109F29, size: 0x8, addend: 0x0, symName: '-[MetalContext enqueueReusableBuffer:]', symObjAddr: 0xF04, symBinAddr: 0x2CB7C, symSize: 0x7C }
  - { offset: 0x109F31, size: 0x8, addend: 0x0, symName: '-[MetalContext renderPipelineStateForFrameAndDevice:]', symObjAddr: 0xF80, symBinAddr: 0x2CBF8, symSize: 0x184 }
  - { offset: 0x109F7D, size: 0x8, addend: 0x0, symName: '-[MetalContext renderPipelineStateForFrameAndDevice:]', symObjAddr: 0xF80, symBinAddr: 0x2CBF8, symSize: 0x184 }
  - { offset: 0x109F85, size: 0x8, addend: 0x0, symName: '-[MetalContext _renderPipelineStateForFramebufferDescriptor:device:]', symObjAddr: 0x1104, symBinAddr: 0x2CD7C, symSize: 0x8D8 }
  - { offset: 0x109FED, size: 0x8, addend: 0x0, symName: '-[MetalContext _renderPipelineStateForFramebufferDescriptor:device:]', symObjAddr: 0x1104, symBinAddr: 0x2CD7C, symSize: 0x8D8 }
  - { offset: 0x109FF5, size: 0x8, addend: 0x0, symName: '-[MetalContext emptyRenderPipelineStateCache]', symObjAddr: 0x19DC, symBinAddr: 0x2D654, symSize: 0x44 }
  - { offset: 0x10A0F9, size: 0x8, addend: 0x0, symName: '-[MetalContext emptyRenderPipelineStateCache]', symObjAddr: 0x19DC, symBinAddr: 0x2D654, symSize: 0x44 }
  - { offset: 0x10A101, size: 0x8, addend: 0x0, symName: '-[MetalContext setupRenderState:commandBuffer:commandEncoder:renderPipelineState:vertexBuffer:vertexBufferOffset:]', symObjAddr: 0x1A20, symBinAddr: 0x2D698, symSize: 0x224 }
  - { offset: 0x10A139, size: 0x8, addend: 0x0, symName: '-[MetalContext setupRenderState:commandBuffer:commandEncoder:renderPipelineState:vertexBuffer:vertexBufferOffset:]', symObjAddr: 0x1A20, symBinAddr: 0x2D698, symSize: 0x224 }
  - { offset: 0x10A141, size: 0x8, addend: 0x0, symName: '-[MetalContext renderDrawData:commandBuffer:commandEncoder:]', symObjAddr: 0x1C44, symBinAddr: 0x2D8BC, symSize: 0x53C }
  - { offset: 0x10A2AF, size: 0x8, addend: 0x0, symName: '-[MetalContext renderDrawData:commandBuffer:commandEncoder:]', symObjAddr: 0x1C44, symBinAddr: 0x2D8BC, symSize: 0x53C }
  - { offset: 0x10A2B7, size: 0x8, addend: 0x0, symName: '___60-[MetalContext renderDrawData:commandBuffer:commandEncoder:]_block_invoke', symObjAddr: 0x2180, symBinAddr: 0x2DDF8, symSize: 0xA4 }
  - { offset: 0x10A4DF, size: 0x8, addend: 0x0, symName: '___60-[MetalContext renderDrawData:commandBuffer:commandEncoder:]_block_invoke', symObjAddr: 0x2180, symBinAddr: 0x2DDF8, symSize: 0xA4 }
  - { offset: 0x10A4E7, size: 0x8, addend: 0x0, symName: '___60-[MetalContext renderDrawData:commandBuffer:commandEncoder:]_block_invoke_2', symObjAddr: 0x2224, symBinAddr: 0x2DE9C, symSize: 0x74 }
  - { offset: 0x10A522, size: 0x8, addend: 0x0, symName: '___60-[MetalContext renderDrawData:commandBuffer:commandEncoder:]_block_invoke_2', symObjAddr: 0x2224, symBinAddr: 0x2DE9C, symSize: 0x74 }
  - { offset: 0x10A52A, size: 0x8, addend: 0x0, symName: ___copy_helper_block_ea8_32s40s48w, symObjAddr: 0x2298, symBinAddr: 0x2DF10, symSize: 0x38 }
  - { offset: 0x10A558, size: 0x8, addend: 0x0, symName: ___copy_helper_block_ea8_32s40s48w, symObjAddr: 0x2298, symBinAddr: 0x2DF10, symSize: 0x38 }
  - { offset: 0x10A560, size: 0x8, addend: 0x0, symName: ___destroy_helper_block_ea8_32s40s48w, symObjAddr: 0x22D0, symBinAddr: 0x2DF48, symSize: 0x30 }
  - { offset: 0x10A591, size: 0x8, addend: 0x0, symName: ___destroy_helper_block_ea8_32s40s48w, symObjAddr: 0x22D0, symBinAddr: 0x2DF48, symSize: 0x30 }
  - { offset: 0x10A599, size: 0x8, addend: 0x0, symName: '-[MetalContext depthStencilState]', symObjAddr: 0x2300, symBinAddr: 0x2DF78, symSize: 0x8 }
  - { offset: 0x10A5BB, size: 0x8, addend: 0x0, symName: '-[MetalContext depthStencilState]', symObjAddr: 0x2300, symBinAddr: 0x2DF78, symSize: 0x8 }
  - { offset: 0x10A5C3, size: 0x8, addend: 0x0, symName: '-[MetalContext setDepthStencilState:]', symObjAddr: 0x2308, symBinAddr: 0x2DF80, symSize: 0xC }
  - { offset: 0x10A603, size: 0x8, addend: 0x0, symName: '-[MetalContext setDepthStencilState:]', symObjAddr: 0x2308, symBinAddr: 0x2DF80, symSize: 0xC }
  - { offset: 0x10A60B, size: 0x8, addend: 0x0, symName: '-[MetalContext framebufferDescriptor]', symObjAddr: 0x2314, symBinAddr: 0x2DF8C, symSize: 0x8 }
  - { offset: 0x10A655, size: 0x8, addend: 0x0, symName: '-[MetalContext framebufferDescriptor]', symObjAddr: 0x2314, symBinAddr: 0x2DF8C, symSize: 0x8 }
  - { offset: 0x10A65D, size: 0x8, addend: 0x0, symName: '-[MetalContext setFramebufferDescriptor:]', symObjAddr: 0x231C, symBinAddr: 0x2DF94, symSize: 0xC }
  - { offset: 0x10A69D, size: 0x8, addend: 0x0, symName: '-[MetalContext setFramebufferDescriptor:]', symObjAddr: 0x231C, symBinAddr: 0x2DF94, symSize: 0xC }
  - { offset: 0x10A6A5, size: 0x8, addend: 0x0, symName: '-[MetalContext renderPipelineStateCache]', symObjAddr: 0x2328, symBinAddr: 0x2DFA0, symSize: 0x8 }
  - { offset: 0x10A6EF, size: 0x8, addend: 0x0, symName: '-[MetalContext renderPipelineStateCache]', symObjAddr: 0x2328, symBinAddr: 0x2DFA0, symSize: 0x8 }
  - { offset: 0x10A6F7, size: 0x8, addend: 0x0, symName: '-[MetalContext setRenderPipelineStateCache:]', symObjAddr: 0x2330, symBinAddr: 0x2DFA8, symSize: 0xC }
  - { offset: 0x10A737, size: 0x8, addend: 0x0, symName: '-[MetalContext setRenderPipelineStateCache:]', symObjAddr: 0x2330, symBinAddr: 0x2DFA8, symSize: 0xC }
  - { offset: 0x10A73F, size: 0x8, addend: 0x0, symName: '-[MetalContext fontTexture]', symObjAddr: 0x233C, symBinAddr: 0x2DFB4, symSize: 0x8 }
  - { offset: 0x10A789, size: 0x8, addend: 0x0, symName: '-[MetalContext fontTexture]', symObjAddr: 0x233C, symBinAddr: 0x2DFB4, symSize: 0x8 }
  - { offset: 0x10A791, size: 0x8, addend: 0x0, symName: '-[MetalContext setFontTexture:]', symObjAddr: 0x2344, symBinAddr: 0x2DFBC, symSize: 0xC }
  - { offset: 0x10A7D1, size: 0x8, addend: 0x0, symName: '-[MetalContext setFontTexture:]', symObjAddr: 0x2344, symBinAddr: 0x2DFBC, symSize: 0xC }
  - { offset: 0x10A7D9, size: 0x8, addend: 0x0, symName: '-[MetalContext bufferCache]', symObjAddr: 0x2350, symBinAddr: 0x2DFC8, symSize: 0x8 }
  - { offset: 0x10A823, size: 0x8, addend: 0x0, symName: '-[MetalContext bufferCache]', symObjAddr: 0x2350, symBinAddr: 0x2DFC8, symSize: 0x8 }
  - { offset: 0x10A82B, size: 0x8, addend: 0x0, symName: '-[MetalContext setBufferCache:]', symObjAddr: 0x2358, symBinAddr: 0x2DFD0, symSize: 0xC }
  - { offset: 0x10A86B, size: 0x8, addend: 0x0, symName: '-[MetalContext setBufferCache:]', symObjAddr: 0x2358, symBinAddr: 0x2DFD0, symSize: 0xC }
  - { offset: 0x10A873, size: 0x8, addend: 0x0, symName: '-[MetalContext lastBufferCachePurge]', symObjAddr: 0x2364, symBinAddr: 0x2DFDC, symSize: 0x8 }
  - { offset: 0x10A8BD, size: 0x8, addend: 0x0, symName: '-[MetalContext lastBufferCachePurge]', symObjAddr: 0x2364, symBinAddr: 0x2DFDC, symSize: 0x8 }
  - { offset: 0x10A8C5, size: 0x8, addend: 0x0, symName: '-[MetalContext setLastBufferCachePurge:]', symObjAddr: 0x236C, symBinAddr: 0x2DFE4, symSize: 0x8 }
  - { offset: 0x10A904, size: 0x8, addend: 0x0, symName: '-[MetalContext setLastBufferCachePurge:]', symObjAddr: 0x236C, symBinAddr: 0x2DFE4, symSize: 0x8 }
  - { offset: 0x10A90C, size: 0x8, addend: 0x0, symName: '-[MetalContext .cxx_destruct]', symObjAddr: 0x2374, symBinAddr: 0x2DFEC, symSize: 0x54 }
  - { offset: 0x10A954, size: 0x8, addend: 0x0, symName: '-[MetalContext .cxx_destruct]', symObjAddr: 0x2374, symBinAddr: 0x2DFEC, symSize: 0x54 }
  - { offset: 0x10B5F3, size: 0x8, addend: 0x0, symName: __ZN10ImGuiStyleC2Ev, symObjAddr: 0x0, symBinAddr: 0x2E040, symSize: 0xDC }
  - { offset: 0x10B617, size: 0x8, addend: 0x0, symName: _GImGui, symObjAddr: 0xB3D70, symBinAddr: 0x37A810, symSize: 0x0 }
  - { offset: 0x11B22E, size: 0x8, addend: 0x0, symName: __Z18ImTextCharFromUtf8PjPKcS1_, symObjAddr: 0xA54, symBinAddr: 0x2EA94, symSize: 0x15C }
  - { offset: 0x11B236, size: 0x8, addend: 0x0, symName: __ZN7ImGuiIO20ClearInputCharactersEv, symObjAddr: 0xBB0, symBinAddr: 0x2EBF0, symSize: 0xB0 }
  - { offset: 0x11B267, size: 0x8, addend: 0x0, symName: __ZZ18ImTextCharFromUtf8PjPKcS1_E7lengths, symObjAddr: 0x1AADC, symBinAddr: 0xD8250, symSize: 0x0 }
  - { offset: 0x11B282, size: 0x8, addend: 0x0, symName: __ZZ18ImTextCharFromUtf8PjPKcS1_E5masks, symObjAddr: 0x1AAFC, symBinAddr: 0xD8270, symSize: 0x0 }
  - { offset: 0x11B29D, size: 0x8, addend: 0x0, symName: __ZZ18ImTextCharFromUtf8PjPKcS1_E4mins, symObjAddr: 0x1AB10, symBinAddr: 0xD8284, symSize: 0x0 }
  - { offset: 0x11B2B8, size: 0x8, addend: 0x0, symName: __ZZ18ImTextCharFromUtf8PjPKcS1_E6shiftc, symObjAddr: 0x1AB24, symBinAddr: 0xD8298, symSize: 0x0 }
  - { offset: 0x11B2D3, size: 0x8, addend: 0x0, symName: __ZZ18ImTextCharFromUtf8PjPKcS1_E6shifte, symObjAddr: 0x1AB38, symBinAddr: 0xD82AC, symSize: 0x0 }
  - { offset: 0x11B3EB, size: 0x8, addend: 0x0, symName: __ZN15ImGuiTextBuffer11EmptyStringE, symObjAddr: 0xB3D78, symBinAddr: 0x37A818, symSize: 0x0 }
  - { offset: 0x11B420, size: 0x8, addend: 0x0, symName: __ZL15resize_grip_def, symObjAddr: 0x1AB4C, symBinAddr: 0xD82C0, symSize: 0x0 }
  - { offset: 0x11B4B3, size: 0x8, addend: 0x0, symName: __ZL17resize_border_def, symObjAddr: 0x1ABAC, symBinAddr: 0xD8320, symSize: 0x0 }
  - { offset: 0x11B546, size: 0x8, addend: 0x0, symName: __ZL17GCrc32LookupTable, symObjAddr: 0x1A6DC, symBinAddr: 0xD7E50, symSize: 0x0 }
  - { offset: 0x11B583, size: 0x8, addend: 0x0, symName: __ZL13GStyleVarInfo, symObjAddr: 0x1AC2C, symBinAddr: 0xD83A0, symSize: 0x0 }
  - { offset: 0x11B64E, size: 0x8, addend: 0x0, symName: __ZL21GImAllocatorAllocFunc, symObjAddr: 0x1C210, symBinAddr: 0x3761B8, symSize: 0x0 }
  - { offset: 0x11B6A1, size: 0x8, addend: 0x0, symName: __ZL20GImAllocatorUserData, symObjAddr: 0xB3D80, symBinAddr: 0x37AA58, symSize: 0x0 }
  - { offset: 0x11B6C0, size: 0x8, addend: 0x0, symName: __ZL20GImAllocatorFreeFunc, symObjAddr: 0x1C218, symBinAddr: 0x3761C0, symSize: 0x0 }
  - { offset: 0x11B7BD, size: 0x8, addend: 0x0, symName: __ZN5ImGui17ShowMetricsWindowEPb, symObjAddr: 0x15F5C, symBinAddr: 0x43F9C, symSize: 0x163C }
  - { offset: 0x11B7C5, size: 0x8, addend: 0x0, symName: __ZZN5ImGui17ShowMetricsWindowEPbEN5Funcs13GetWindowRectEP11ImGuiWindowi, symObjAddr: 0x17598, symBinAddr: 0x455D8, symSize: 0xB8 }
  - { offset: 0x11D682, size: 0x8, addend: 0x0, symName: __ZN5ImGui8MemAllocEm, symObjAddr: 0x1364, symBinAddr: 0x2F3A4, symSize: 0x2C }
  - { offset: 0x11D68A, size: 0x8, addend: 0x0, symName: __Z11ImStrdupcpyPcPmPKc, symObjAddr: 0x1390, symBinAddr: 0x2F3D0, symSize: 0xD4 }
  - { offset: 0x11D6BD, size: 0x8, addend: 0x0, symName: __ZN5ImGui7MemFreeEPv, symObjAddr: 0x1464, symBinAddr: 0x2F4A4, symSize: 0x30 }
  - { offset: 0x11D6C5, size: 0x8, addend: 0x0, symName: __Z13ImStrchrRangePKcS0_c, symObjAddr: 0x1494, symBinAddr: 0x2F4D4, symSize: 0x10 }
  - { offset: 0x11D6F8, size: 0x8, addend: 0x0, symName: __ZN5ImGui23ColorConvertU32ToFloat4Ej, symObjAddr: 0x1D14, symBinAddr: 0x2FD54, symSize: 0x54 }
  - { offset: 0x11D700, size: 0x8, addend: 0x0, symName: __ZN5ImGui23ColorConvertFloat4ToU32ERK6ImVec4, symObjAddr: 0x1D68, symBinAddr: 0x2FDA8, symSize: 0x94 }
  - { offset: 0x11D72E, size: 0x8, addend: 0x0, symName: __ZN5ImGui23ColorConvertFloat4ToU32ERK6ImVec4, symObjAddr: 0x1D68, symBinAddr: 0x2FDA8, symSize: 0x94 }
  - { offset: 0x11D736, size: 0x8, addend: 0x0, symName: __ZN5ImGui20ColorConvertRGBtoHSVEfffRfS0_S0_, symObjAddr: 0x1DFC, symBinAddr: 0x2FE3C, symSize: 0x78 }
  - { offset: 0x11D7F1, size: 0x8, addend: 0x0, symName: __ZN5ImGui20ColorConvertRGBtoHSVEfffRfS0_S0_, symObjAddr: 0x1DFC, symBinAddr: 0x2FE3C, symSize: 0x78 }
  - { offset: 0x11D7F9, size: 0x8, addend: 0x0, symName: __ZN5ImGui20ColorConvertHSVtoRGBEfffRfS0_S0_, symObjAddr: 0x1E74, symBinAddr: 0x2FEB4, symSize: 0x114 }
  - { offset: 0x11D8AF, size: 0x8, addend: 0x0, symName: __ZN5ImGui20ColorConvertHSVtoRGBEfffRfS0_S0_, symObjAddr: 0x1E74, symBinAddr: 0x2FEB4, symSize: 0x114 }
  - { offset: 0x11D8B7, size: 0x8, addend: 0x0, symName: __ZN12ImGuiStorage14BuildSortByKeyEv, symObjAddr: 0x1F88, symBinAddr: 0x2FFC8, symSize: 0x24 }
  - { offset: 0x11D9DB, size: 0x8, addend: 0x0, symName: __ZN5ImGui16SetNextItemWidthEf, symObjAddr: 0x2D64, symBinAddr: 0x30DA4, symSize: 0x1C }
  - { offset: 0x11D9E3, size: 0x8, addend: 0x0, symName: __ZNK15ImGuiTextFilter14ImGuiTextRange5splitEcP8ImVectorIS0_E, symObjAddr: 0x2D80, symBinAddr: 0x30DC0, symSize: 0x2A8 }
  - { offset: 0x11DA11, size: 0x8, addend: 0x0, symName: __ZN5ImGui16CalcListClippingEifPiS0_, symObjAddr: 0x33E4, symBinAddr: 0x31424, symSize: 0x124 }
  - { offset: 0x11DA19, size: 0x8, addend: 0x0, symName: __ZN16ImGuiListClipperC2Ev, symObjAddr: 0x3508, symBinAddr: 0x31548, symSize: 0x18 }
  - { offset: 0x11DC42, size: 0x8, addend: 0x0, symName: __ZN5ImGui8GetStyleEv, symObjAddr: 0x386C, symBinAddr: 0x318AC, symSize: 0x14 }
  - { offset: 0x11DC4A, size: 0x8, addend: 0x0, symName: __ZN5ImGui11GetColorU32Eif, symObjAddr: 0x3880, symBinAddr: 0x318C0, symSize: 0x50 }
  - { offset: 0x11DC6A, size: 0x8, addend: 0x0, symName: __ZN5ImGui11GetColorU32Eif, symObjAddr: 0x3880, symBinAddr: 0x318C0, symSize: 0x50 }
  - { offset: 0x11DC72, size: 0x8, addend: 0x0, symName: __ZN5ImGui11GetColorU32ERK6ImVec4, symObjAddr: 0x38D0, symBinAddr: 0x31910, symSize: 0x40 }
  - { offset: 0x11DCB9, size: 0x8, addend: 0x0, symName: __ZN5ImGui11GetColorU32ERK6ImVec4, symObjAddr: 0x38D0, symBinAddr: 0x31910, symSize: 0x40 }
  - { offset: 0x11DCC1, size: 0x8, addend: 0x0, symName: __ZN5ImGui17GetStyleColorVec4Ei, symObjAddr: 0x3910, symBinAddr: 0x31950, symSize: 0x18 }
  - { offset: 0x11DD19, size: 0x8, addend: 0x0, symName: __ZN5ImGui17GetStyleColorVec4Ei, symObjAddr: 0x3910, symBinAddr: 0x31950, symSize: 0x18 }
  - { offset: 0x11DD21, size: 0x8, addend: 0x0, symName: __ZN5ImGui11GetColorU32Ej, symObjAddr: 0x3928, symBinAddr: 0x31968, symSize: 0x30 }
  - { offset: 0x11DD4B, size: 0x8, addend: 0x0, symName: __ZN5ImGui11GetColorU32Ej, symObjAddr: 0x3928, symBinAddr: 0x31968, symSize: 0x30 }
  - { offset: 0x11DD53, size: 0x8, addend: 0x0, symName: __ZN5ImGui14PushStyleColorEij, symObjAddr: 0x3958, symBinAddr: 0x31998, symSize: 0x178 }
  - { offset: 0x11DDE3, size: 0x8, addend: 0x0, symName: __ZN5ImGui14PushStyleColorEij, symObjAddr: 0x3958, symBinAddr: 0x31998, symSize: 0x178 }
  - { offset: 0x11DDEB, size: 0x8, addend: 0x0, symName: __ZN5ImGui14PushStyleColorEiRK6ImVec4, symObjAddr: 0x3AD0, symBinAddr: 0x31B10, symSize: 0x140 }
  - { offset: 0x11DF90, size: 0x8, addend: 0x0, symName: __ZN5ImGui14PushStyleColorEiRK6ImVec4, symObjAddr: 0x3AD0, symBinAddr: 0x31B10, symSize: 0x140 }
  - { offset: 0x11DF98, size: 0x8, addend: 0x0, symName: __ZN5ImGui13PopStyleColorEi, symObjAddr: 0x3C10, symBinAddr: 0x31C50, symSize: 0x54 }
  - { offset: 0x11E12A, size: 0x8, addend: 0x0, symName: __ZN5ImGui13PopStyleColorEi, symObjAddr: 0x3C10, symBinAddr: 0x31C50, symSize: 0x54 }
  - { offset: 0x11E132, size: 0x8, addend: 0x0, symName: __ZN5ImGui12PushStyleVarEif, symObjAddr: 0x3C64, symBinAddr: 0x31CA4, symSize: 0x158 }
  - { offset: 0x11E19F, size: 0x8, addend: 0x0, symName: __ZN5ImGui12PushStyleVarEif, symObjAddr: 0x3C64, symBinAddr: 0x31CA4, symSize: 0x158 }
  - { offset: 0x11E1A7, size: 0x8, addend: 0x0, symName: __ZN5ImGui12PushStyleVarEiRK6ImVec2, symObjAddr: 0x3DBC, symBinAddr: 0x31DFC, symSize: 0x164 }
  - { offset: 0x11E380, size: 0x8, addend: 0x0, symName: __ZN5ImGui12PushStyleVarEiRK6ImVec2, symObjAddr: 0x3DBC, symBinAddr: 0x31DFC, symSize: 0x164 }
  - { offset: 0x11E388, size: 0x8, addend: 0x0, symName: __ZN5ImGui11PopStyleVarEi, symObjAddr: 0x3F20, symBinAddr: 0x31F60, symSize: 0xA4 }
  - { offset: 0x11E561, size: 0x8, addend: 0x0, symName: __ZN5ImGui11PopStyleVarEi, symObjAddr: 0x3F20, symBinAddr: 0x31F60, symSize: 0xA4 }
  - { offset: 0x11E569, size: 0x8, addend: 0x0, symName: __ZN5ImGui17GetStyleColorNameEi, symObjAddr: 0x3FC4, symBinAddr: 0x32004, symSize: 0x24 }
  - { offset: 0x11E635, size: 0x8, addend: 0x0, symName: __ZN5ImGui17GetStyleColorNameEi, symObjAddr: 0x3FC4, symBinAddr: 0x32004, symSize: 0x24 }
  - { offset: 0x11E63D, size: 0x8, addend: 0x0, symName: __ZN5ImGui19FindRenderedTextEndEPKcS1_, symObjAddr: 0x3FE8, symBinAddr: 0x32028, symSize: 0x44 }
  - { offset: 0x11E672, size: 0x8, addend: 0x0, symName: __ZN5ImGui19FindRenderedTextEndEPKcS1_, symObjAddr: 0x3FE8, symBinAddr: 0x32028, symSize: 0x44 }
  - { offset: 0x11E67A, size: 0x8, addend: 0x0, symName: __ZN5ImGui10RenderTextE6ImVec2PKcS2_b, symObjAddr: 0x402C, symBinAddr: 0x3206C, symSize: 0x12C }
  - { offset: 0x11E754, size: 0x8, addend: 0x0, symName: __ZN5ImGui10RenderTextE6ImVec2PKcS2_b, symObjAddr: 0x402C, symBinAddr: 0x3206C, symSize: 0x12C }
  - { offset: 0x11E75C, size: 0x8, addend: 0x0, symName: __ZN5ImGui15LogRenderedTextEPK6ImVec2PKcS4_, symObjAddr: 0x4158, symBinAddr: 0x32198, symSize: 0x1E0 }
  - { offset: 0x11E891, size: 0x8, addend: 0x0, symName: __ZN5ImGui15LogRenderedTextEPK6ImVec2PKcS4_, symObjAddr: 0x4158, symBinAddr: 0x32198, symSize: 0x1E0 }
  - { offset: 0x11E899, size: 0x8, addend: 0x0, symName: __ZN5ImGui17RenderTextWrappedE6ImVec2PKcS2_f, symObjAddr: 0x4338, symBinAddr: 0x32378, symSize: 0xE4 }
  - { offset: 0x11EABF, size: 0x8, addend: 0x0, symName: __ZN5ImGui17RenderTextWrappedE6ImVec2PKcS2_f, symObjAddr: 0x4338, symBinAddr: 0x32378, symSize: 0xE4 }
  - { offset: 0x11EAC7, size: 0x8, addend: 0x0, symName: __ZN5ImGui19RenderTextClippedExEP10ImDrawListRK6ImVec2S4_PKcS6_PS3_S4_PK6ImRect, symObjAddr: 0x441C, symBinAddr: 0x3245C, symSize: 0x210 }
  - { offset: 0x11EBA9, size: 0x8, addend: 0x0, symName: __ZN5ImGui19RenderTextClippedExEP10ImDrawListRK6ImVec2S4_PKcS6_PS3_S4_PK6ImRect, symObjAddr: 0x441C, symBinAddr: 0x3245C, symSize: 0x210 }
  - { offset: 0x11EBB1, size: 0x8, addend: 0x0, symName: __ZN5ImGui12CalcTextSizeEPKcS1_bf, symObjAddr: 0x462C, symBinAddr: 0x3266C, symSize: 0xB8 }
  - { offset: 0x11EE7A, size: 0x8, addend: 0x0, symName: __ZN5ImGui12CalcTextSizeEPKcS1_bf, symObjAddr: 0x462C, symBinAddr: 0x3266C, symSize: 0xB8 }
  - { offset: 0x11EE82, size: 0x8, addend: 0x0, symName: __ZN5ImGui17RenderTextClippedERK6ImVec2S2_PKcS4_PS1_S2_PK6ImRect, symObjAddr: 0x46E4, symBinAddr: 0x32724, symSize: 0xCC }
  - { offset: 0x11EF96, size: 0x8, addend: 0x0, symName: __ZN5ImGui17RenderTextClippedERK6ImVec2S2_PKcS4_PS1_S2_PK6ImRect, symObjAddr: 0x46E4, symBinAddr: 0x32724, symSize: 0xCC }
  - { offset: 0x11EF9E, size: 0x8, addend: 0x0, symName: __ZN5ImGui18RenderTextEllipsisEP10ImDrawListRK6ImVec2S4_ffPKcS6_PS3_, symObjAddr: 0x47B0, symBinAddr: 0x327F0, symSize: 0x360 }
  - { offset: 0x11F0D2, size: 0x8, addend: 0x0, symName: __ZN5ImGui18RenderTextEllipsisEP10ImDrawListRK6ImVec2S4_ffPKcS6_PS3_, symObjAddr: 0x47B0, symBinAddr: 0x327F0, symSize: 0x360 }
  - { offset: 0x11F0DA, size: 0x8, addend: 0x0, symName: __ZN5ImGui11RenderFrameE6ImVec2S0_jbf, symObjAddr: 0x4B10, symBinAddr: 0x32B50, symSize: 0x128 }
  - { offset: 0x11F613, size: 0x8, addend: 0x0, symName: __ZN5ImGui11RenderFrameE6ImVec2S0_jbf, symObjAddr: 0x4B10, symBinAddr: 0x32B50, symSize: 0x128 }
  - { offset: 0x11F61B, size: 0x8, addend: 0x0, symName: __ZN5ImGui17RenderFrameBorderE6ImVec2S0_f, symObjAddr: 0x4C38, symBinAddr: 0x32C78, symSize: 0x104 }
  - { offset: 0x11F7A2, size: 0x8, addend: 0x0, symName: __ZN5ImGui17RenderFrameBorderE6ImVec2S0_f, symObjAddr: 0x4C38, symBinAddr: 0x32C78, symSize: 0x104 }
  - { offset: 0x11F7AA, size: 0x8, addend: 0x0, symName: __ZN5ImGui18RenderNavHighlightERK6ImRectji, symObjAddr: 0x4D3C, symBinAddr: 0x32D7C, symSize: 0x204 }
  - { offset: 0x11F90D, size: 0x8, addend: 0x0, symName: __ZN5ImGui18RenderNavHighlightERK6ImRectji, symObjAddr: 0x4D3C, symBinAddr: 0x32D7C, symSize: 0x204 }
  - { offset: 0x11F915, size: 0x8, addend: 0x0, symName: __ZN11ImGuiWindowC2EP12ImGuiContextPKc, symObjAddr: 0x4F40, symBinAddr: 0x32F80, symSize: 0x1C8 }
  - { offset: 0x11FBDC, size: 0x8, addend: 0x0, symName: __ZN5ImGui11KeepAliveIDEj, symObjAddr: 0x5364, symBinAddr: 0x333A4, symSize: 0x34 }
  - { offset: 0x11FBE4, size: 0x8, addend: 0x0, symName: __ZN11ImGuiWindow5GetIDEPKv, symObjAddr: 0x5398, symBinAddr: 0x333D8, symSize: 0x88 }
  - { offset: 0x11FC11, size: 0x8, addend: 0x0, symName: __ZN5ImGui29GcCompactTransientMiscBuffersEv, symObjAddr: 0x5658, symBinAddr: 0x33698, symSize: 0x90 }
  - { offset: 0x11FC19, size: 0x8, addend: 0x0, symName: __ZN5ImGui31GcCompactTransientWindowBuffersEP11ImGuiWindow, symObjAddr: 0x56E8, symBinAddr: 0x33728, symSize: 0x118 }
  - { offset: 0x11FD16, size: 0x8, addend: 0x0, symName: __ZN5ImGui31GcCompactTransientWindowBuffersEP11ImGuiWindow, symObjAddr: 0x56E8, symBinAddr: 0x33728, symSize: 0x118 }
  - { offset: 0x11FD1E, size: 0x8, addend: 0x0, symName: __ZN5ImGui29GcAwakeTransientWindowBuffersEP11ImGuiWindow, symObjAddr: 0x5800, symBinAddr: 0x33840, symSize: 0x170 }
  - { offset: 0x11FED7, size: 0x8, addend: 0x0, symName: __ZN5ImGui29GcAwakeTransientWindowBuffersEP11ImGuiWindow, symObjAddr: 0x5800, symBinAddr: 0x33840, symSize: 0x170 }
  - { offset: 0x11FEDF, size: 0x8, addend: 0x0, symName: __ZN5ImGui11SetActiveIDEjP11ImGuiWindow, symObjAddr: 0x5970, symBinAddr: 0x339B0, symSize: 0xA8 }
  - { offset: 0x12007E, size: 0x8, addend: 0x0, symName: __ZN5ImGui11SetActiveIDEjP11ImGuiWindow, symObjAddr: 0x5970, symBinAddr: 0x339B0, symSize: 0xA8 }
  - { offset: 0x120086, size: 0x8, addend: 0x0, symName: __ZN5ImGui13ClearActiveIDEv, symObjAddr: 0x5A18, symBinAddr: 0x33A58, symSize: 0x50 }
  - { offset: 0x1200FD, size: 0x8, addend: 0x0, symName: __ZN5ImGui13ClearActiveIDEv, symObjAddr: 0x5A18, symBinAddr: 0x33A58, symSize: 0x50 }
  - { offset: 0x120105, size: 0x8, addend: 0x0, symName: __ZN5ImGui12SetHoveredIDEj, symObjAddr: 0x5A68, symBinAddr: 0x33AA8, symSize: 0x2C }
  - { offset: 0x120124, size: 0x8, addend: 0x0, symName: __ZN5ImGui13ClearActiveIDEv, symObjAddr: 0x5A18, symBinAddr: 0x33A58, symSize: 0x50 }
  - { offset: 0x12015D, size: 0x8, addend: 0x0, symName: __ZN5ImGui12SetHoveredIDEj, symObjAddr: 0x5A68, symBinAddr: 0x33AA8, symSize: 0x2C }
  - { offset: 0x120165, size: 0x8, addend: 0x0, symName: __ZN5ImGui12GetHoveredIDEv, symObjAddr: 0x5A94, symBinAddr: 0x33AD4, symSize: 0x1C }
  - { offset: 0x120191, size: 0x8, addend: 0x0, symName: __ZN5ImGui12GetHoveredIDEv, symObjAddr: 0x5A94, symBinAddr: 0x33AD4, symSize: 0x1C }
  - { offset: 0x120199, size: 0x8, addend: 0x0, symName: __ZN5ImGui14MarkItemEditedEj, symObjAddr: 0x5AB0, symBinAddr: 0x33AF0, symSize: 0x24 }
  - { offset: 0x1201CE, size: 0x8, addend: 0x0, symName: __ZN5ImGui14MarkItemEditedEj, symObjAddr: 0x5AB0, symBinAddr: 0x33AF0, symSize: 0x24 }
  - { offset: 0x1201D6, size: 0x8, addend: 0x0, symName: __ZN5ImGui13IsItemHoveredEi, symObjAddr: 0x5AD4, symBinAddr: 0x33B14, symSize: 0xF4 }
  - { offset: 0x12024C, size: 0x8, addend: 0x0, symName: __ZN5ImGui13IsItemHoveredEi, symObjAddr: 0x5AD4, symBinAddr: 0x33B14, symSize: 0xF4 }
  - { offset: 0x120254, size: 0x8, addend: 0x0, symName: __ZN5ImGui13IsItemFocusedEv, symObjAddr: 0x5BC8, symBinAddr: 0x33C08, symSize: 0x24 }
  - { offset: 0x12034F, size: 0x8, addend: 0x0, symName: __ZN5ImGui13IsItemFocusedEv, symObjAddr: 0x5BC8, symBinAddr: 0x33C08, symSize: 0x24 }
  - { offset: 0x120357, size: 0x8, addend: 0x0, symName: __ZN5ImGui13ItemHoverableERK6ImRectj, symObjAddr: 0x5BEC, symBinAddr: 0x33C2C, symSize: 0x170 }
  - { offset: 0x120402, size: 0x8, addend: 0x0, symName: __ZN5ImGui13ItemHoverableERK6ImRectj, symObjAddr: 0x5BEC, symBinAddr: 0x33C2C, symSize: 0x170 }
  - { offset: 0x12040A, size: 0x8, addend: 0x0, symName: __ZN5ImGui19IsMouseHoveringRectERK6ImVec2S2_b, symObjAddr: 0x5D5C, symBinAddr: 0x33D9C, symSize: 0x94 }
  - { offset: 0x12057D, size: 0x8, addend: 0x0, symName: __ZN5ImGui19IsMouseHoveringRectERK6ImVec2S2_b, symObjAddr: 0x5D5C, symBinAddr: 0x33D9C, symSize: 0x94 }
  - { offset: 0x120585, size: 0x8, addend: 0x0, symName: __ZN5ImGui21GetForegroundDrawListEv, symObjAddr: 0x5DF0, symBinAddr: 0x33E30, symSize: 0x20 }
  - { offset: 0x12071C, size: 0x8, addend: 0x0, symName: __ZN5ImGui21GetForegroundDrawListEv, symObjAddr: 0x5DF0, symBinAddr: 0x33E30, symSize: 0x20 }
  - { offset: 0x120724, size: 0x8, addend: 0x0, symName: __ZN5ImGui11IsClippedExERK6ImRectjb, symObjAddr: 0x5E10, symBinAddr: 0x33E50, symSize: 0x88 }
  - { offset: 0x120786, size: 0x8, addend: 0x0, symName: __ZN5ImGui11IsClippedExERK6ImRectjb, symObjAddr: 0x5E10, symBinAddr: 0x33E50, symSize: 0x88 }
  - { offset: 0x1207A0, size: 0x8, addend: 0x0, symName: __ZN5ImGui11IsClippedExERK6ImRectjb, symObjAddr: 0x5E10, symBinAddr: 0x33E50, symSize: 0x88 }
  - { offset: 0x1207A8, size: 0x8, addend: 0x0, symName: __ZN5ImGui15SetLastItemDataEP11ImGuiWindowjiRK6ImRect, symObjAddr: 0x5E98, symBinAddr: 0x33ED8, symSize: 0x18 }
  - { offset: 0x12085A, size: 0x8, addend: 0x0, symName: __ZN5ImGui15SetLastItemDataEP11ImGuiWindowjiRK6ImRect, symObjAddr: 0x5E98, symBinAddr: 0x33ED8, symSize: 0x18 }
  - { offset: 0x120862, size: 0x8, addend: 0x0, symName: __ZN5ImGui13ItemFocusableEP11ImGuiWindowj, symObjAddr: 0x5EB0, symBinAddr: 0x33EF0, symSize: 0xEC }
  - { offset: 0x1208A3, size: 0x8, addend: 0x0, symName: __ZN5ImGui13ItemFocusableEP11ImGuiWindowj, symObjAddr: 0x5EB0, symBinAddr: 0x33EF0, symSize: 0xEC }
  - { offset: 0x1208AB, size: 0x8, addend: 0x0, symName: __ZN5ImGui19CalcWrapWidthForPosERK6ImVec2f, symObjAddr: 0x5F9C, symBinAddr: 0x33FDC, symSize: 0x54 }
  - { offset: 0x12090D, size: 0x8, addend: 0x0, symName: __ZN5ImGui19CalcWrapWidthForPosERK6ImVec2f, symObjAddr: 0x5F9C, symBinAddr: 0x33FDC, symSize: 0x54 }
  - { offset: 0x120915, size: 0x8, addend: 0x0, symName: __ZN5ImGui16GetClipboardTextEv, symObjAddr: 0x5FF0, symBinAddr: 0x34030, symSize: 0x24 }
  - { offset: 0x1209BC, size: 0x8, addend: 0x0, symName: __ZN5ImGui16GetClipboardTextEv, symObjAddr: 0x5FF0, symBinAddr: 0x34030, symSize: 0x24 }
  - { offset: 0x1209C4, size: 0x8, addend: 0x0, symName: __ZN5ImGui16SetClipboardTextEPKc, symObjAddr: 0x6014, symBinAddr: 0x34054, symSize: 0x20 }
  - { offset: 0x1209F9, size: 0x8, addend: 0x0, symName: __ZN5ImGui16SetClipboardTextEPKc, symObjAddr: 0x6014, symBinAddr: 0x34054, symSize: 0x20 }
  - { offset: 0x120A01, size: 0x8, addend: 0x0, symName: __ZN5ImGui10GetVersionEv, symObjAddr: 0x6034, symBinAddr: 0x34074, symSize: 0xC }
  - { offset: 0x120A30, size: 0x8, addend: 0x0, symName: __ZN5ImGui10GetVersionEv, symObjAddr: 0x6034, symBinAddr: 0x34074, symSize: 0xC }
  - { offset: 0x120A38, size: 0x8, addend: 0x0, symName: __ZN5ImGui17GetCurrentContextEv, symObjAddr: 0x6040, symBinAddr: 0x34080, symSize: 0xC }
  - { offset: 0x120A58, size: 0x8, addend: 0x0, symName: __ZN5ImGui17GetCurrentContextEv, symObjAddr: 0x6040, symBinAddr: 0x34080, symSize: 0xC }
  - { offset: 0x120A60, size: 0x8, addend: 0x0, symName: __ZN5ImGui17SetCurrentContextEP12ImGuiContext, symObjAddr: 0x604C, symBinAddr: 0x3408C, symSize: 0xC }
  - { offset: 0x120A80, size: 0x8, addend: 0x0, symName: __ZN5ImGui17SetCurrentContextEP12ImGuiContext, symObjAddr: 0x604C, symBinAddr: 0x3408C, symSize: 0xC }
  - { offset: 0x120A88, size: 0x8, addend: 0x0, symName: __ZN5ImGui21SetAllocatorFunctionsEPFPvmS0_EPFvS0_S0_ES0_, symObjAddr: 0x6058, symBinAddr: 0x34098, symSize: 0x1C }
  - { offset: 0x120AA8, size: 0x8, addend: 0x0, symName: __ZN5ImGui21SetAllocatorFunctionsEPFPvmS0_EPFvS0_S0_ES0_, symObjAddr: 0x6058, symBinAddr: 0x34098, symSize: 0x1C }
  - { offset: 0x120AB0, size: 0x8, addend: 0x0, symName: __ZN5ImGui21GetAllocatorFunctionsEPPFPvmS0_EPPFvS0_S0_EPS0_, symObjAddr: 0x6074, symBinAddr: 0x340B4, symSize: 0x28 }
  - { offset: 0x120B02, size: 0x8, addend: 0x0, symName: __ZN5ImGui21GetAllocatorFunctionsEPPFPvmS0_EPPFvS0_S0_EPS0_, symObjAddr: 0x6074, symBinAddr: 0x340B4, symSize: 0x28 }
  - { offset: 0x120B0A, size: 0x8, addend: 0x0, symName: __ZN5ImGui13CreateContextEP11ImFontAtlas, symObjAddr: 0x609C, symBinAddr: 0x340DC, symSize: 0x78 }
  - { offset: 0x120B7A, size: 0x8, addend: 0x0, symName: __ZN5ImGui13CreateContextEP11ImFontAtlas, symObjAddr: 0x609C, symBinAddr: 0x340DC, symSize: 0x78 }
  - { offset: 0x120B82, size: 0x8, addend: 0x0, symName: __ZN5ImGui10InitializeEP12ImGuiContext, symObjAddr: 0x6114, symBinAddr: 0x34154, symSize: 0x290 }
  - { offset: 0x120C64, size: 0x8, addend: 0x0, symName: __ZN5ImGui10InitializeEP12ImGuiContext, symObjAddr: 0x6114, symBinAddr: 0x34154, symSize: 0x290 }
  - { offset: 0x120C6C, size: 0x8, addend: 0x0, symName: __ZN5ImGui14DestroyContextEP12ImGuiContext, symObjAddr: 0x63A4, symBinAddr: 0x343E4, symSize: 0x44 }
  - { offset: 0x1210BA, size: 0x8, addend: 0x0, symName: __ZN5ImGui14DestroyContextEP12ImGuiContext, symObjAddr: 0x63A4, symBinAddr: 0x343E4, symSize: 0x44 }
  - { offset: 0x1210C2, size: 0x8, addend: 0x0, symName: __ZN5ImGui8ShutdownEP12ImGuiContext, symObjAddr: 0x63E8, symBinAddr: 0x34428, symSize: 0x520 }
  - { offset: 0x121117, size: 0x8, addend: 0x0, symName: __ZN5ImGui8ShutdownEP12ImGuiContext, symObjAddr: 0x63E8, symBinAddr: 0x34428, symSize: 0x520 }
  - { offset: 0x12111F, size: 0x8, addend: 0x0, symName: __Z9IM_DELETEI12ImGuiContextEvPT_, symObjAddr: 0x6908, symBinAddr: 0x34948, symSize: 0x44 }
  - { offset: 0x121931, size: 0x8, addend: 0x0, symName: __ZN5ImGui14AddContextHookEP12ImGuiContextPK16ImGuiContextHook, symObjAddr: 0x694C, symBinAddr: 0x3498C, symSize: 0x124 }
  - { offset: 0x121939, size: 0x8, addend: 0x0, symName: __ZN5ImGui17RemoveContextHookEP12ImGuiContextj, symObjAddr: 0x6A70, symBinAddr: 0x34AB0, symSize: 0x38 }
  - { offset: 0x121ADC, size: 0x8, addend: 0x0, symName: __ZN5ImGui17RemoveContextHookEP12ImGuiContextj, symObjAddr: 0x6A70, symBinAddr: 0x34AB0, symSize: 0x38 }
  - { offset: 0x121AE4, size: 0x8, addend: 0x0, symName: __ZN5ImGui16CallContextHooksEP12ImGuiContext20ImGuiContextHookType, symObjAddr: 0x6AA8, symBinAddr: 0x34AE8, symSize: 0x70 }
  - { offset: 0x121B5B, size: 0x8, addend: 0x0, symName: __ZN5ImGui16CallContextHooksEP12ImGuiContext20ImGuiContextHookType, symObjAddr: 0x6AA8, symBinAddr: 0x34AE8, symSize: 0x70 }
  - { offset: 0x121B63, size: 0x8, addend: 0x0, symName: __ZN5ImGui5GetIOEv, symObjAddr: 0x6B18, symBinAddr: 0x34B58, symSize: 0x10 }
  - { offset: 0x121C06, size: 0x8, addend: 0x0, symName: __ZN5ImGui5GetIOEv, symObjAddr: 0x6B18, symBinAddr: 0x34B58, symSize: 0x10 }
  - { offset: 0x121C0E, size: 0x8, addend: 0x0, symName: __ZN5ImGui11GetDrawDataEv, symObjAddr: 0x6B28, symBinAddr: 0x34B68, symSize: 0x20 }
  - { offset: 0x121C21, size: 0x8, addend: 0x0, symName: __ZN5ImGui11GetDrawDataEv, symObjAddr: 0x6B28, symBinAddr: 0x34B68, symSize: 0x20 }
  - { offset: 0x121C29, size: 0x8, addend: 0x0, symName: __ZN5ImGui7GetTimeEv, symObjAddr: 0x6B48, symBinAddr: 0x34B88, symSize: 0x10 }
  - { offset: 0x121CA4, size: 0x8, addend: 0x0, symName: __ZN5ImGui7GetTimeEv, symObjAddr: 0x6B48, symBinAddr: 0x34B88, symSize: 0x10 }
  - { offset: 0x121CAC, size: 0x8, addend: 0x0, symName: __ZN5ImGui13GetFrameCountEv, symObjAddr: 0x6B58, symBinAddr: 0x34B98, symSize: 0x10 }
  - { offset: 0x121CCB, size: 0x8, addend: 0x0, symName: __ZN5ImGui13GetFrameCountEv, symObjAddr: 0x6B58, symBinAddr: 0x34B98, symSize: 0x10 }
  - { offset: 0x121CD3, size: 0x8, addend: 0x0, symName: __ZN5ImGui21GetBackgroundDrawListEP13ImGuiViewport, symObjAddr: 0x6B68, symBinAddr: 0x34BA8, symSize: 0x10 }
  - { offset: 0x121CE7, size: 0x8, addend: 0x0, symName: __ZN5ImGui21GetBackgroundDrawListEP13ImGuiViewport, symObjAddr: 0x6B68, symBinAddr: 0x34BA8, symSize: 0x10 }
  - { offset: 0x121CEF, size: 0x8, addend: 0x0, symName: __ZL19GetViewportDrawListP14ImGuiViewportPmPKc, symObjAddr: 0x6B78, symBinAddr: 0x34BB8, symSize: 0xF8 }
  - { offset: 0x121D35, size: 0x8, addend: 0x0, symName: __ZN5ImGui21GetBackgroundDrawListEv, symObjAddr: 0x6C70, symBinAddr: 0x34CB0, symSize: 0x20 }
  - { offset: 0x121D3D, size: 0x8, addend: 0x0, symName: __ZN5ImGui21GetForegroundDrawListEP13ImGuiViewport, symObjAddr: 0x6C90, symBinAddr: 0x34CD0, symSize: 0x10 }
  - { offset: 0x121DB2, size: 0x8, addend: 0x0, symName: __ZN5ImGui21GetForegroundDrawListEP13ImGuiViewport, symObjAddr: 0x6C90, symBinAddr: 0x34CD0, symSize: 0x10 }
  - { offset: 0x121DCD, size: 0x8, addend: 0x0, symName: __ZN5ImGui21GetForegroundDrawListEP13ImGuiViewport, symObjAddr: 0x6C90, symBinAddr: 0x34CD0, symSize: 0x10 }
  - { offset: 0x121DD5, size: 0x8, addend: 0x0, symName: __ZN5ImGui21GetDrawListSharedDataEv, symObjAddr: 0x6CA0, symBinAddr: 0x34CE0, symSize: 0x14 }
  - { offset: 0x121DF5, size: 0x8, addend: 0x0, symName: __ZN5ImGui21GetDrawListSharedDataEv, symObjAddr: 0x6CA0, symBinAddr: 0x34CE0, symSize: 0x14 }
  - { offset: 0x121DFD, size: 0x8, addend: 0x0, symName: __ZN5ImGui22StartMouseMovingWindowEP11ImGuiWindow, symObjAddr: 0x6CB4, symBinAddr: 0x34CF4, symSize: 0x78 }
  - { offset: 0x121E1D, size: 0x8, addend: 0x0, symName: __ZN5ImGui22StartMouseMovingWindowEP11ImGuiWindow, symObjAddr: 0x6CB4, symBinAddr: 0x34CF4, symSize: 0x78 }
  - { offset: 0x121E25, size: 0x8, addend: 0x0, symName: __ZN5ImGui11FocusWindowEP11ImGuiWindow, symObjAddr: 0x6D2C, symBinAddr: 0x34D6C, symSize: 0xF4 }
  - { offset: 0x121EC9, size: 0x8, addend: 0x0, symName: __ZN5ImGui11FocusWindowEP11ImGuiWindow, symObjAddr: 0x6D2C, symBinAddr: 0x34D6C, symSize: 0xF4 }
  - { offset: 0x121ED1, size: 0x8, addend: 0x0, symName: __ZN5ImGui31UpdateMouseMovingWindowNewFrameEv, symObjAddr: 0x6E20, symBinAddr: 0x34E60, symSize: 0x130 }
  - { offset: 0x121FD9, size: 0x8, addend: 0x0, symName: __ZN5ImGui31UpdateMouseMovingWindowNewFrameEv, symObjAddr: 0x6E20, symBinAddr: 0x34E60, symSize: 0x130 }
  - { offset: 0x121FE1, size: 0x8, addend: 0x0, symName: __ZN5ImGui15IsMousePosValidEPK6ImVec2, symObjAddr: 0x6F50, symBinAddr: 0x34F90, symSize: 0x34 }
  - { offset: 0x12214A, size: 0x8, addend: 0x0, symName: __ZN5ImGui15IsMousePosValidEPK6ImVec2, symObjAddr: 0x6F50, symBinAddr: 0x34F90, symSize: 0x34 }
  - { offset: 0x122152, size: 0x8, addend: 0x0, symName: __ZN5ImGui20MarkIniSettingsDirtyEP11ImGuiWindow, symObjAddr: 0x6F84, symBinAddr: 0x34FC4, symSize: 0x28 }
  - { offset: 0x122190, size: 0x8, addend: 0x0, symName: __ZN5ImGui20MarkIniSettingsDirtyEP11ImGuiWindow, symObjAddr: 0x6F84, symBinAddr: 0x34FC4, symSize: 0x28 }
  - { offset: 0x122198, size: 0x8, addend: 0x0, symName: __ZN5ImGui12SetWindowPosEP11ImGuiWindowRK6ImVec2i, symObjAddr: 0x6FAC, symBinAddr: 0x34FEC, symSize: 0x6C }
  - { offset: 0x1221C5, size: 0x8, addend: 0x0, symName: __ZN5ImGui12SetWindowPosEP11ImGuiWindowRK6ImVec2i, symObjAddr: 0x6FAC, symBinAddr: 0x34FEC, symSize: 0x6C }
  - { offset: 0x1221CD, size: 0x8, addend: 0x0, symName: __ZN5ImGui31UpdateMouseMovingWindowEndFrameEv, symObjAddr: 0x7018, symBinAddr: 0x35058, symSize: 0x158 }
  - { offset: 0x1223B0, size: 0x8, addend: 0x0, symName: __ZN5ImGui31UpdateMouseMovingWindowEndFrameEv, symObjAddr: 0x7018, symBinAddr: 0x35058, symSize: 0x158 }
  - { offset: 0x1223B8, size: 0x8, addend: 0x0, symName: __ZN5ImGui11IsPopupOpenEji, symObjAddr: 0x7170, symBinAddr: 0x351B0, symSize: 0x90 }
  - { offset: 0x1224A9, size: 0x8, addend: 0x0, symName: __ZN5ImGui11IsPopupOpenEji, symObjAddr: 0x7170, symBinAddr: 0x351B0, symSize: 0x90 }
  - { offset: 0x122556, size: 0x8, addend: 0x0, symName: __ZN5ImGui11IsPopupOpenEji, symObjAddr: 0x7170, symBinAddr: 0x351B0, symSize: 0x90 }
  - { offset: 0x12255E, size: 0x8, addend: 0x0, symName: __ZNK11ImGuiWindow12TitleBarRectEv, symObjAddr: 0x7200, symBinAddr: 0x35240, symSize: 0x50 }
  - { offset: 0x1225D3, size: 0x8, addend: 0x0, symName: __ZN5ImGui20GetTopMostPopupModalEv, symObjAddr: 0x7250, symBinAddr: 0x35290, symSize: 0x4C }
  - { offset: 0x1225DB, size: 0x8, addend: 0x0, symName: __ZN5ImGui13IsWindowAboveEP11ImGuiWindowS1_, symObjAddr: 0x729C, symBinAddr: 0x352DC, symSize: 0x44 }
  - { offset: 0x12264C, size: 0x8, addend: 0x0, symName: __ZN5ImGui13IsWindowAboveEP11ImGuiWindowS1_, symObjAddr: 0x729C, symBinAddr: 0x352DC, symSize: 0x44 }
  - { offset: 0x122654, size: 0x8, addend: 0x0, symName: __ZN5ImGui21ClosePopupsOverWindowEP11ImGuiWindowb, symObjAddr: 0x72E0, symBinAddr: 0x35320, symSize: 0xA4 }
  - { offset: 0x1226E5, size: 0x8, addend: 0x0, symName: __ZN5ImGui21ClosePopupsOverWindowEP11ImGuiWindowb, symObjAddr: 0x72E0, symBinAddr: 0x35320, symSize: 0xA4 }
  - { offset: 0x1226ED, size: 0x8, addend: 0x0, symName: __ZN5ImGui34UpdateHoveredWindowAndCaptureFlagsEv, symObjAddr: 0x7384, symBinAddr: 0x353C4, symSize: 0x3A8 }
  - { offset: 0x1227F7, size: 0x8, addend: 0x0, symName: __ZN5ImGui34UpdateHoveredWindowAndCaptureFlagsEv, symObjAddr: 0x7384, symBinAddr: 0x353C4, symSize: 0x3A8 }
  - { offset: 0x1227FF, size: 0x8, addend: 0x0, symName: __ZN5ImGui15IsWindowChildOfEP11ImGuiWindowS1_, symObjAddr: 0x772C, symBinAddr: 0x3576C, symSize: 0x30 }
  - { offset: 0x122A44, size: 0x8, addend: 0x0, symName: __ZN5ImGui15IsWindowChildOfEP11ImGuiWindowS1_, symObjAddr: 0x772C, symBinAddr: 0x3576C, symSize: 0x30 }
  - { offset: 0x122A4C, size: 0x8, addend: 0x0, symName: __ZN5ImGui20GetMergedKeyModFlagsEv, symObjAddr: 0x775C, symBinAddr: 0x3579C, symSize: 0x40 }
  - { offset: 0x122A79, size: 0x8, addend: 0x0, symName: __ZN5ImGui20GetMergedKeyModFlagsEv, symObjAddr: 0x775C, symBinAddr: 0x3579C, symSize: 0x40 }
  - { offset: 0x122A81, size: 0x8, addend: 0x0, symName: __ZN5ImGui8NewFrameEv, symObjAddr: 0x779C, symBinAddr: 0x357DC, symSize: 0x26A8 }
  - { offset: 0x123503, size: 0x8, addend: 0x0, symName: __ZN5ImGui8NewFrameEv, symObjAddr: 0x779C, symBinAddr: 0x357DC, symSize: 0x26A8 }
  - { offset: 0x12350B, size: 0x8, addend: 0x0, symName: __ZN5ImGui14SetCurrentFontEP6ImFont, symObjAddr: 0x9E44, symBinAddr: 0x37E84, symSize: 0x7C }
  - { offset: 0x124B7E, size: 0x8, addend: 0x0, symName: __ZN5ImGui14SetCurrentFontEP6ImFont, symObjAddr: 0x9E44, symBinAddr: 0x37E84, symSize: 0x7C }
  - { offset: 0x126078, size: 0x8, addend: 0x0, symName: __ZN5ImGui14SetCurrentFontEP6ImFont, symObjAddr: 0x9E44, symBinAddr: 0x37E84, symSize: 0x7C }
  - { offset: 0x126080, size: 0x8, addend: 0x0, symName: __ZN5ImGui26FocusTopMostWindowUnderOneEP11ImGuiWindowS1_, symObjAddr: 0x9EC0, symBinAddr: 0x37F00, symSize: 0x88 }
  - { offset: 0x126196, size: 0x8, addend: 0x0, symName: __ZN5ImGui26FocusTopMostWindowUnderOneEP11ImGuiWindowS1_, symObjAddr: 0x9EC0, symBinAddr: 0x37F00, symSize: 0x88 }
  - { offset: 0x12619E, size: 0x8, addend: 0x0, symName: __ZN5ImGui17SetNextWindowSizeERK6ImVec2i, symObjAddr: 0x9F48, symBinAddr: 0x37F88, symSize: 0x2C }
  - { offset: 0x12627C, size: 0x8, addend: 0x0, symName: __ZN5ImGui17SetNextWindowSizeERK6ImVec2i, symObjAddr: 0x9F48, symBinAddr: 0x37F88, symSize: 0x2C }
  - { offset: 0x1262C7, size: 0x8, addend: 0x0, symName: __ZN5ImGui17SetNextWindowSizeERK6ImVec2i, symObjAddr: 0x9F48, symBinAddr: 0x37F88, symSize: 0x2C }
  - { offset: 0x1262CF, size: 0x8, addend: 0x0, symName: __ZN5ImGui5BeginEPKcPbi, symObjAddr: 0x9F74, symBinAddr: 0x37FB4, symSize: 0x2F8C }
  - { offset: 0x126B10, size: 0x8, addend: 0x0, symName: __ZN5ImGui5BeginEPKcPbi, symObjAddr: 0x9F74, symBinAddr: 0x37FB4, symSize: 0x2F8C }
  - { offset: 0x126B18, size: 0x8, addend: 0x0, symName: __ZL30WindowSettingsHandler_ClearAllP12ImGuiContextP20ImGuiSettingsHandler, symObjAddr: 0xCF00, symBinAddr: 0x3AF40, symSize: 0x2C }
  - { offset: 0x12A6A7, size: 0x8, addend: 0x0, symName: __ZN5ImGui21SaveIniSettingsToDiskEPKc, symObjAddr: 0xD2F0, symBinAddr: 0x3B330, symSize: 0x78 }
  - { offset: 0x12A6AF, size: 0x8, addend: 0x0, symName: __Z9IM_DELETEI11ImGuiWindowEvPT_, symObjAddr: 0xD368, symBinAddr: 0x3B3A8, symSize: 0x44 }
  - { offset: 0x12A7FA, size: 0x8, addend: 0x0, symName: __ZN5ImGui12PushClipRectERK6ImVec2S2_b, symObjAddr: 0xD930, symBinAddr: 0x3B970, symSize: 0x5C }
  - { offset: 0x12A802, size: 0x8, addend: 0x0, symName: __ZN5ImGui11PopClipRectEv, symObjAddr: 0xD98C, symBinAddr: 0x3B9CC, symSize: 0x4C }
  - { offset: 0x12A907, size: 0x8, addend: 0x0, symName: __ZN5ImGui11PopClipRectEv, symObjAddr: 0xD98C, symBinAddr: 0x3B9CC, symSize: 0x4C }
  - { offset: 0x12A90F, size: 0x8, addend: 0x0, symName: __ZN5ImGui8EndFrameEv, symObjAddr: 0xD9D8, symBinAddr: 0x3BA18, symSize: 0x880 }
  - { offset: 0x12AC80, size: 0x8, addend: 0x0, symName: __ZN5ImGui8EndFrameEv, symObjAddr: 0xD9D8, symBinAddr: 0x3BA18, symSize: 0x880 }
  - { offset: 0x12AC88, size: 0x8, addend: 0x0, symName: __ZN5ImGui3EndEv, symObjAddr: 0xE258, symBinAddr: 0x3C298, symSize: 0x9C }
  - { offset: 0x12B0A9, size: 0x8, addend: 0x0, symName: __ZN5ImGui3EndEv, symObjAddr: 0xE258, symBinAddr: 0x3C298, symSize: 0x9C }
  - { offset: 0x12B2FB, size: 0x8, addend: 0x0, symName: __ZN5ImGui3EndEv, symObjAddr: 0xE258, symBinAddr: 0x3C298, symSize: 0x9C }
  - { offset: 0x12B710, size: 0x8, addend: 0x0, symName: __ZN5ImGui3EndEv, symObjAddr: 0xE258, symBinAddr: 0x3C298, symSize: 0x9C }
  - { offset: 0x12B718, size: 0x8, addend: 0x0, symName: __ZN5ImGui11IsMouseDownEi, symObjAddr: 0xE2F4, symBinAddr: 0x3C334, symSize: 0x14 }
  - { offset: 0x12B7BA, size: 0x8, addend: 0x0, symName: __ZN5ImGui11IsMouseDownEi, symObjAddr: 0xE2F4, symBinAddr: 0x3C334, symSize: 0x14 }
  - { offset: 0x12B7C2, size: 0x8, addend: 0x0, symName: __ZN5ImGui13ClearDragDropEv, symObjAddr: 0xE308, symBinAddr: 0x3C348, symSize: 0xAC }
  - { offset: 0x12B7F1, size: 0x8, addend: 0x0, symName: __ZN5ImGui13ClearDragDropEv, symObjAddr: 0xE308, symBinAddr: 0x3C348, symSize: 0xAC }
  - { offset: 0x12B7F9, size: 0x8, addend: 0x0, symName: __ZN5ImGui10SetTooltipEPKcz, symObjAddr: 0xE3B4, symBinAddr: 0x3C3F4, symSize: 0x48 }
  - { offset: 0x12B8D5, size: 0x8, addend: 0x0, symName: __ZN5ImGui10SetTooltipEPKcz, symObjAddr: 0xE3B4, symBinAddr: 0x3C3F4, symSize: 0x48 }
  - { offset: 0x12B8DD, size: 0x8, addend: 0x0, symName: __ZL21AddWindowToSortBufferP8ImVectorIP11ImGuiWindowES1_, symObjAddr: 0xE3FC, symBinAddr: 0x3C43C, symSize: 0x15C }
  - { offset: 0x12B989, size: 0x8, addend: 0x0, symName: __ZN5ImGui6RenderEv, symObjAddr: 0xE558, symBinAddr: 0x3C598, symSize: 0x2FC }
  - { offset: 0x12B991, size: 0x8, addend: 0x0, symName: __ZN17ImDrawDataBuilder5ClearEv, symObjAddr: 0xE854, symBinAddr: 0x3C894, symSize: 0xEC }
  - { offset: 0x12BD15, size: 0x8, addend: 0x0, symName: __ZN5ImGui11GetKeyIndexEi, symObjAddr: 0xEA4C, symBinAddr: 0x3CA8C, symSize: 0x14 }
  - { offset: 0x12BD1D, size: 0x8, addend: 0x0, symName: __ZN5ImGui9IsKeyDownEi, symObjAddr: 0xEA60, symBinAddr: 0x3CAA0, symSize: 0x28 }
  - { offset: 0x12BD66, size: 0x8, addend: 0x0, symName: __ZN5ImGui9IsKeyDownEi, symObjAddr: 0xEA60, symBinAddr: 0x3CAA0, symSize: 0x28 }
  - { offset: 0x12BD6E, size: 0x8, addend: 0x0, symName: __ZN5ImGui25CalcTypematicRepeatAmountEffff, symObjAddr: 0xEA88, symBinAddr: 0x3CAC8, symSize: 0x7C }
  - { offset: 0x12BD9C, size: 0x8, addend: 0x0, symName: __ZN5ImGui25CalcTypematicRepeatAmountEffff, symObjAddr: 0xEA88, symBinAddr: 0x3CAC8, symSize: 0x7C }
  - { offset: 0x12BDA4, size: 0x8, addend: 0x0, symName: __ZN5ImGui19GetKeyPressedAmountEiff, symObjAddr: 0xEB04, symBinAddr: 0x3CB44, symSize: 0x30 }
  - { offset: 0x12BE51, size: 0x8, addend: 0x0, symName: __ZN5ImGui19GetKeyPressedAmountEiff, symObjAddr: 0xEB04, symBinAddr: 0x3CB44, symSize: 0x30 }
  - { offset: 0x12BE59, size: 0x8, addend: 0x0, symName: __ZN5ImGui12IsKeyPressedEib, symObjAddr: 0xEB34, symBinAddr: 0x3CB74, symSize: 0x68 }
  - { offset: 0x12BF15, size: 0x8, addend: 0x0, symName: __ZN5ImGui12IsKeyPressedEib, symObjAddr: 0xEB34, symBinAddr: 0x3CB74, symSize: 0x68 }
  - { offset: 0x12BF1D, size: 0x8, addend: 0x0, symName: __ZN5ImGui13IsKeyReleasedEi, symObjAddr: 0xEB9C, symBinAddr: 0x3CBDC, symSize: 0x3C }
  - { offset: 0x12BFD6, size: 0x8, addend: 0x0, symName: __ZN5ImGui13IsKeyReleasedEi, symObjAddr: 0xEB9C, symBinAddr: 0x3CBDC, symSize: 0x3C }
  - { offset: 0x12BFDE, size: 0x8, addend: 0x0, symName: __ZN5ImGui14IsMouseClickedEib, symObjAddr: 0xEBD8, symBinAddr: 0x3CC18, symSize: 0x64 }
  - { offset: 0x12C027, size: 0x8, addend: 0x0, symName: __ZN5ImGui14IsMouseClickedEib, symObjAddr: 0xEBD8, symBinAddr: 0x3CC18, symSize: 0x64 }
  - { offset: 0x12C02F, size: 0x8, addend: 0x0, symName: __ZN5ImGui15IsMouseReleasedEi, symObjAddr: 0xEC3C, symBinAddr: 0x3CC7C, symSize: 0x14 }
  - { offset: 0x12C093, size: 0x8, addend: 0x0, symName: __ZN5ImGui15IsMouseReleasedEi, symObjAddr: 0xEC3C, symBinAddr: 0x3CC7C, symSize: 0x14 }
  - { offset: 0x12C09B, size: 0x8, addend: 0x0, symName: __ZN5ImGui20IsMouseDoubleClickedEi, symObjAddr: 0xEC50, symBinAddr: 0x3CC90, symSize: 0x14 }
  - { offset: 0x12C0C9, size: 0x8, addend: 0x0, symName: __ZN5ImGui20IsMouseDoubleClickedEi, symObjAddr: 0xEC50, symBinAddr: 0x3CC90, symSize: 0x14 }
  - { offset: 0x12C0D1, size: 0x8, addend: 0x0, symName: __ZN5ImGui24IsMouseDragPastThresholdEif, symObjAddr: 0xEC64, symBinAddr: 0x3CCA4, symSize: 0x2C }
  - { offset: 0x12C11A, size: 0x8, addend: 0x0, symName: __ZN5ImGui24IsMouseDragPastThresholdEif, symObjAddr: 0xEC64, symBinAddr: 0x3CCA4, symSize: 0x2C }
  - { offset: 0x12C122, size: 0x8, addend: 0x0, symName: __ZN5ImGui15IsMouseDraggingEif, symObjAddr: 0xEC90, symBinAddr: 0x3CCD0, symSize: 0x44 }
  - { offset: 0x12C1A5, size: 0x8, addend: 0x0, symName: __ZN5ImGui15IsMouseDraggingEif, symObjAddr: 0xEC90, symBinAddr: 0x3CCD0, symSize: 0x44 }
  - { offset: 0x12C1AD, size: 0x8, addend: 0x0, symName: __ZN5ImGui11GetMousePosEv, symObjAddr: 0xECD4, symBinAddr: 0x3CD14, symSize: 0x14 }
  - { offset: 0x12C220, size: 0x8, addend: 0x0, symName: __ZN5ImGui11GetMousePosEv, symObjAddr: 0xECD4, symBinAddr: 0x3CD14, symSize: 0x14 }
  - { offset: 0x12C228, size: 0x8, addend: 0x0, symName: __ZN5ImGui32GetMousePosOnOpeningCurrentPopupEv, symObjAddr: 0xECE8, symBinAddr: 0x3CD28, symSize: 0x40 }
  - { offset: 0x12C25C, size: 0x8, addend: 0x0, symName: __ZN5ImGui32GetMousePosOnOpeningCurrentPopupEv, symObjAddr: 0xECE8, symBinAddr: 0x3CD28, symSize: 0x40 }
  - { offset: 0x12C264, size: 0x8, addend: 0x0, symName: __ZN5ImGui14IsAnyMouseDownEv, symObjAddr: 0xED28, symBinAddr: 0x3CD68, symSize: 0x44 }
  - { offset: 0x12C2CA, size: 0x8, addend: 0x0, symName: __ZN5ImGui14IsAnyMouseDownEv, symObjAddr: 0xED28, symBinAddr: 0x3CD68, symSize: 0x44 }
  - { offset: 0x12C2D2, size: 0x8, addend: 0x0, symName: __ZN5ImGui17GetMouseDragDeltaEif, symObjAddr: 0xED6C, symBinAddr: 0x3CDAC, symSize: 0xA0 }
  - { offset: 0x12C320, size: 0x8, addend: 0x0, symName: __ZN5ImGui17GetMouseDragDeltaEif, symObjAddr: 0xED6C, symBinAddr: 0x3CDAC, symSize: 0xA0 }
  - { offset: 0x12C328, size: 0x8, addend: 0x0, symName: __ZN5ImGui19ResetMouseDragDeltaEi, symObjAddr: 0xEE0C, symBinAddr: 0x3CE4C, symSize: 0x1C }
  - { offset: 0x12C427, size: 0x8, addend: 0x0, symName: __ZN5ImGui19ResetMouseDragDeltaEi, symObjAddr: 0xEE0C, symBinAddr: 0x3CE4C, symSize: 0x1C }
  - { offset: 0x12C42F, size: 0x8, addend: 0x0, symName: __ZN5ImGui14GetMouseCursorEv, symObjAddr: 0xEE28, symBinAddr: 0x3CE68, symSize: 0x10 }
  - { offset: 0x12C46F, size: 0x8, addend: 0x0, symName: __ZN5ImGui14GetMouseCursorEv, symObjAddr: 0xEE28, symBinAddr: 0x3CE68, symSize: 0x10 }
  - { offset: 0x12C477, size: 0x8, addend: 0x0, symName: __ZN5ImGui14SetMouseCursorEi, symObjAddr: 0xEE38, symBinAddr: 0x3CE78, symSize: 0x10 }
  - { offset: 0x12C497, size: 0x8, addend: 0x0, symName: __ZN5ImGui14SetMouseCursorEi, symObjAddr: 0xEE38, symBinAddr: 0x3CE78, symSize: 0x10 }
  - { offset: 0x12C49F, size: 0x8, addend: 0x0, symName: __ZN5ImGui22CaptureKeyboardFromAppEb, symObjAddr: 0xEE48, symBinAddr: 0x3CE88, symSize: 0x10 }
  - { offset: 0x12C4BF, size: 0x8, addend: 0x0, symName: __ZN5ImGui22CaptureKeyboardFromAppEb, symObjAddr: 0xEE48, symBinAddr: 0x3CE88, symSize: 0x10 }
  - { offset: 0x12C4C7, size: 0x8, addend: 0x0, symName: __ZN5ImGui19CaptureMouseFromAppEb, symObjAddr: 0xEE58, symBinAddr: 0x3CE98, symSize: 0x10 }
  - { offset: 0x12C4F0, size: 0x8, addend: 0x0, symName: __ZN5ImGui19CaptureMouseFromAppEb, symObjAddr: 0xEE58, symBinAddr: 0x3CE98, symSize: 0x10 }
  - { offset: 0x12C4F8, size: 0x8, addend: 0x0, symName: __ZN5ImGui12IsItemActiveEv, symObjAddr: 0xEE68, symBinAddr: 0x3CEA8, symSize: 0x2C }
  - { offset: 0x12C520, size: 0x8, addend: 0x0, symName: __ZN5ImGui12IsItemActiveEv, symObjAddr: 0xEE68, symBinAddr: 0x3CEA8, symSize: 0x2C }
  - { offset: 0x12C528, size: 0x8, addend: 0x0, symName: __ZN5ImGui15IsItemActivatedEv, symObjAddr: 0xEE94, symBinAddr: 0x3CED4, symSize: 0x3C }
  - { offset: 0x12C582, size: 0x8, addend: 0x0, symName: __ZN5ImGui15IsItemActivatedEv, symObjAddr: 0xEE94, symBinAddr: 0x3CED4, symSize: 0x3C }
  - { offset: 0x12C58A, size: 0x8, addend: 0x0, symName: __ZN5ImGui17IsItemDeactivatedEv, symObjAddr: 0xEED0, symBinAddr: 0x3CF10, symSize: 0x48 }
  - { offset: 0x12C5E4, size: 0x8, addend: 0x0, symName: __ZN5ImGui17IsItemDeactivatedEv, symObjAddr: 0xEED0, symBinAddr: 0x3CF10, symSize: 0x48 }
  - { offset: 0x12C5EC, size: 0x8, addend: 0x0, symName: __ZN5ImGui26IsItemDeactivatedAfterEditEv, symObjAddr: 0xEF18, symBinAddr: 0x3CF58, symSize: 0x5C }
  - { offset: 0x12C634, size: 0x8, addend: 0x0, symName: __ZN5ImGui26IsItemDeactivatedAfterEditEv, symObjAddr: 0xEF18, symBinAddr: 0x3CF58, symSize: 0x5C }
  - { offset: 0x12C63C, size: 0x8, addend: 0x0, symName: __ZN5ImGui13IsItemClickedEi, symObjAddr: 0xEF74, symBinAddr: 0x3CFB4, symSize: 0x24 }
  - { offset: 0x12C670, size: 0x8, addend: 0x0, symName: __ZN5ImGui13IsItemClickedEi, symObjAddr: 0xEF74, symBinAddr: 0x3CFB4, symSize: 0x24 }
  - { offset: 0x12C678, size: 0x8, addend: 0x0, symName: __ZN5ImGui17IsItemToggledOpenEv, symObjAddr: 0xEF98, symBinAddr: 0x3CFD8, symSize: 0x18 }
  - { offset: 0x12C6F0, size: 0x8, addend: 0x0, symName: __ZN5ImGui17IsItemToggledOpenEv, symObjAddr: 0xEF98, symBinAddr: 0x3CFD8, symSize: 0x18 }
  - { offset: 0x12C6F8, size: 0x8, addend: 0x0, symName: __ZN5ImGui22IsItemToggledSelectionEv, symObjAddr: 0xEFB0, symBinAddr: 0x3CFF0, symSize: 0x18 }
  - { offset: 0x12C72C, size: 0x8, addend: 0x0, symName: __ZN5ImGui22IsItemToggledSelectionEv, symObjAddr: 0xEFB0, symBinAddr: 0x3CFF0, symSize: 0x18 }
  - { offset: 0x12C734, size: 0x8, addend: 0x0, symName: __ZN5ImGui16IsAnyItemHoveredEv, symObjAddr: 0xEFC8, symBinAddr: 0x3D008, symSize: 0x28 }
  - { offset: 0x12C769, size: 0x8, addend: 0x0, symName: __ZN5ImGui16IsAnyItemHoveredEv, symObjAddr: 0xEFC8, symBinAddr: 0x3D008, symSize: 0x28 }
  - { offset: 0x12C771, size: 0x8, addend: 0x0, symName: __ZN5ImGui15IsAnyItemActiveEv, symObjAddr: 0xEFF0, symBinAddr: 0x3D030, symSize: 0x18 }
  - { offset: 0x12C792, size: 0x8, addend: 0x0, symName: __ZN5ImGui15IsAnyItemActiveEv, symObjAddr: 0xEFF0, symBinAddr: 0x3D030, symSize: 0x18 }
  - { offset: 0x12C79A, size: 0x8, addend: 0x0, symName: __ZN5ImGui16IsAnyItemFocusedEv, symObjAddr: 0xF008, symBinAddr: 0x3D048, symSize: 0x2C }
  - { offset: 0x12C7CE, size: 0x8, addend: 0x0, symName: __ZN5ImGui16IsAnyItemFocusedEv, symObjAddr: 0xF008, symBinAddr: 0x3D048, symSize: 0x2C }
  - { offset: 0x12C7D6, size: 0x8, addend: 0x0, symName: __ZN5ImGui13IsItemVisibleEv, symObjAddr: 0xF034, symBinAddr: 0x3D074, symSize: 0x58 }
  - { offset: 0x12C831, size: 0x8, addend: 0x0, symName: __ZN5ImGui13IsItemVisibleEv, symObjAddr: 0xF034, symBinAddr: 0x3D074, symSize: 0x58 }
  - { offset: 0x12C839, size: 0x8, addend: 0x0, symName: __ZN5ImGui12IsItemEditedEv, symObjAddr: 0xF08C, symBinAddr: 0x3D0CC, symSize: 0x18 }
  - { offset: 0x12C874, size: 0x8, addend: 0x0, symName: __ZN5ImGui13IsItemVisibleEv, symObjAddr: 0xF034, symBinAddr: 0x3D074, symSize: 0x58 }
  - { offset: 0x12C8C8, size: 0x8, addend: 0x0, symName: __ZN5ImGui12IsItemEditedEv, symObjAddr: 0xF08C, symBinAddr: 0x3D0CC, symSize: 0x18 }
  - { offset: 0x12C8D0, size: 0x8, addend: 0x0, symName: __ZN5ImGui19SetItemAllowOverlapEv, symObjAddr: 0xF0A4, symBinAddr: 0x3D0E4, symSize: 0x44 }
  - { offset: 0x12C90B, size: 0x8, addend: 0x0, symName: __ZN5ImGui12IsItemEditedEv, symObjAddr: 0xF08C, symBinAddr: 0x3D0CC, symSize: 0x18 }
  - { offset: 0x12C930, size: 0x8, addend: 0x0, symName: __ZN5ImGui19SetItemAllowOverlapEv, symObjAddr: 0xF0A4, symBinAddr: 0x3D0E4, symSize: 0x44 }
  - { offset: 0x12C938, size: 0x8, addend: 0x0, symName: __ZN5ImGui22SetItemUsingMouseWheelEv, symObjAddr: 0xF0E8, symBinAddr: 0x3D128, symSize: 0x44 }
  - { offset: 0x12C979, size: 0x8, addend: 0x0, symName: __ZN5ImGui22SetItemUsingMouseWheelEv, symObjAddr: 0xF0E8, symBinAddr: 0x3D128, symSize: 0x44 }
  - { offset: 0x12C981, size: 0x8, addend: 0x0, symName: __ZN5ImGui14GetItemRectMinEv, symObjAddr: 0xF12C, symBinAddr: 0x3D16C, symSize: 0x18 }
  - { offset: 0x12C9C1, size: 0x8, addend: 0x0, symName: __ZN5ImGui14GetItemRectMinEv, symObjAddr: 0xF12C, symBinAddr: 0x3D16C, symSize: 0x18 }
  - { offset: 0x12C9C9, size: 0x8, addend: 0x0, symName: __ZN5ImGui14GetItemRectMaxEv, symObjAddr: 0xF144, symBinAddr: 0x3D184, symSize: 0x18 }
  - { offset: 0x12CA04, size: 0x8, addend: 0x0, symName: __ZN5ImGui14GetItemRectMinEv, symObjAddr: 0xF12C, symBinAddr: 0x3D16C, symSize: 0x18 }
  - { offset: 0x12CA28, size: 0x8, addend: 0x0, symName: __ZN5ImGui14GetItemRectMaxEv, symObjAddr: 0xF144, symBinAddr: 0x3D184, symSize: 0x18 }
  - { offset: 0x12CA30, size: 0x8, addend: 0x0, symName: __ZN5ImGui15GetItemRectSizeEv, symObjAddr: 0xF15C, symBinAddr: 0x3D19C, symSize: 0x28 }
  - { offset: 0x12CA6B, size: 0x8, addend: 0x0, symName: __ZN5ImGui14GetItemRectMaxEv, symObjAddr: 0xF144, symBinAddr: 0x3D184, symSize: 0x18 }
  - { offset: 0x12CA8F, size: 0x8, addend: 0x0, symName: __ZN5ImGui15GetItemRectSizeEv, symObjAddr: 0xF15C, symBinAddr: 0x3D19C, symSize: 0x28 }
  - { offset: 0x12CA97, size: 0x8, addend: 0x0, symName: __ZN5ImGui12BeginChildExEPKcjRK6ImVec2bi, symObjAddr: 0xF184, symBinAddr: 0x3D1C4, symSize: 0x1AC }
  - { offset: 0x12CAD2, size: 0x8, addend: 0x0, symName: __ZN5ImGui15GetItemRectSizeEv, symObjAddr: 0xF15C, symBinAddr: 0x3D19C, symSize: 0x28 }
  - { offset: 0x12CB1D, size: 0x8, addend: 0x0, symName: __ZN5ImGui12BeginChildExEPKcjRK6ImVec2bi, symObjAddr: 0xF184, symBinAddr: 0x3D1C4, symSize: 0x1AC }
  - { offset: 0x12CB25, size: 0x8, addend: 0x0, symName: __ZN5ImGui21GetContentRegionAvailEv, symObjAddr: 0xF330, symBinAddr: 0x3D370, symSize: 0x40 }
  - { offset: 0x12CCD1, size: 0x8, addend: 0x0, symName: __ZN5ImGui21GetContentRegionAvailEv, symObjAddr: 0xF330, symBinAddr: 0x3D370, symSize: 0x40 }
  - { offset: 0x12CCD9, size: 0x8, addend: 0x0, symName: __ZN5ImGui13NavInitWindowEP11ImGuiWindowb, symObjAddr: 0xF370, symBinAddr: 0x3D3B0, symSize: 0x88 }
  - { offset: 0x12CD78, size: 0x8, addend: 0x0, symName: __ZN5ImGui13NavInitWindowEP11ImGuiWindowb, symObjAddr: 0xF370, symBinAddr: 0x3D3B0, symSize: 0x88 }
  - { offset: 0x12CD80, size: 0x8, addend: 0x0, symName: __ZN5ImGui10BeginChildEPKcRK6ImVec2bi, symObjAddr: 0xF3F8, symBinAddr: 0x3D438, symSize: 0x64 }
  - { offset: 0x12CE3D, size: 0x8, addend: 0x0, symName: __ZN5ImGui10BeginChildEPKcRK6ImVec2bi, symObjAddr: 0xF3F8, symBinAddr: 0x3D438, symSize: 0x64 }
  - { offset: 0x12CE45, size: 0x8, addend: 0x0, symName: __ZN5ImGui10BeginChildEjRK6ImVec2bi, symObjAddr: 0xF45C, symBinAddr: 0x3D49C, symSize: 0x18 }
  - { offset: 0x12CEF1, size: 0x8, addend: 0x0, symName: __ZN5ImGui10BeginChildEjRK6ImVec2bi, symObjAddr: 0xF45C, symBinAddr: 0x3D49C, symSize: 0x18 }
  - { offset: 0x12CEF9, size: 0x8, addend: 0x0, symName: __ZN5ImGui8EndChildEv, symObjAddr: 0xF474, symBinAddr: 0x3D4B4, symSize: 0x1A0 }
  - { offset: 0x12CF3E, size: 0x8, addend: 0x0, symName: __ZN5ImGui8EndChildEv, symObjAddr: 0xF474, symBinAddr: 0x3D4B4, symSize: 0x1A0 }
  - { offset: 0x12CF46, size: 0x8, addend: 0x0, symName: __ZN5ImGui8ItemSizeERK6ImVec2f, symObjAddr: 0xF614, symBinAddr: 0x3D654, symSize: 0xE4 }
  - { offset: 0x12D19C, size: 0x8, addend: 0x0, symName: __ZN5ImGui8ItemSizeERK6ImVec2f, symObjAddr: 0xF614, symBinAddr: 0x3D654, symSize: 0xE4 }
  - { offset: 0x12D1A4, size: 0x8, addend: 0x0, symName: __ZN5ImGui7ItemAddERK6ImRectjPS1_i, symObjAddr: 0xF6F8, symBinAddr: 0x3D738, symSize: 0x314 }
  - { offset: 0x12D45B, size: 0x8, addend: 0x0, symName: __ZN5ImGui7ItemAddERK6ImRectjPS1_i, symObjAddr: 0xF6F8, symBinAddr: 0x3D738, symSize: 0x314 }
  - { offset: 0x12D463, size: 0x8, addend: 0x0, symName: __ZN5ImGui15BeginChildFrameEjRK6ImVec2i, symObjAddr: 0xFA0C, symBinAddr: 0x3DA4C, symSize: 0xD8 }
  - { offset: 0x12D51A, size: 0x8, addend: 0x0, symName: __ZN5ImGui15BeginChildFrameEjRK6ImVec2i, symObjAddr: 0xFA0C, symBinAddr: 0x3DA4C, symSize: 0xD8 }
  - { offset: 0x12D7F1, size: 0x8, addend: 0x0, symName: __ZN5ImGui15BeginChildFrameEjRK6ImVec2i, symObjAddr: 0xFA0C, symBinAddr: 0x3DA4C, symSize: 0xD8 }
  - { offset: 0x12D7F9, size: 0x8, addend: 0x0, symName: __ZN5ImGui13EndChildFrameEv, symObjAddr: 0xFAE4, symBinAddr: 0x3DB24, symSize: 0x4 }
  - { offset: 0x12D977, size: 0x8, addend: 0x0, symName: __ZN5ImGui13EndChildFrameEv, symObjAddr: 0xFAE4, symBinAddr: 0x3DB24, symSize: 0x4 }
  - { offset: 0x12D97F, size: 0x8, addend: 0x0, symName: __ZN5ImGui14FindWindowByIDEj, symObjAddr: 0xFAE8, symBinAddr: 0x3DB28, symSize: 0x18 }
  - { offset: 0x12D997, size: 0x8, addend: 0x0, symName: __ZN5ImGui14FindWindowByIDEj, symObjAddr: 0xFAE8, symBinAddr: 0x3DB28, symSize: 0x18 }
  - { offset: 0x12D99F, size: 0x8, addend: 0x0, symName: __ZN5ImGui16FindWindowByNameEPKc, symObjAddr: 0xFB00, symBinAddr: 0x3DB40, symSize: 0x30 }
  - { offset: 0x12D9CE, size: 0x8, addend: 0x0, symName: __ZN5ImGui16FindWindowByNameEPKc, symObjAddr: 0xFB00, symBinAddr: 0x3DB40, symSize: 0x30 }
  - { offset: 0x12D9D6, size: 0x8, addend: 0x0, symName: __ZN5ImGui25CalcWindowNextAutoFitSizeEP11ImGuiWindow, symObjAddr: 0xFB30, symBinAddr: 0x3DB70, symSize: 0x50 }
  - { offset: 0x12DA13, size: 0x8, addend: 0x0, symName: __ZN5ImGui25CalcWindowNextAutoFitSizeEP11ImGuiWindow, symObjAddr: 0xFB30, symBinAddr: 0x3DB70, symSize: 0x50 }
  - { offset: 0x12DA3A, size: 0x8, addend: 0x0, symName: __ZN5ImGui25CalcWindowNextAutoFitSizeEP11ImGuiWindow, symObjAddr: 0xFB30, symBinAddr: 0x3DB70, symSize: 0x50 }
  - { offset: 0x12DA42, size: 0x8, addend: 0x0, symName: __ZL22CalcWindowContentSizesP11ImGuiWindowP6ImVec2S2_, symObjAddr: 0xFB80, symBinAddr: 0x3DBC0, symSize: 0xFC }
  - { offset: 0x12DB0E, size: 0x8, addend: 0x0, symName: __ZN5ImGui23GetWindowResizeCornerIDEP11ImGuiWindowi, symObjAddr: 0xFFB4, symBinAddr: 0x3DFF4, symSize: 0x68 }
  - { offset: 0x12DB16, size: 0x8, addend: 0x0, symName: __ZN5ImGui23GetWindowResizeBorderIDEP11ImGuiWindowi, symObjAddr: 0x1001C, symBinAddr: 0x3E05C, symSize: 0x6C }
  - { offset: 0x12DBC7, size: 0x8, addend: 0x0, symName: __ZN5ImGui23GetWindowResizeBorderIDEP11ImGuiWindowi, symObjAddr: 0x1001C, symBinAddr: 0x3E05C, symSize: 0x6C }
  - { offset: 0x12DBCF, size: 0x8, addend: 0x0, symName: __ZN5ImGui30UpdateWindowParentAndRootLinksEP11ImGuiWindowiS1_, symObjAddr: 0x10088, symBinAddr: 0x3E0C8, symSize: 0x68 }
  - { offset: 0x12DC94, size: 0x8, addend: 0x0, symName: __ZN5ImGui30UpdateWindowParentAndRootLinksEP11ImGuiWindowiS1_, symObjAddr: 0x10088, symBinAddr: 0x3E0C8, symSize: 0x68 }
  - { offset: 0x12DC9C, size: 0x8, addend: 0x0, symName: __ZN15ImGuiStackSizes17SetToCurrentStateEv, symObjAddr: 0x100F0, symBinAddr: 0x3E130, symSize: 0x48 }
  - { offset: 0x12DCEE, size: 0x8, addend: 0x0, symName: __ZN5ImGui13SetWindowSizeEP11ImGuiWindowRK6ImVec2i, symObjAddr: 0x10138, symBinAddr: 0x3E178, symSize: 0x78 }
  - { offset: 0x12DCF6, size: 0x8, addend: 0x0, symName: __ZN5ImGui18SetWindowCollapsedEP11ImGuiWindowbi, symObjAddr: 0x101B0, symBinAddr: 0x3E1F0, symSize: 0x24 }
  - { offset: 0x12DD48, size: 0x8, addend: 0x0, symName: __ZN5ImGui18SetWindowCollapsedEP11ImGuiWindowbi, symObjAddr: 0x101B0, symBinAddr: 0x3E1F0, symSize: 0x24 }
  - { offset: 0x12DD50, size: 0x8, addend: 0x0, symName: __ZL16SetCurrentWindowP11ImGuiWindow, symObjAddr: 0x101D4, symBinAddr: 0x3E214, symSize: 0x64 }
  - { offset: 0x12DD83, size: 0x8, addend: 0x0, symName: __ZN5ImGui25FindBestWindowPosForPopupEP11ImGuiWindow, symObjAddr: 0x10284, symBinAddr: 0x3E2C4, symSize: 0x19C }
  - { offset: 0x12DD8B, size: 0x8, addend: 0x0, symName: __ZN5ImGui15GetMainViewportEv, symObjAddr: 0x10420, symBinAddr: 0x3E460, symSize: 0x14 }
  - { offset: 0x12DF18, size: 0x8, addend: 0x0, symName: __ZN5ImGui15GetMainViewportEv, symObjAddr: 0x10420, symBinAddr: 0x3E460, symSize: 0x14 }
  - { offset: 0x12E022, size: 0x8, addend: 0x0, symName: __ZN5ImGui15GetMainViewportEv, symObjAddr: 0x10420, symBinAddr: 0x3E460, symSize: 0x14 }
  - { offset: 0x12E02A, size: 0x8, addend: 0x0, symName: __ZL15ClampWindowRectP11ImGuiWindowRK6ImRect, symObjAddr: 0x10434, symBinAddr: 0x3E474, symSize: 0x6C }
  - { offset: 0x12E0AD, size: 0x8, addend: 0x0, symName: __ZN5ImGui9LogFinishEv, symObjAddr: 0x10688, symBinAddr: 0x3E6C8, symSize: 0xD0 }
  - { offset: 0x12E0B5, size: 0x8, addend: 0x0, symName: __ZN15ImGuiStackSizes23CompareWithCurrentStateEv, symObjAddr: 0x10758, symBinAddr: 0x3E798, symSize: 0x4 }
  - { offset: 0x12E185, size: 0x8, addend: 0x0, symName: __ZN5ImGui23BringWindowToFocusFrontEP11ImGuiWindow, symObjAddr: 0x1075C, symBinAddr: 0x3E79C, symSize: 0x6C }
  - { offset: 0x12E18D, size: 0x8, addend: 0x0, symName: __ZN5ImGui25BringWindowToDisplayFrontEP11ImGuiWindow, symObjAddr: 0x107C8, symBinAddr: 0x3E808, symSize: 0xA0 }
  - { offset: 0x12E26B, size: 0x8, addend: 0x0, symName: __ZN5ImGui25BringWindowToDisplayFrontEP11ImGuiWindow, symObjAddr: 0x107C8, symBinAddr: 0x3E808, symSize: 0xA0 }
  - { offset: 0x12E273, size: 0x8, addend: 0x0, symName: __ZN5ImGui24BringWindowToDisplayBackEP11ImGuiWindow, symObjAddr: 0x10868, symBinAddr: 0x3E8A8, symSize: 0x74 }
  - { offset: 0x12E355, size: 0x8, addend: 0x0, symName: __ZN5ImGui24BringWindowToDisplayBackEP11ImGuiWindow, symObjAddr: 0x10868, symBinAddr: 0x3E8A8, symSize: 0x74 }
  - { offset: 0x12E35D, size: 0x8, addend: 0x0, symName: __ZN5ImGui8PushFontEP6ImFont, symObjAddr: 0x108DC, symBinAddr: 0x3E91C, symSize: 0x130 }
  - { offset: 0x12E45A, size: 0x8, addend: 0x0, symName: __ZN5ImGui8PushFontEP6ImFont, symObjAddr: 0x108DC, symBinAddr: 0x3E91C, symSize: 0x130 }
  - { offset: 0x12E462, size: 0x8, addend: 0x0, symName: __ZN5ImGui7PopFontEv, symObjAddr: 0x10A0C, symBinAddr: 0x3EA4C, symSize: 0x68 }
  - { offset: 0x12E61D, size: 0x8, addend: 0x0, symName: __ZN5ImGui7PopFontEv, symObjAddr: 0x10A0C, symBinAddr: 0x3EA4C, symSize: 0x68 }
  - { offset: 0x12E625, size: 0x8, addend: 0x0, symName: __ZN5ImGui12PushItemFlagEib, symObjAddr: 0x10A74, symBinAddr: 0x3EAB4, symSize: 0x10C }
  - { offset: 0x12E6C2, size: 0x8, addend: 0x0, symName: __ZN5ImGui12PushItemFlagEib, symObjAddr: 0x10A74, symBinAddr: 0x3EAB4, symSize: 0x10C }
  - { offset: 0x12E6E7, size: 0x8, addend: 0x0, symName: __ZN5ImGui12PushItemFlagEib, symObjAddr: 0x10A74, symBinAddr: 0x3EAB4, symSize: 0x10C }
  - { offset: 0x12E6EF, size: 0x8, addend: 0x0, symName: __ZN5ImGui11PopItemFlagEv, symObjAddr: 0x10B80, symBinAddr: 0x3EBC0, symSize: 0x28 }
  - { offset: 0x12E87D, size: 0x8, addend: 0x0, symName: __ZN5ImGui11PopItemFlagEv, symObjAddr: 0x10B80, symBinAddr: 0x3EBC0, symSize: 0x28 }
  - { offset: 0x12E885, size: 0x8, addend: 0x0, symName: __ZN5ImGui22PushAllowKeyboardFocusEb, symObjAddr: 0x10BA8, symBinAddr: 0x3EBE8, symSize: 0xC }
  - { offset: 0x12E8F5, size: 0x8, addend: 0x0, symName: __ZN5ImGui22PushAllowKeyboardFocusEb, symObjAddr: 0x10BA8, symBinAddr: 0x3EBE8, symSize: 0xC }
  - { offset: 0x12E8FD, size: 0x8, addend: 0x0, symName: __ZN5ImGui21PopAllowKeyboardFocusEv, symObjAddr: 0x10BB4, symBinAddr: 0x3EBF4, symSize: 0x28 }
  - { offset: 0x12E93A, size: 0x8, addend: 0x0, symName: __ZN5ImGui21PopAllowKeyboardFocusEv, symObjAddr: 0x10BB4, symBinAddr: 0x3EBF4, symSize: 0x28 }
  - { offset: 0x12E942, size: 0x8, addend: 0x0, symName: __ZN5ImGui16PushButtonRepeatEb, symObjAddr: 0x10BDC, symBinAddr: 0x3EC1C, symSize: 0xC }
  - { offset: 0x12E95D, size: 0x8, addend: 0x0, symName: __ZN5ImGui21PopAllowKeyboardFocusEv, symObjAddr: 0x10BB4, symBinAddr: 0x3EBF4, symSize: 0x28 }
  - { offset: 0x12E9D0, size: 0x8, addend: 0x0, symName: __ZN5ImGui16PushButtonRepeatEb, symObjAddr: 0x10BDC, symBinAddr: 0x3EC1C, symSize: 0xC }
  - { offset: 0x12E9D8, size: 0x8, addend: 0x0, symName: __ZN5ImGui15PopButtonRepeatEv, symObjAddr: 0x10BE8, symBinAddr: 0x3EC28, symSize: 0x28 }
  - { offset: 0x12EA01, size: 0x8, addend: 0x0, symName: __ZN5ImGui15PopButtonRepeatEv, symObjAddr: 0x10BE8, symBinAddr: 0x3EC28, symSize: 0x28 }
  - { offset: 0x12EA09, size: 0x8, addend: 0x0, symName: __ZN5ImGui15PushTextWrapPosEf, symObjAddr: 0x10C10, symBinAddr: 0x3EC50, symSize: 0x114 }
  - { offset: 0x12EA28, size: 0x8, addend: 0x0, symName: __ZN5ImGui15PopButtonRepeatEv, symObjAddr: 0x10BE8, symBinAddr: 0x3EC28, symSize: 0x28 }
  - { offset: 0x12EA9B, size: 0x8, addend: 0x0, symName: __ZN5ImGui15PushTextWrapPosEf, symObjAddr: 0x10C10, symBinAddr: 0x3EC50, symSize: 0x114 }
  - { offset: 0x12EAA3, size: 0x8, addend: 0x0, symName: __ZN5ImGui14PopTextWrapPosEv, symObjAddr: 0x10D24, symBinAddr: 0x3ED64, symSize: 0x30 }
  - { offset: 0x12EC41, size: 0x8, addend: 0x0, symName: __ZN5ImGui14PopTextWrapPosEv, symObjAddr: 0x10D24, symBinAddr: 0x3ED64, symSize: 0x30 }
  - { offset: 0x12EC49, size: 0x8, addend: 0x0, symName: __ZN5ImGui15IsWindowHoveredEi, symObjAddr: 0x10D54, symBinAddr: 0x3ED94, symSize: 0xF4 }
  - { offset: 0x12EC71, size: 0x8, addend: 0x0, symName: __ZN5ImGui14PopTextWrapPosEv, symObjAddr: 0x10D24, symBinAddr: 0x3ED64, symSize: 0x30 }
  - { offset: 0x12ECE3, size: 0x8, addend: 0x0, symName: __ZN5ImGui15IsWindowHoveredEi, symObjAddr: 0x10D54, symBinAddr: 0x3ED94, symSize: 0xF4 }
  - { offset: 0x12ECEB, size: 0x8, addend: 0x0, symName: __ZN5ImGui15IsWindowFocusedEi, symObjAddr: 0x10E48, symBinAddr: 0x3EE88, symSize: 0xAC }
  - { offset: 0x12EDE1, size: 0x8, addend: 0x0, symName: __ZN5ImGui15IsWindowFocusedEi, symObjAddr: 0x10E48, symBinAddr: 0x3EE88, symSize: 0xAC }
  - { offset: 0x12EDE9, size: 0x8, addend: 0x0, symName: __ZN5ImGui20IsWindowNavFocusableEP11ImGuiWindow, symObjAddr: 0x10EF4, symBinAddr: 0x3EF34, symSize: 0x2C }
  - { offset: 0x12EE66, size: 0x8, addend: 0x0, symName: __ZN5ImGui20IsWindowNavFocusableEP11ImGuiWindow, symObjAddr: 0x10EF4, symBinAddr: 0x3EF34, symSize: 0x2C }
  - { offset: 0x12EE6E, size: 0x8, addend: 0x0, symName: __ZN5ImGui14GetWindowWidthEv, symObjAddr: 0x10F20, symBinAddr: 0x3EF60, symSize: 0x14 }
  - { offset: 0x12EE8F, size: 0x8, addend: 0x0, symName: __ZN5ImGui14GetWindowWidthEv, symObjAddr: 0x10F20, symBinAddr: 0x3EF60, symSize: 0x14 }
  - { offset: 0x12EE97, size: 0x8, addend: 0x0, symName: __ZN5ImGui15GetWindowHeightEv, symObjAddr: 0x10F34, symBinAddr: 0x3EF74, symSize: 0x14 }
  - { offset: 0x12EECB, size: 0x8, addend: 0x0, symName: __ZN5ImGui15GetWindowHeightEv, symObjAddr: 0x10F34, symBinAddr: 0x3EF74, symSize: 0x14 }
  - { offset: 0x12EED3, size: 0x8, addend: 0x0, symName: __ZN5ImGui12GetWindowPosEv, symObjAddr: 0x10F48, symBinAddr: 0x3EF88, symSize: 0x14 }
  - { offset: 0x12EF07, size: 0x8, addend: 0x0, symName: __ZN5ImGui12GetWindowPosEv, symObjAddr: 0x10F48, symBinAddr: 0x3EF88, symSize: 0x14 }
  - { offset: 0x12EF0F, size: 0x8, addend: 0x0, symName: __ZN5ImGui12SetWindowPosERK6ImVec2i, symObjAddr: 0x10F5C, symBinAddr: 0x3EF9C, symSize: 0x18 }
  - { offset: 0x12EF58, size: 0x8, addend: 0x0, symName: __ZN5ImGui12SetWindowPosERK6ImVec2i, symObjAddr: 0x10F5C, symBinAddr: 0x3EF9C, symSize: 0x18 }
  - { offset: 0x12EF60, size: 0x8, addend: 0x0, symName: __ZN5ImGui12SetWindowPosEPKcRK6ImVec2i, symObjAddr: 0x10F74, symBinAddr: 0x3EFB4, symSize: 0x5C }
  - { offset: 0x12EFE0, size: 0x8, addend: 0x0, symName: __ZN5ImGui12SetWindowPosEPKcRK6ImVec2i, symObjAddr: 0x10F74, symBinAddr: 0x3EFB4, symSize: 0x5C }
  - { offset: 0x12EFE8, size: 0x8, addend: 0x0, symName: __ZN5ImGui13GetWindowSizeEv, symObjAddr: 0x10FD0, symBinAddr: 0x3F010, symSize: 0x14 }
  - { offset: 0x12F0C4, size: 0x8, addend: 0x0, symName: __ZN5ImGui13GetWindowSizeEv, symObjAddr: 0x10FD0, symBinAddr: 0x3F010, symSize: 0x14 }
  - { offset: 0x12F0CC, size: 0x8, addend: 0x0, symName: __ZN5ImGui13SetWindowSizeERK6ImVec2i, symObjAddr: 0x10FE4, symBinAddr: 0x3F024, symSize: 0x18 }
  - { offset: 0x12F107, size: 0x8, addend: 0x0, symName: __ZN5ImGui13GetWindowSizeEv, symObjAddr: 0x10FD0, symBinAddr: 0x3F010, symSize: 0x14 }
  - { offset: 0x12F12C, size: 0x8, addend: 0x0, symName: __ZN5ImGui13SetWindowSizeERK6ImVec2i, symObjAddr: 0x10FE4, symBinAddr: 0x3F024, symSize: 0x18 }
  - { offset: 0x12F134, size: 0x8, addend: 0x0, symName: __ZN5ImGui13SetWindowSizeEPKcRK6ImVec2i, symObjAddr: 0x10FFC, symBinAddr: 0x3F03C, symSize: 0x5C }
  - { offset: 0x12F175, size: 0x8, addend: 0x0, symName: __ZN5ImGui13SetWindowSizeEPKcRK6ImVec2i, symObjAddr: 0x10FFC, symBinAddr: 0x3F03C, symSize: 0x5C }
  - { offset: 0x12F17D, size: 0x8, addend: 0x0, symName: __ZN5ImGui20SetWindowHitTestHoleEP11ImGuiWindowRK6ImVec2S4_, symObjAddr: 0x11058, symBinAddr: 0x3F098, symSize: 0x38 }
  - { offset: 0x12F25A, size: 0x8, addend: 0x0, symName: __ZN5ImGui20SetWindowHitTestHoleEP11ImGuiWindowRK6ImVec2S4_, symObjAddr: 0x11058, symBinAddr: 0x3F098, symSize: 0x38 }
  - { offset: 0x12F262, size: 0x8, addend: 0x0, symName: __ZN5ImGui18SetWindowCollapsedEbi, symObjAddr: 0x11090, symBinAddr: 0x3F0D0, symSize: 0x30 }
  - { offset: 0x12F2BA, size: 0x8, addend: 0x0, symName: __ZN5ImGui20SetWindowHitTestHoleEP11ImGuiWindowRK6ImVec2S4_, symObjAddr: 0x11058, symBinAddr: 0x3F098, symSize: 0x38 }
  - { offset: 0x12F2E2, size: 0x8, addend: 0x0, symName: __ZN5ImGui20SetWindowHitTestHoleEP11ImGuiWindowRK6ImVec2S4_, symObjAddr: 0x11058, symBinAddr: 0x3F098, symSize: 0x38 }
  - { offset: 0x12F373, size: 0x8, addend: 0x0, symName: __ZN5ImGui18SetWindowCollapsedEbi, symObjAddr: 0x11090, symBinAddr: 0x3F0D0, symSize: 0x30 }
  - { offset: 0x12F37B, size: 0x8, addend: 0x0, symName: __ZN5ImGui17IsWindowCollapsedEv, symObjAddr: 0x110C0, symBinAddr: 0x3F100, symSize: 0x14 }
  - { offset: 0x12F3EA, size: 0x8, addend: 0x0, symName: __ZN5ImGui17IsWindowCollapsedEv, symObjAddr: 0x110C0, symBinAddr: 0x3F100, symSize: 0x14 }
  - { offset: 0x12F3F2, size: 0x8, addend: 0x0, symName: __ZN5ImGui17IsWindowAppearingEv, symObjAddr: 0x110D4, symBinAddr: 0x3F114, symSize: 0x14 }
  - { offset: 0x12F42D, size: 0x8, addend: 0x0, symName: __ZN5ImGui17IsWindowCollapsedEv, symObjAddr: 0x110C0, symBinAddr: 0x3F100, symSize: 0x14 }
  - { offset: 0x12F451, size: 0x8, addend: 0x0, symName: __ZN5ImGui17IsWindowAppearingEv, symObjAddr: 0x110D4, symBinAddr: 0x3F114, symSize: 0x14 }
  - { offset: 0x12F459, size: 0x8, addend: 0x0, symName: __ZN5ImGui18SetWindowCollapsedEPKcbi, symObjAddr: 0x110E8, symBinAddr: 0x3F128, symSize: 0x68 }
  - { offset: 0x12F494, size: 0x8, addend: 0x0, symName: __ZN5ImGui17IsWindowAppearingEv, symObjAddr: 0x110D4, symBinAddr: 0x3F114, symSize: 0x14 }
  - { offset: 0x12F4B9, size: 0x8, addend: 0x0, symName: __ZN5ImGui18SetWindowCollapsedEPKcbi, symObjAddr: 0x110E8, symBinAddr: 0x3F128, symSize: 0x68 }
  - { offset: 0x12F4C1, size: 0x8, addend: 0x0, symName: __ZN5ImGui14SetWindowFocusEv, symObjAddr: 0x11150, symBinAddr: 0x3F190, symSize: 0x10 }
  - { offset: 0x12F5CE, size: 0x8, addend: 0x0, symName: __ZN5ImGui14SetWindowFocusEv, symObjAddr: 0x11150, symBinAddr: 0x3F190, symSize: 0x10 }
  - { offset: 0x12F5D6, size: 0x8, addend: 0x0, symName: __ZN5ImGui14SetWindowFocusEPKc, symObjAddr: 0x11160, symBinAddr: 0x3F1A0, symSize: 0x40 }
  - { offset: 0x12F5EE, size: 0x8, addend: 0x0, symName: __ZN5ImGui14SetWindowFocusEPKc, symObjAddr: 0x11160, symBinAddr: 0x3F1A0, symSize: 0x40 }
  - { offset: 0x12F5F6, size: 0x8, addend: 0x0, symName: __ZN5ImGui16SetNextWindowPosERK6ImVec2iS2_, symObjAddr: 0x111A0, symBinAddr: 0x3F1E0, symSize: 0x34 }
  - { offset: 0x12F6B3, size: 0x8, addend: 0x0, symName: __ZN5ImGui16SetNextWindowPosERK6ImVec2iS2_, symObjAddr: 0x111A0, symBinAddr: 0x3F1E0, symSize: 0x34 }
  - { offset: 0x12F6BB, size: 0x8, addend: 0x0, symName: __ZN5ImGui28SetNextWindowSizeConstraintsERK6ImVec2S2_PFvP21ImGuiSizeCallbackDataEPv, symObjAddr: 0x111D4, symBinAddr: 0x3F214, symSize: 0x34 }
  - { offset: 0x12F6FE, size: 0x8, addend: 0x0, symName: __ZN5ImGui28SetNextWindowSizeConstraintsERK6ImVec2S2_PFvP21ImGuiSizeCallbackDataEPv, symObjAddr: 0x111D4, symBinAddr: 0x3F214, symSize: 0x34 }
  - { offset: 0x12F706, size: 0x8, addend: 0x0, symName: __ZN5ImGui24SetNextWindowContentSizeERK6ImVec2, symObjAddr: 0x11208, symBinAddr: 0x3F248, symSize: 0x28 }
  - { offset: 0x12F7BC, size: 0x8, addend: 0x0, symName: __ZN5ImGui24SetNextWindowContentSizeERK6ImVec2, symObjAddr: 0x11208, symBinAddr: 0x3F248, symSize: 0x28 }
  - { offset: 0x12F7C4, size: 0x8, addend: 0x0, symName: __ZN5ImGui19SetNextWindowScrollERK6ImVec2, symObjAddr: 0x11230, symBinAddr: 0x3F270, symSize: 0x20 }
  - { offset: 0x12F82D, size: 0x8, addend: 0x0, symName: __ZN5ImGui19SetNextWindowScrollERK6ImVec2, symObjAddr: 0x11230, symBinAddr: 0x3F270, symSize: 0x20 }
  - { offset: 0x12F835, size: 0x8, addend: 0x0, symName: __ZN5ImGui22SetNextWindowCollapsedEbi, symObjAddr: 0x11250, symBinAddr: 0x3F290, symSize: 0x30 }
  - { offset: 0x12F875, size: 0x8, addend: 0x0, symName: __ZN5ImGui22SetNextWindowCollapsedEbi, symObjAddr: 0x11250, symBinAddr: 0x3F290, symSize: 0x30 }
  - { offset: 0x12F87D, size: 0x8, addend: 0x0, symName: __ZN5ImGui18SetNextWindowFocusEv, symObjAddr: 0x11280, symBinAddr: 0x3F2C0, symSize: 0x18 }
  - { offset: 0x12F8CD, size: 0x8, addend: 0x0, symName: __ZN5ImGui18SetNextWindowFocusEv, symObjAddr: 0x11280, symBinAddr: 0x3F2C0, symSize: 0x18 }
  - { offset: 0x12F8D5, size: 0x8, addend: 0x0, symName: __ZN5ImGui20SetNextWindowBgAlphaEf, symObjAddr: 0x11298, symBinAddr: 0x3F2D8, symSize: 0x1C }
  - { offset: 0x12F902, size: 0x8, addend: 0x0, symName: __ZN5ImGui20SetNextWindowBgAlphaEf, symObjAddr: 0x11298, symBinAddr: 0x3F2D8, symSize: 0x1C }
  - { offset: 0x12F90A, size: 0x8, addend: 0x0, symName: __ZN5ImGui17GetWindowDrawListEv, symObjAddr: 0x112B4, symBinAddr: 0x3F2F4, symSize: 0x1C }
  - { offset: 0x12F938, size: 0x8, addend: 0x0, symName: __ZN5ImGui17GetWindowDrawListEv, symObjAddr: 0x112B4, symBinAddr: 0x3F2F4, symSize: 0x1C }
  - { offset: 0x12F940, size: 0x8, addend: 0x0, symName: __ZN5ImGui7GetFontEv, symObjAddr: 0x112D0, symBinAddr: 0x3F310, symSize: 0x10 }
  - { offset: 0x12F968, size: 0x8, addend: 0x0, symName: __ZN5ImGui17GetWindowDrawListEv, symObjAddr: 0x112B4, symBinAddr: 0x3F2F4, symSize: 0x1C }
  - { offset: 0x12F98D, size: 0x8, addend: 0x0, symName: __ZN5ImGui7GetFontEv, symObjAddr: 0x112D0, symBinAddr: 0x3F310, symSize: 0x10 }
  - { offset: 0x12F995, size: 0x8, addend: 0x0, symName: __ZN5ImGui11GetFontSizeEv, symObjAddr: 0x112E0, symBinAddr: 0x3F320, symSize: 0x10 }
  - { offset: 0x12F9B4, size: 0x8, addend: 0x0, symName: __ZN5ImGui11GetFontSizeEv, symObjAddr: 0x112E0, symBinAddr: 0x3F320, symSize: 0x10 }
  - { offset: 0x12F9BC, size: 0x8, addend: 0x0, symName: __ZN5ImGui22GetFontTexUvWhitePixelEv, symObjAddr: 0x112F0, symBinAddr: 0x3F330, symSize: 0x14 }
  - { offset: 0x12F9D0, size: 0x8, addend: 0x0, symName: __ZN5ImGui22GetFontTexUvWhitePixelEv, symObjAddr: 0x112F0, symBinAddr: 0x3F330, symSize: 0x14 }
  - { offset: 0x12F9D8, size: 0x8, addend: 0x0, symName: __ZN5ImGui18SetWindowFontScaleEf, symObjAddr: 0x11304, symBinAddr: 0x3F344, symSize: 0x3C }
  - { offset: 0x12F9F8, size: 0x8, addend: 0x0, symName: __ZN5ImGui18SetWindowFontScaleEf, symObjAddr: 0x11304, symBinAddr: 0x3F344, symSize: 0x3C }
  - { offset: 0x12FA00, size: 0x8, addend: 0x0, symName: __ZN5ImGui12ActivateItemEj, symObjAddr: 0x11340, symBinAddr: 0x3F380, symSize: 0x10 }
  - { offset: 0x12FABD, size: 0x8, addend: 0x0, symName: __ZN5ImGui12ActivateItemEj, symObjAddr: 0x11340, symBinAddr: 0x3F380, symSize: 0x10 }
  - { offset: 0x12FAC5, size: 0x8, addend: 0x0, symName: __ZN5ImGui14PushFocusScopeEj, symObjAddr: 0x11350, symBinAddr: 0x3F390, symSize: 0x10C }
  - { offset: 0x12FB05, size: 0x8, addend: 0x0, symName: __ZN5ImGui14PushFocusScopeEj, symObjAddr: 0x11350, symBinAddr: 0x3F390, symSize: 0x10C }
  - { offset: 0x12FB0D, size: 0x8, addend: 0x0, symName: __ZN5ImGui13PopFocusScopeEv, symObjAddr: 0x1145C, symBinAddr: 0x3F49C, symSize: 0x28 }
  - { offset: 0x12FC94, size: 0x8, addend: 0x0, symName: __ZN5ImGui13PopFocusScopeEv, symObjAddr: 0x1145C, symBinAddr: 0x3F49C, symSize: 0x28 }
  - { offset: 0x12FC9C, size: 0x8, addend: 0x0, symName: __ZN5ImGui20SetKeyboardFocusHereEi, symObjAddr: 0x11484, symBinAddr: 0x3F4C4, symSize: 0x2C }
  - { offset: 0x12FD19, size: 0x8, addend: 0x0, symName: __ZN5ImGui20SetKeyboardFocusHereEi, symObjAddr: 0x11484, symBinAddr: 0x3F4C4, symSize: 0x2C }
  - { offset: 0x12FD21, size: 0x8, addend: 0x0, symName: __ZN5ImGui19SetItemDefaultFocusEv, symObjAddr: 0x114B0, symBinAddr: 0x3F4F0, symSize: 0x9C }
  - { offset: 0x12FD75, size: 0x8, addend: 0x0, symName: __ZN5ImGui19SetItemDefaultFocusEv, symObjAddr: 0x114B0, symBinAddr: 0x3F4F0, symSize: 0x9C }
  - { offset: 0x12FD7D, size: 0x8, addend: 0x0, symName: __ZN5ImGui14SetScrollHereYEf, symObjAddr: 0x1154C, symBinAddr: 0x3F58C, symSize: 0x84 }
  - { offset: 0x12FDFA, size: 0x8, addend: 0x0, symName: __ZN5ImGui14SetScrollHereYEf, symObjAddr: 0x1154C, symBinAddr: 0x3F58C, symSize: 0x84 }
  - { offset: 0x12FE02, size: 0x8, addend: 0x0, symName: __ZN5ImGui15SetStateStorageEP12ImGuiStorage, symObjAddr: 0x115D0, symBinAddr: 0x3F610, symSize: 0x20 }
  - { offset: 0x12FF2C, size: 0x8, addend: 0x0, symName: __ZN5ImGui15SetStateStorageEP12ImGuiStorage, symObjAddr: 0x115D0, symBinAddr: 0x3F610, symSize: 0x20 }
  - { offset: 0x12FF34, size: 0x8, addend: 0x0, symName: __ZN5ImGui15GetStateStorageEv, symObjAddr: 0x115F0, symBinAddr: 0x3F630, symSize: 0x14 }
  - { offset: 0x12FF73, size: 0x8, addend: 0x0, symName: __ZN5ImGui15GetStateStorageEv, symObjAddr: 0x115F0, symBinAddr: 0x3F630, symSize: 0x14 }
  - { offset: 0x12FF7B, size: 0x8, addend: 0x0, symName: __ZN5ImGui6PushIDEPKc, symObjAddr: 0x11604, symBinAddr: 0x3F644, symSize: 0x108 }
  - { offset: 0x12FFB0, size: 0x8, addend: 0x0, symName: __ZN5ImGui6PushIDEPKc, symObjAddr: 0x11604, symBinAddr: 0x3F644, symSize: 0x108 }
  - { offset: 0x12FFB8, size: 0x8, addend: 0x0, symName: __ZN5ImGui6PushIDEPKcS1_, symObjAddr: 0x1170C, symBinAddr: 0x3F74C, symSize: 0x110 }
  - { offset: 0x1301BE, size: 0x8, addend: 0x0, symName: __ZN5ImGui6PushIDEPKcS1_, symObjAddr: 0x1170C, symBinAddr: 0x3F74C, symSize: 0x110 }
  - { offset: 0x1301C6, size: 0x8, addend: 0x0, symName: __ZN5ImGui6PushIDEPKv, symObjAddr: 0x1181C, symBinAddr: 0x3F85C, symSize: 0x104 }
  - { offset: 0x1303E3, size: 0x8, addend: 0x0, symName: __ZN5ImGui6PushIDEPKv, symObjAddr: 0x1181C, symBinAddr: 0x3F85C, symSize: 0x104 }
  - { offset: 0x1303EB, size: 0x8, addend: 0x0, symName: __ZN5ImGui6PushIDEi, symObjAddr: 0x11920, symBinAddr: 0x3F960, symSize: 0x104 }
  - { offset: 0x13057D, size: 0x8, addend: 0x0, symName: __ZN5ImGui6PushIDEi, symObjAddr: 0x11920, symBinAddr: 0x3F960, symSize: 0x104 }
  - { offset: 0x130585, size: 0x8, addend: 0x0, symName: __ZN5ImGui14PushOverrideIDEj, symObjAddr: 0x11A24, symBinAddr: 0x3FA64, symSize: 0xF8 }
  - { offset: 0x130717, size: 0x8, addend: 0x0, symName: __ZN5ImGui14PushOverrideIDEj, symObjAddr: 0x11A24, symBinAddr: 0x3FA64, symSize: 0xF8 }
  - { offset: 0x13071F, size: 0x8, addend: 0x0, symName: __ZN5ImGui13GetIDWithSeedEPKcS1_j, symObjAddr: 0x11B1C, symBinAddr: 0x3FB5C, symSize: 0x50 }
  - { offset: 0x13089C, size: 0x8, addend: 0x0, symName: __ZN5ImGui13GetIDWithSeedEPKcS1_j, symObjAddr: 0x11B1C, symBinAddr: 0x3FB5C, symSize: 0x50 }
  - { offset: 0x1308A4, size: 0x8, addend: 0x0, symName: __ZN5ImGui5PopIDEv, symObjAddr: 0x11B6C, symBinAddr: 0x3FBAC, symSize: 0x1C }
  - { offset: 0x13094B, size: 0x8, addend: 0x0, symName: __ZN5ImGui5PopIDEv, symObjAddr: 0x11B6C, symBinAddr: 0x3FBAC, symSize: 0x1C }
  - { offset: 0x130953, size: 0x8, addend: 0x0, symName: __ZN5ImGui5GetIDEPKc, symObjAddr: 0x11B88, symBinAddr: 0x3FBC8, symSize: 0x18 }
  - { offset: 0x13099B, size: 0x8, addend: 0x0, symName: __ZN5ImGui5GetIDEPKc, symObjAddr: 0x11B88, symBinAddr: 0x3FBC8, symSize: 0x18 }
  - { offset: 0x1309A3, size: 0x8, addend: 0x0, symName: __ZN5ImGui5GetIDEPKcS1_, symObjAddr: 0x11BA0, symBinAddr: 0x3FBE0, symSize: 0x18 }
  - { offset: 0x1309EB, size: 0x8, addend: 0x0, symName: __ZN5ImGui5GetIDEPKcS1_, symObjAddr: 0x11BA0, symBinAddr: 0x3FBE0, symSize: 0x18 }
  - { offset: 0x1309F3, size: 0x8, addend: 0x0, symName: __ZN5ImGui5GetIDEPKv, symObjAddr: 0x11BB8, symBinAddr: 0x3FBF8, symSize: 0x14 }
  - { offset: 0x130A4F, size: 0x8, addend: 0x0, symName: __ZN5ImGui5GetIDEPKv, symObjAddr: 0x11BB8, symBinAddr: 0x3FBF8, symSize: 0x14 }
  - { offset: 0x130A57, size: 0x8, addend: 0x0, symName: __ZN5ImGui13IsRectVisibleERK6ImVec2, symObjAddr: 0x11BCC, symBinAddr: 0x3FC0C, symSize: 0x60 }
  - { offset: 0x130A9F, size: 0x8, addend: 0x0, symName: __ZN5ImGui13IsRectVisibleERK6ImVec2, symObjAddr: 0x11BCC, symBinAddr: 0x3FC0C, symSize: 0x60 }
  - { offset: 0x130AA7, size: 0x8, addend: 0x0, symName: __ZN5ImGui13IsRectVisibleERK6ImVec2S2_, symObjAddr: 0x11C2C, symBinAddr: 0x3FC6C, symSize: 0x58 }
  - { offset: 0x130B8A, size: 0x8, addend: 0x0, symName: __ZN5ImGui13IsRectVisibleERK6ImVec2S2_, symObjAddr: 0x11C2C, symBinAddr: 0x3FC6C, symSize: 0x58 }
  - { offset: 0x130B92, size: 0x8, addend: 0x0, symName: __ZN5ImGui30DebugCheckVersionAndDataLayoutEPKcmmmmmm, symObjAddr: 0x11C84, symBinAddr: 0x3FCC4, symSize: 0x74 }
  - { offset: 0x130C58, size: 0x8, addend: 0x0, symName: __ZN5ImGui30DebugCheckVersionAndDataLayoutEPKcmmmmmm, symObjAddr: 0x11C84, symBinAddr: 0x3FCC4, symSize: 0x74 }
  - { offset: 0x130C60, size: 0x8, addend: 0x0, symName: __ZN5ImGui25ErrorCheckEndFrameRecoverEPFvPvPKczES0_, symObjAddr: 0x11CF8, symBinAddr: 0x3FD38, symSize: 0x30C }
  - { offset: 0x130D50, size: 0x8, addend: 0x0, symName: __ZN5ImGui25ErrorCheckEndFrameRecoverEPFvPvPKczES0_, symObjAddr: 0x11CF8, symBinAddr: 0x3FD38, symSize: 0x30C }
  - { offset: 0x130D58, size: 0x8, addend: 0x0, symName: __ZN5ImGui8EndGroupEv, symObjAddr: 0x12004, symBinAddr: 0x40044, symSize: 0x240 }
  - { offset: 0x130F71, size: 0x8, addend: 0x0, symName: __ZN5ImGui8EndGroupEv, symObjAddr: 0x12004, symBinAddr: 0x40044, symSize: 0x240 }
  - { offset: 0x130F79, size: 0x8, addend: 0x0, symName: __ZN5ImGui8SameLineEff, symObjAddr: 0x12244, symBinAddr: 0x40284, symSize: 0x88 }
  - { offset: 0x131151, size: 0x8, addend: 0x0, symName: __ZN5ImGui8SameLineEff, symObjAddr: 0x12244, symBinAddr: 0x40284, symSize: 0x88 }
  - { offset: 0x131159, size: 0x8, addend: 0x0, symName: __ZN5ImGui8ItemSizeERK6ImRectf, symObjAddr: 0x122CC, symBinAddr: 0x4030C, symSize: 0x2C }
  - { offset: 0x1311A8, size: 0x8, addend: 0x0, symName: __ZN5ImGui8SameLineEff, symObjAddr: 0x12244, symBinAddr: 0x40284, symSize: 0x88 }
  - { offset: 0x1311CD, size: 0x8, addend: 0x0, symName: __ZN5ImGui8ItemSizeERK6ImRectf, symObjAddr: 0x122CC, symBinAddr: 0x4030C, symSize: 0x2C }
  - { offset: 0x1311D5, size: 0x8, addend: 0x0, symName: __ZN5ImGui18GetCursorScreenPosEv, symObjAddr: 0x122F8, symBinAddr: 0x40338, symSize: 0x14 }
  - { offset: 0x13123E, size: 0x8, addend: 0x0, symName: __ZN5ImGui18GetCursorScreenPosEv, symObjAddr: 0x122F8, symBinAddr: 0x40338, symSize: 0x14 }
  - { offset: 0x131246, size: 0x8, addend: 0x0, symName: __ZN5ImGui18SetCursorScreenPosERK6ImVec2, symObjAddr: 0x1230C, symBinAddr: 0x4034C, symSize: 0x34 }
  - { offset: 0x131281, size: 0x8, addend: 0x0, symName: __ZN5ImGui18GetCursorScreenPosEv, symObjAddr: 0x122F8, symBinAddr: 0x40338, symSize: 0x14 }
  - { offset: 0x1312A6, size: 0x8, addend: 0x0, symName: __ZN5ImGui18SetCursorScreenPosERK6ImVec2, symObjAddr: 0x1230C, symBinAddr: 0x4034C, symSize: 0x34 }
  - { offset: 0x1312AE, size: 0x8, addend: 0x0, symName: __ZN5ImGui12GetCursorPosEv, symObjAddr: 0x12340, symBinAddr: 0x40380, symSize: 0x28 }
  - { offset: 0x1312F4, size: 0x8, addend: 0x0, symName: __ZN5ImGui18SetCursorScreenPosERK6ImVec2, symObjAddr: 0x1230C, symBinAddr: 0x4034C, symSize: 0x34 }
  - { offset: 0x131348, size: 0x8, addend: 0x0, symName: __ZN5ImGui12GetCursorPosEv, symObjAddr: 0x12340, symBinAddr: 0x40380, symSize: 0x28 }
  - { offset: 0x131350, size: 0x8, addend: 0x0, symName: __ZN5ImGui13GetCursorPosXEv, symObjAddr: 0x12368, symBinAddr: 0x403A8, symSize: 0x24 }
  - { offset: 0x13138B, size: 0x8, addend: 0x0, symName: __ZN5ImGui12GetCursorPosEv, symObjAddr: 0x12340, symBinAddr: 0x40380, symSize: 0x28 }
  - { offset: 0x131406, size: 0x8, addend: 0x0, symName: __ZN5ImGui13GetCursorPosXEv, symObjAddr: 0x12368, symBinAddr: 0x403A8, symSize: 0x24 }
  - { offset: 0x13140E, size: 0x8, addend: 0x0, symName: __ZN5ImGui13GetCursorPosYEv, symObjAddr: 0x1238C, symBinAddr: 0x403CC, symSize: 0x24 }
  - { offset: 0x131449, size: 0x8, addend: 0x0, symName: __ZN5ImGui13GetCursorPosXEv, symObjAddr: 0x12368, symBinAddr: 0x403A8, symSize: 0x24 }
  - { offset: 0x13146D, size: 0x8, addend: 0x0, symName: __ZN5ImGui13GetCursorPosYEv, symObjAddr: 0x1238C, symBinAddr: 0x403CC, symSize: 0x24 }
  - { offset: 0x131475, size: 0x8, addend: 0x0, symName: __ZN5ImGui12SetCursorPosERK6ImVec2, symObjAddr: 0x123B0, symBinAddr: 0x403F0, symSize: 0x40 }
  - { offset: 0x1314B0, size: 0x8, addend: 0x0, symName: __ZN5ImGui13GetCursorPosYEv, symObjAddr: 0x1238C, symBinAddr: 0x403CC, symSize: 0x24 }
  - { offset: 0x1314D5, size: 0x8, addend: 0x0, symName: __ZN5ImGui12SetCursorPosERK6ImVec2, symObjAddr: 0x123B0, symBinAddr: 0x403F0, symSize: 0x40 }
  - { offset: 0x1314DD, size: 0x8, addend: 0x0, symName: __ZN5ImGui13SetCursorPosXEf, symObjAddr: 0x123F0, symBinAddr: 0x40430, symSize: 0x3C }
  - { offset: 0x131523, size: 0x8, addend: 0x0, symName: __ZN5ImGui12SetCursorPosERK6ImVec2, symObjAddr: 0x123B0, symBinAddr: 0x403F0, symSize: 0x40 }
  - { offset: 0x1315D1, size: 0x8, addend: 0x0, symName: __ZN5ImGui13SetCursorPosXEf, symObjAddr: 0x123F0, symBinAddr: 0x40430, symSize: 0x3C }
  - { offset: 0x1315D9, size: 0x8, addend: 0x0, symName: __ZN5ImGui13SetCursorPosYEf, symObjAddr: 0x1242C, symBinAddr: 0x4046C, symSize: 0x3C }
  - { offset: 0x131620, size: 0x8, addend: 0x0, symName: __ZN5ImGui13SetCursorPosXEf, symObjAddr: 0x123F0, symBinAddr: 0x40430, symSize: 0x3C }
  - { offset: 0x13167B, size: 0x8, addend: 0x0, symName: __ZN5ImGui13SetCursorPosYEf, symObjAddr: 0x1242C, symBinAddr: 0x4046C, symSize: 0x3C }
  - { offset: 0x131683, size: 0x8, addend: 0x0, symName: __ZN5ImGui17GetCursorStartPosEv, symObjAddr: 0x12468, symBinAddr: 0x404A8, symSize: 0x20 }
  - { offset: 0x1316CA, size: 0x8, addend: 0x0, symName: __ZN5ImGui13SetCursorPosYEf, symObjAddr: 0x1242C, symBinAddr: 0x4046C, symSize: 0x3C }
  - { offset: 0x131724, size: 0x8, addend: 0x0, symName: __ZN5ImGui17GetCursorStartPosEv, symObjAddr: 0x12468, symBinAddr: 0x404A8, symSize: 0x20 }
  - { offset: 0x13172C, size: 0x8, addend: 0x0, symName: __ZN5ImGui6IndentEf, symObjAddr: 0x12488, symBinAddr: 0x404C8, symSize: 0x44 }
  - { offset: 0x131767, size: 0x8, addend: 0x0, symName: __ZN5ImGui17GetCursorStartPosEv, symObjAddr: 0x12468, symBinAddr: 0x404A8, symSize: 0x20 }
  - { offset: 0x1317BC, size: 0x8, addend: 0x0, symName: __ZN5ImGui6IndentEf, symObjAddr: 0x12488, symBinAddr: 0x404C8, symSize: 0x44 }
  - { offset: 0x1317C4, size: 0x8, addend: 0x0, symName: __ZN5ImGui8UnindentEf, symObjAddr: 0x124CC, symBinAddr: 0x4050C, symSize: 0x44 }
  - { offset: 0x131825, size: 0x8, addend: 0x0, symName: __ZN5ImGui8UnindentEf, symObjAddr: 0x124CC, symBinAddr: 0x4050C, symSize: 0x44 }
  - { offset: 0x13182D, size: 0x8, addend: 0x0, symName: __ZN5ImGui13PushItemWidthEf, symObjAddr: 0x12510, symBinAddr: 0x40550, symSize: 0x124 }
  - { offset: 0x13188E, size: 0x8, addend: 0x0, symName: __ZN5ImGui13PushItemWidthEf, symObjAddr: 0x12510, symBinAddr: 0x40550, symSize: 0x124 }
  - { offset: 0x131896, size: 0x8, addend: 0x0, symName: __ZN5ImGui20PushMultiItemsWidthsEif, symObjAddr: 0x12634, symBinAddr: 0x40674, symSize: 0x32C }
  - { offset: 0x131A1D, size: 0x8, addend: 0x0, symName: __ZN5ImGui20PushMultiItemsWidthsEif, symObjAddr: 0x12634, symBinAddr: 0x40674, symSize: 0x32C }
  - { offset: 0x131A25, size: 0x8, addend: 0x0, symName: __ZN5ImGui12PopItemWidthEv, symObjAddr: 0x12960, symBinAddr: 0x409A0, symSize: 0x30 }
  - { offset: 0x131EC2, size: 0x8, addend: 0x0, symName: __ZN5ImGui12PopItemWidthEv, symObjAddr: 0x12960, symBinAddr: 0x409A0, symSize: 0x30 }
  - { offset: 0x131ECA, size: 0x8, addend: 0x0, symName: __ZN5ImGui13CalcItemWidthEv, symObjAddr: 0x12990, symBinAddr: 0x409D0, symSize: 0x78 }
  - { offset: 0x131EFD, size: 0x8, addend: 0x0, symName: __ZN5ImGui12PopItemWidthEv, symObjAddr: 0x12960, symBinAddr: 0x409A0, symSize: 0x30 }
  - { offset: 0x131F6F, size: 0x8, addend: 0x0, symName: __ZN5ImGui13CalcItemWidthEv, symObjAddr: 0x12990, symBinAddr: 0x409D0, symSize: 0x78 }
  - { offset: 0x131F77, size: 0x8, addend: 0x0, symName: __ZN5ImGui22GetContentRegionMaxAbsEv, symObjAddr: 0x12A08, symBinAddr: 0x40A48, symSize: 0x34 }
  - { offset: 0x132068, size: 0x8, addend: 0x0, symName: __ZN5ImGui22GetContentRegionMaxAbsEv, symObjAddr: 0x12A08, symBinAddr: 0x40A48, symSize: 0x34 }
  - { offset: 0x132070, size: 0x8, addend: 0x0, symName: __ZN5ImGui12CalcItemSizeE6ImVec2ff, symObjAddr: 0x12A3C, symBinAddr: 0x40A7C, symSize: 0x9C }
  - { offset: 0x1320AB, size: 0x8, addend: 0x0, symName: __ZN5ImGui12CalcItemSizeE6ImVec2ff, symObjAddr: 0x12A3C, symBinAddr: 0x40A7C, symSize: 0x9C }
  - { offset: 0x1320B3, size: 0x8, addend: 0x0, symName: __ZN5ImGui17GetTextLineHeightEv, symObjAddr: 0x12AD8, symBinAddr: 0x40B18, symSize: 0x10 }
  - { offset: 0x1321EB, size: 0x8, addend: 0x0, symName: __ZN5ImGui17GetTextLineHeightEv, symObjAddr: 0x12AD8, symBinAddr: 0x40B18, symSize: 0x10 }
  - { offset: 0x1321F3, size: 0x8, addend: 0x0, symName: __ZN5ImGui28GetTextLineHeightWithSpacingEv, symObjAddr: 0x12AE8, symBinAddr: 0x40B28, symSize: 0x18 }
  - { offset: 0x132214, size: 0x8, addend: 0x0, symName: __ZN5ImGui28GetTextLineHeightWithSpacingEv, symObjAddr: 0x12AE8, symBinAddr: 0x40B28, symSize: 0x18 }
  - { offset: 0x13221C, size: 0x8, addend: 0x0, symName: __ZN5ImGui14GetFrameHeightEv, symObjAddr: 0x12B00, symBinAddr: 0x40B40, symSize: 0x1C }
  - { offset: 0x132250, size: 0x8, addend: 0x0, symName: __ZN5ImGui14GetFrameHeightEv, symObjAddr: 0x12B00, symBinAddr: 0x40B40, symSize: 0x1C }
  - { offset: 0x132258, size: 0x8, addend: 0x0, symName: __ZN5ImGui25GetFrameHeightWithSpacingEv, symObjAddr: 0x12B1C, symBinAddr: 0x40B5C, symSize: 0x24 }
  - { offset: 0x13228C, size: 0x8, addend: 0x0, symName: __ZN5ImGui25GetFrameHeightWithSpacingEv, symObjAddr: 0x12B1C, symBinAddr: 0x40B5C, symSize: 0x24 }
  - { offset: 0x132294, size: 0x8, addend: 0x0, symName: __ZN5ImGui19GetContentRegionMaxEv, symObjAddr: 0x12B40, symBinAddr: 0x40B80, symSize: 0x40 }
  - { offset: 0x1322C8, size: 0x8, addend: 0x0, symName: __ZN5ImGui19GetContentRegionMaxEv, symObjAddr: 0x12B40, symBinAddr: 0x40B80, symSize: 0x40 }
  - { offset: 0x1322D0, size: 0x8, addend: 0x0, symName: __ZN5ImGui25GetWindowContentRegionMinEv, symObjAddr: 0x12B80, symBinAddr: 0x40BC0, symSize: 0x24 }
  - { offset: 0x132350, size: 0x8, addend: 0x0, symName: __ZN5ImGui25GetWindowContentRegionMinEv, symObjAddr: 0x12B80, symBinAddr: 0x40BC0, symSize: 0x24 }
  - { offset: 0x132358, size: 0x8, addend: 0x0, symName: __ZN5ImGui25GetWindowContentRegionMaxEv, symObjAddr: 0x12BA4, symBinAddr: 0x40BE4, symSize: 0x24 }
  - { offset: 0x1323BC, size: 0x8, addend: 0x0, symName: __ZN5ImGui25GetWindowContentRegionMaxEv, symObjAddr: 0x12BA4, symBinAddr: 0x40BE4, symSize: 0x24 }
  - { offset: 0x1323C4, size: 0x8, addend: 0x0, symName: __ZN5ImGui27GetWindowContentRegionWidthEv, symObjAddr: 0x12BC8, symBinAddr: 0x40C08, symSize: 0x1C }
  - { offset: 0x132428, size: 0x8, addend: 0x0, symName: __ZN5ImGui27GetWindowContentRegionWidthEv, symObjAddr: 0x12BC8, symBinAddr: 0x40C08, symSize: 0x1C }
  - { offset: 0x132430, size: 0x8, addend: 0x0, symName: __ZN5ImGui10BeginGroupEv, symObjAddr: 0x12BE4, symBinAddr: 0x40C24, symSize: 0x1B0 }
  - { offset: 0x13248C, size: 0x8, addend: 0x0, symName: __ZN5ImGui10BeginGroupEv, symObjAddr: 0x12BE4, symBinAddr: 0x40C24, symSize: 0x1B0 }
  - { offset: 0x132494, size: 0x8, addend: 0x0, symName: __ZN5ImGui25ScrollToBringRectIntoViewEP11ImGuiWindowRK6ImRect, symObjAddr: 0x12D94, symBinAddr: 0x40DD4, symSize: 0x178 }
  - { offset: 0x13266C, size: 0x8, addend: 0x0, symName: __ZN5ImGui25ScrollToBringRectIntoViewEP11ImGuiWindowRK6ImRect, symObjAddr: 0x12D94, symBinAddr: 0x40DD4, symSize: 0x178 }
  - { offset: 0x132674, size: 0x8, addend: 0x0, symName: __ZN5ImGui17SetScrollFromPosXEP11ImGuiWindowff, symObjAddr: 0x12F0C, symBinAddr: 0x40F4C, symSize: 0x20 }
  - { offset: 0x13286D, size: 0x8, addend: 0x0, symName: __ZN5ImGui17SetScrollFromPosXEP11ImGuiWindowff, symObjAddr: 0x12F0C, symBinAddr: 0x40F4C, symSize: 0x20 }
  - { offset: 0x132875, size: 0x8, addend: 0x0, symName: __ZN5ImGui17SetScrollFromPosYEP11ImGuiWindowff, symObjAddr: 0x12F2C, symBinAddr: 0x40F6C, symSize: 0x9C }
  - { offset: 0x1328AE, size: 0x8, addend: 0x0, symName: __ZN5ImGui17SetScrollFromPosYEP11ImGuiWindowff, symObjAddr: 0x12F2C, symBinAddr: 0x40F6C, symSize: 0x9C }
  - { offset: 0x1328B6, size: 0x8, addend: 0x0, symName: __ZN5ImGui10GetScrollXEv, symObjAddr: 0x12FC8, symBinAddr: 0x41008, symSize: 0x14 }
  - { offset: 0x132995, size: 0x8, addend: 0x0, symName: __ZN5ImGui10GetScrollXEv, symObjAddr: 0x12FC8, symBinAddr: 0x41008, symSize: 0x14 }
  - { offset: 0x13299D, size: 0x8, addend: 0x0, symName: __ZN5ImGui10GetScrollYEv, symObjAddr: 0x12FDC, symBinAddr: 0x4101C, symSize: 0x14 }
  - { offset: 0x1329D1, size: 0x8, addend: 0x0, symName: __ZN5ImGui10GetScrollYEv, symObjAddr: 0x12FDC, symBinAddr: 0x4101C, symSize: 0x14 }
  - { offset: 0x1329D9, size: 0x8, addend: 0x0, symName: __ZN5ImGui13GetScrollMaxXEv, symObjAddr: 0x12FF0, symBinAddr: 0x41030, symSize: 0x14 }
  - { offset: 0x132A0D, size: 0x8, addend: 0x0, symName: __ZN5ImGui13GetScrollMaxXEv, symObjAddr: 0x12FF0, symBinAddr: 0x41030, symSize: 0x14 }
  - { offset: 0x132A15, size: 0x8, addend: 0x0, symName: __ZN5ImGui13GetScrollMaxYEv, symObjAddr: 0x13004, symBinAddr: 0x41044, symSize: 0x14 }
  - { offset: 0x132A49, size: 0x8, addend: 0x0, symName: __ZN5ImGui13GetScrollMaxYEv, symObjAddr: 0x13004, symBinAddr: 0x41044, symSize: 0x14 }
  - { offset: 0x132A51, size: 0x8, addend: 0x0, symName: __ZN5ImGui10SetScrollXEP11ImGuiWindowf, symObjAddr: 0x13018, symBinAddr: 0x41058, symSize: 0x10 }
  - { offset: 0x132A86, size: 0x8, addend: 0x0, symName: __ZN5ImGui10SetScrollXEP11ImGuiWindowf, symObjAddr: 0x13018, symBinAddr: 0x41058, symSize: 0x10 }
  - { offset: 0x132A8E, size: 0x8, addend: 0x0, symName: __ZN5ImGui10SetScrollYEP11ImGuiWindowf, symObjAddr: 0x13028, symBinAddr: 0x41068, symSize: 0x10 }
  - { offset: 0x132ABA, size: 0x8, addend: 0x0, symName: __ZN5ImGui10SetScrollYEP11ImGuiWindowf, symObjAddr: 0x13028, symBinAddr: 0x41068, symSize: 0x10 }
  - { offset: 0x132AC2, size: 0x8, addend: 0x0, symName: __ZN5ImGui10SetScrollXEf, symObjAddr: 0x13038, symBinAddr: 0x41078, symSize: 0x1C }
  - { offset: 0x132AEE, size: 0x8, addend: 0x0, symName: __ZN5ImGui10SetScrollXEf, symObjAddr: 0x13038, symBinAddr: 0x41078, symSize: 0x1C }
  - { offset: 0x132AF6, size: 0x8, addend: 0x0, symName: __ZN5ImGui10SetScrollYEf, symObjAddr: 0x13054, symBinAddr: 0x41094, symSize: 0x1C }
  - { offset: 0x132B6C, size: 0x8, addend: 0x0, symName: __ZN5ImGui10SetScrollYEf, symObjAddr: 0x13054, symBinAddr: 0x41094, symSize: 0x1C }
  - { offset: 0x132B74, size: 0x8, addend: 0x0, symName: __ZN5ImGui17SetScrollFromPosXEff, symObjAddr: 0x13070, symBinAddr: 0x410B0, symSize: 0x2C }
  - { offset: 0x132BEA, size: 0x8, addend: 0x0, symName: __ZN5ImGui17SetScrollFromPosXEff, symObjAddr: 0x13070, symBinAddr: 0x410B0, symSize: 0x2C }
  - { offset: 0x132BF2, size: 0x8, addend: 0x0, symName: __ZN5ImGui17SetScrollFromPosYEff, symObjAddr: 0x1309C, symBinAddr: 0x410DC, symSize: 0x10 }
  - { offset: 0x132C89, size: 0x8, addend: 0x0, symName: __ZN5ImGui17SetScrollFromPosYEff, symObjAddr: 0x1309C, symBinAddr: 0x410DC, symSize: 0x10 }
  - { offset: 0x132C91, size: 0x8, addend: 0x0, symName: __ZN5ImGui14SetScrollHereXEf, symObjAddr: 0x130AC, symBinAddr: 0x410EC, symSize: 0x6C }
  - { offset: 0x132CE6, size: 0x8, addend: 0x0, symName: __ZN5ImGui14SetScrollHereXEf, symObjAddr: 0x130AC, symBinAddr: 0x410EC, symSize: 0x6C }
  - { offset: 0x132CEE, size: 0x8, addend: 0x0, symName: __ZN5ImGui12BeginTooltipEv, symObjAddr: 0x13118, symBinAddr: 0x41158, symSize: 0xC }
  - { offset: 0x132E59, size: 0x8, addend: 0x0, symName: __ZN5ImGui12BeginTooltipEv, symObjAddr: 0x13118, symBinAddr: 0x41158, symSize: 0xC }
  - { offset: 0x132E61, size: 0x8, addend: 0x0, symName: __ZN5ImGui14BeginTooltipExEii, symObjAddr: 0x13124, symBinAddr: 0x41164, symSize: 0x160 }
  - { offset: 0x132E75, size: 0x8, addend: 0x0, symName: __ZN5ImGui14BeginTooltipExEii, symObjAddr: 0x13124, symBinAddr: 0x41164, symSize: 0x160 }
  - { offset: 0x132E7D, size: 0x8, addend: 0x0, symName: __ZN5ImGui10EndTooltipEv, symObjAddr: 0x13284, symBinAddr: 0x412C4, symSize: 0x4 }
  - { offset: 0x133022, size: 0x8, addend: 0x0, symName: __ZN5ImGui10EndTooltipEv, symObjAddr: 0x13284, symBinAddr: 0x412C4, symSize: 0x4 }
  - { offset: 0x13302A, size: 0x8, addend: 0x0, symName: __ZN5ImGui11SetTooltipVEPKcPc, symObjAddr: 0x13288, symBinAddr: 0x412C8, symSize: 0x38 }
  - { offset: 0x13303E, size: 0x8, addend: 0x0, symName: __ZN5ImGui11SetTooltipVEPKcPc, symObjAddr: 0x13288, symBinAddr: 0x412C8, symSize: 0x38 }
  - { offset: 0x133046, size: 0x8, addend: 0x0, symName: __ZN5ImGui11IsPopupOpenEPKci, symObjAddr: 0x132C0, symBinAddr: 0x41300, symSize: 0x44 }
  - { offset: 0x133083, size: 0x8, addend: 0x0, symName: __ZN5ImGui11IsPopupOpenEPKci, symObjAddr: 0x132C0, symBinAddr: 0x41300, symSize: 0x44 }
  - { offset: 0x133091, size: 0x8, addend: 0x0, symName: __ZN5ImGui11IsPopupOpenEPKci, symObjAddr: 0x132C0, symBinAddr: 0x41300, symSize: 0x44 }
  - { offset: 0x133099, size: 0x8, addend: 0x0, symName: __ZN5ImGui9OpenPopupEPKci, symObjAddr: 0x13304, symBinAddr: 0x41344, symSize: 0x38 }
  - { offset: 0x13310A, size: 0x8, addend: 0x0, symName: __ZN5ImGui9OpenPopupEPKci, symObjAddr: 0x13304, symBinAddr: 0x41344, symSize: 0x38 }
  - { offset: 0x133112, size: 0x8, addend: 0x0, symName: __ZN5ImGui11OpenPopupExEji, symObjAddr: 0x1333C, symBinAddr: 0x4137C, symSize: 0x2AC }
  - { offset: 0x133167, size: 0x8, addend: 0x0, symName: __ZN5ImGui11OpenPopupExEji, symObjAddr: 0x1333C, symBinAddr: 0x4137C, symSize: 0x2AC }
  - { offset: 0x13316F, size: 0x8, addend: 0x0, symName: __ZN5ImGui9OpenPopupEji, symObjAddr: 0x135E8, symBinAddr: 0x41628, symSize: 0x4 }
  - { offset: 0x1334D5, size: 0x8, addend: 0x0, symName: __ZN5ImGui9OpenPopupEji, symObjAddr: 0x135E8, symBinAddr: 0x41628, symSize: 0x4 }
  - { offset: 0x1334DD, size: 0x8, addend: 0x0, symName: __ZN5ImGuiL22NavCalcPreferredRefPosEv, symObjAddr: 0x135EC, symBinAddr: 0x4162C, symSize: 0xC8 }
  - { offset: 0x13351C, size: 0x8, addend: 0x0, symName: __ZN5ImGuiL22NavCalcPreferredRefPosEv, symObjAddr: 0x135EC, symBinAddr: 0x4162C, symSize: 0xC8 }
  - { offset: 0x133524, size: 0x8, addend: 0x0, symName: __ZN5ImGui17ClosePopupToLevelEib, symObjAddr: 0x136B4, symBinAddr: 0x416F4, symSize: 0x184 }
  - { offset: 0x133716, size: 0x8, addend: 0x0, symName: __ZN5ImGui17ClosePopupToLevelEib, symObjAddr: 0x136B4, symBinAddr: 0x416F4, symSize: 0x184 }
  - { offset: 0x13371E, size: 0x8, addend: 0x0, symName: __ZN5ImGui17CloseCurrentPopupEv, symObjAddr: 0x13838, symBinAddr: 0x41878, symSize: 0xCC }
  - { offset: 0x13390B, size: 0x8, addend: 0x0, symName: __ZN5ImGui17CloseCurrentPopupEv, symObjAddr: 0x13838, symBinAddr: 0x41878, symSize: 0xCC }
  - { offset: 0x133926, size: 0x8, addend: 0x0, symName: __ZN5ImGui17CloseCurrentPopupEv, symObjAddr: 0x13838, symBinAddr: 0x41878, symSize: 0xCC }
  - { offset: 0x13392E, size: 0x8, addend: 0x0, symName: __ZN5ImGui12BeginPopupExEji, symObjAddr: 0x13904, symBinAddr: 0x41944, symSize: 0xD8 }
  - { offset: 0x133A1C, size: 0x8, addend: 0x0, symName: __ZN5ImGui12BeginPopupExEji, symObjAddr: 0x13904, symBinAddr: 0x41944, symSize: 0xD8 }
  - { offset: 0x133A24, size: 0x8, addend: 0x0, symName: __ZN5ImGui8EndPopupEv, symObjAddr: 0x139DC, symBinAddr: 0x41A1C, symSize: 0x5C }
  - { offset: 0x133B5B, size: 0x8, addend: 0x0, symName: __ZN5ImGui8EndPopupEv, symObjAddr: 0x139DC, symBinAddr: 0x41A1C, symSize: 0x5C }
  - { offset: 0x133B63, size: 0x8, addend: 0x0, symName: __ZN5ImGui10BeginPopupEPKci, symObjAddr: 0x13A38, symBinAddr: 0x41A78, symSize: 0x64 }
  - { offset: 0x133BE2, size: 0x8, addend: 0x0, symName: __ZN5ImGui10BeginPopupEPKci, symObjAddr: 0x13A38, symBinAddr: 0x41A78, symSize: 0x64 }
  - { offset: 0x133BEA, size: 0x8, addend: 0x0, symName: __ZN5ImGui15BeginPopupModalEPKcPbi, symObjAddr: 0x13A9C, symBinAddr: 0x41ADC, symSize: 0x110 }
  - { offset: 0x133C6D, size: 0x8, addend: 0x0, symName: __ZN5ImGui15BeginPopupModalEPKcPbi, symObjAddr: 0x13A9C, symBinAddr: 0x41ADC, symSize: 0x110 }
  - { offset: 0x133C75, size: 0x8, addend: 0x0, symName: __ZN5ImGui25NavMoveRequestTryWrappingEP11ImGuiWindowi, symObjAddr: 0x13BAC, symBinAddr: 0x41BEC, symSize: 0x14 }
  - { offset: 0x133E75, size: 0x8, addend: 0x0, symName: __ZN5ImGui25NavMoveRequestTryWrappingEP11ImGuiWindowi, symObjAddr: 0x13BAC, symBinAddr: 0x41BEC, symSize: 0x14 }
  - { offset: 0x133E7D, size: 0x8, addend: 0x0, symName: __ZN5ImGui20OpenPopupOnItemClickEPKci, symObjAddr: 0x13BC0, symBinAddr: 0x41C00, symSize: 0x80 }
  - { offset: 0x133EEC, size: 0x8, addend: 0x0, symName: __ZN5ImGui20OpenPopupOnItemClickEPKci, symObjAddr: 0x13BC0, symBinAddr: 0x41C00, symSize: 0x80 }
  - { offset: 0x133EF4, size: 0x8, addend: 0x0, symName: __ZN5ImGui21BeginPopupContextItemEPKci, symObjAddr: 0x13C40, symBinAddr: 0x41C80, symSize: 0x9C }
  - { offset: 0x133FAC, size: 0x8, addend: 0x0, symName: __ZN5ImGui21BeginPopupContextItemEPKci, symObjAddr: 0x13C40, symBinAddr: 0x41C80, symSize: 0x9C }
  - { offset: 0x133FB4, size: 0x8, addend: 0x0, symName: __ZN5ImGui23BeginPopupContextWindowEPKci, symObjAddr: 0x13CDC, symBinAddr: 0x41D1C, symSize: 0x9C }
  - { offset: 0x13408B, size: 0x8, addend: 0x0, symName: __ZN5ImGui23BeginPopupContextWindowEPKci, symObjAddr: 0x13CDC, symBinAddr: 0x41D1C, symSize: 0x9C }
  - { offset: 0x134093, size: 0x8, addend: 0x0, symName: __ZN5ImGui21BeginPopupContextVoidEPKci, symObjAddr: 0x13D78, symBinAddr: 0x41DB8, symSize: 0x8C }
  - { offset: 0x134178, size: 0x8, addend: 0x0, symName: __ZN5ImGui21BeginPopupContextVoidEPKci, symObjAddr: 0x13D78, symBinAddr: 0x41DB8, symSize: 0x8C }
  - { offset: 0x134180, size: 0x8, addend: 0x0, symName: __ZN5ImGui27FindBestWindowPosForPopupExERK6ImVec2S2_PiRK6ImRectS6_24ImGuiPopupPositionPolicy, symObjAddr: 0x13E04, symBinAddr: 0x41E44, symSize: 0x248 }
  - { offset: 0x13423C, size: 0x8, addend: 0x0, symName: __ZN5ImGui27FindBestWindowPosForPopupExERK6ImVec2S2_PiRK6ImRectS6_24ImGuiPopupPositionPolicy, symObjAddr: 0x13E04, symBinAddr: 0x41E44, symSize: 0x248 }
  - { offset: 0x134244, size: 0x8, addend: 0x0, symName: __ZN5ImGui26GetWindowAllowedExtentRectEP11ImGuiWindow, symObjAddr: 0x1404C, symBinAddr: 0x4208C, symSize: 0x4C }
  - { offset: 0x134305, size: 0x8, addend: 0x0, symName: __ZN5ImGui27FindBestWindowPosForPopupExERK6ImVec2S2_PiRK6ImRectS6_24ImGuiPopupPositionPolicy, symObjAddr: 0x13E04, symBinAddr: 0x41E44, symSize: 0x248 }
  - { offset: 0x1345F0, size: 0x8, addend: 0x0, symName: __ZN5ImGui26GetWindowAllowedExtentRectEP11ImGuiWindow, symObjAddr: 0x1404C, symBinAddr: 0x4208C, symSize: 0x4C }
  - { offset: 0x1345F8, size: 0x8, addend: 0x0, symName: __ZN5ImGui8SetNavIDEj13ImGuiNavLayerjRK6ImRect, symObjAddr: 0x14098, symBinAddr: 0x420D8, symSize: 0x30 }
  - { offset: 0x13471B, size: 0x8, addend: 0x0, symName: __ZN5ImGui8SetNavIDEj13ImGuiNavLayerjRK6ImRect, symObjAddr: 0x14098, symBinAddr: 0x420D8, symSize: 0x30 }
  - { offset: 0x134723, size: 0x8, addend: 0x0, symName: __ZN5ImGui10SetFocusIDEjP11ImGuiWindow, symObjAddr: 0x140C8, symBinAddr: 0x42108, symSize: 0x8C }
  - { offset: 0x134771, size: 0x8, addend: 0x0, symName: __ZN5ImGui10SetFocusIDEjP11ImGuiWindow, symObjAddr: 0x140C8, symBinAddr: 0x42108, symSize: 0x8C }
  - { offset: 0x134779, size: 0x8, addend: 0x0, symName: __Z25ImGetDirQuadrantFromDeltaff, symObjAddr: 0x14154, symBinAddr: 0x42194, symSize: 0x2C }
  - { offset: 0x13480E, size: 0x8, addend: 0x0, symName: __ZN5ImGui28NavMoveRequestButNoResultYetEv, symObjAddr: 0x14180, symBinAddr: 0x421C0, symSize: 0x34 }
  - { offset: 0x134816, size: 0x8, addend: 0x0, symName: __ZN5ImGui20NavMoveRequestCancelEv, symObjAddr: 0x141B4, symBinAddr: 0x421F4, symSize: 0x20 }
  - { offset: 0x134838, size: 0x8, addend: 0x0, symName: __ZN5ImGui20NavMoveRequestCancelEv, symObjAddr: 0x141B4, symBinAddr: 0x421F4, symSize: 0x20 }
  - { offset: 0x134840, size: 0x8, addend: 0x0, symName: __ZN5ImGui21NavMoveRequestForwardEiiRK6ImRecti, symObjAddr: 0x141D4, symBinAddr: 0x42214, symSize: 0x48 }
  - { offset: 0x13487F, size: 0x8, addend: 0x0, symName: __ZN5ImGui21NavMoveRequestForwardEiiRK6ImRecti, symObjAddr: 0x141D4, symBinAddr: 0x42214, symSize: 0x48 }
  - { offset: 0x134887, size: 0x8, addend: 0x0, symName: __ZN5ImGui17GetNavInputAmountEi18ImGuiInputReadMode, symObjAddr: 0x1421C, symBinAddr: 0x4225C, symSize: 0x10C }
  - { offset: 0x134927, size: 0x8, addend: 0x0, symName: __ZN5ImGui17GetNavInputAmountEi18ImGuiInputReadMode, symObjAddr: 0x1421C, symBinAddr: 0x4225C, symSize: 0x10C }
  - { offset: 0x13492F, size: 0x8, addend: 0x0, symName: __ZN5ImGui19GetNavInputAmount2dEi18ImGuiInputReadModeff, symObjAddr: 0x14328, symBinAddr: 0x42368, symSize: 0x188 }
  - { offset: 0x134977, size: 0x8, addend: 0x0, symName: __ZN5ImGui19GetNavInputAmount2dEi18ImGuiInputReadModeff, symObjAddr: 0x14328, symBinAddr: 0x42368, symSize: 0x188 }
  - { offset: 0x13497F, size: 0x8, addend: 0x0, symName: __ZN5ImGui19BeginDragDropSourceEi, symObjAddr: 0x144B0, symBinAddr: 0x424F0, symSize: 0x228 }
  - { offset: 0x134B61, size: 0x8, addend: 0x0, symName: __ZN5ImGui19BeginDragDropSourceEi, symObjAddr: 0x144B0, symBinAddr: 0x424F0, symSize: 0x228 }
  - { offset: 0x134B69, size: 0x8, addend: 0x0, symName: __ZN5ImGui17EndDragDropSourceEv, symObjAddr: 0x146D8, symBinAddr: 0x42718, symSize: 0x48 }
  - { offset: 0x134D3D, size: 0x8, addend: 0x0, symName: __ZN5ImGui17EndDragDropSourceEv, symObjAddr: 0x146D8, symBinAddr: 0x42718, symSize: 0x48 }
  - { offset: 0x134D45, size: 0x8, addend: 0x0, symName: __ZN5ImGui18SetDragDropPayloadEPKcPKvmi, symObjAddr: 0x14720, symBinAddr: 0x42760, symSize: 0x1F4 }
  - { offset: 0x134D8E, size: 0x8, addend: 0x0, symName: __ZN5ImGui18SetDragDropPayloadEPKcPKvmi, symObjAddr: 0x14720, symBinAddr: 0x42760, symSize: 0x1F4 }
  - { offset: 0x134D96, size: 0x8, addend: 0x0, symName: __ZN5ImGui25BeginDragDropTargetCustomERK6ImRectj, symObjAddr: 0x14914, symBinAddr: 0x42954, symSize: 0xA4 }
  - { offset: 0x13507A, size: 0x8, addend: 0x0, symName: __ZN5ImGui25BeginDragDropTargetCustomERK6ImRectj, symObjAddr: 0x14914, symBinAddr: 0x42954, symSize: 0xA4 }
  - { offset: 0x135082, size: 0x8, addend: 0x0, symName: __ZN5ImGui19BeginDragDropTargetEv, symObjAddr: 0x149B8, symBinAddr: 0x429F8, symSize: 0xA8 }
  - { offset: 0x135106, size: 0x8, addend: 0x0, symName: __ZN5ImGui19BeginDragDropTargetEv, symObjAddr: 0x149B8, symBinAddr: 0x429F8, symSize: 0xA8 }
  - { offset: 0x13510E, size: 0x8, addend: 0x0, symName: __ZN5ImGui30IsDragDropPayloadBeingAcceptedEv, symObjAddr: 0x14A60, symBinAddr: 0x42AA0, symSize: 0x2C }
  - { offset: 0x135192, size: 0x8, addend: 0x0, symName: __ZN5ImGui30IsDragDropPayloadBeingAcceptedEv, symObjAddr: 0x14A60, symBinAddr: 0x42AA0, symSize: 0x2C }
  - { offset: 0x13519A, size: 0x8, addend: 0x0, symName: __ZN5ImGui21AcceptDragDropPayloadEPKci, symObjAddr: 0x14A8C, symBinAddr: 0x42ACC, symSize: 0x204 }
  - { offset: 0x1351CE, size: 0x8, addend: 0x0, symName: __ZN5ImGui21AcceptDragDropPayloadEPKci, symObjAddr: 0x14A8C, symBinAddr: 0x42ACC, symSize: 0x204 }
  - { offset: 0x1351D6, size: 0x8, addend: 0x0, symName: __ZN5ImGui18GetDragDropPayloadEv, symObjAddr: 0x14C90, symBinAddr: 0x42CD0, symSize: 0x24 }
  - { offset: 0x135452, size: 0x8, addend: 0x0, symName: __ZN5ImGui18GetDragDropPayloadEv, symObjAddr: 0x14C90, symBinAddr: 0x42CD0, symSize: 0x24 }
  - { offset: 0x13545A, size: 0x8, addend: 0x0, symName: __ZN5ImGui17EndDragDropTargetEv, symObjAddr: 0x14CB4, symBinAddr: 0x42CF4, symSize: 0x14 }
  - { offset: 0x13548F, size: 0x8, addend: 0x0, symName: __ZN5ImGui17EndDragDropTargetEv, symObjAddr: 0x14CB4, symBinAddr: 0x42CF4, symSize: 0x14 }
  - { offset: 0x135497, size: 0x8, addend: 0x0, symName: __ZN5ImGui7LogTextEPKcz, symObjAddr: 0x14CC8, symBinAddr: 0x42D08, symSize: 0x40 }
  - { offset: 0x1354C4, size: 0x8, addend: 0x0, symName: __ZN5ImGui7LogTextEPKcz, symObjAddr: 0x14CC8, symBinAddr: 0x42D08, symSize: 0x40 }
  - { offset: 0x1354CC, size: 0x8, addend: 0x0, symName: __ZL8LogTextVR12ImGuiContextPKcPc, symObjAddr: 0x14D08, symBinAddr: 0x42D48, symSize: 0x134 }
  - { offset: 0x135522, size: 0x8, addend: 0x0, symName: __ZN5ImGui8LogTextVEPKcPc, symObjAddr: 0x14E3C, symBinAddr: 0x42E7C, symSize: 0x24 }
  - { offset: 0x13552A, size: 0x8, addend: 0x0, symName: __ZN5ImGui8LogBeginE12ImGuiLogTypei, symObjAddr: 0x14E60, symBinAddr: 0x42EA0, symSize: 0x50 }
  - { offset: 0x13557F, size: 0x8, addend: 0x0, symName: __ZN5ImGui8LogBeginE12ImGuiLogTypei, symObjAddr: 0x14E60, symBinAddr: 0x42EA0, symSize: 0x50 }
  - { offset: 0x135587, size: 0x8, addend: 0x0, symName: __ZN5ImGui24LogSetNextTextDecorationEPKcS1_, symObjAddr: 0x14EB0, symBinAddr: 0x42EF0, symSize: 0x14 }
  - { offset: 0x1355CE, size: 0x8, addend: 0x0, symName: __ZN5ImGui24LogSetNextTextDecorationEPKcS1_, symObjAddr: 0x14EB0, symBinAddr: 0x42EF0, symSize: 0x14 }
  - { offset: 0x1355D6, size: 0x8, addend: 0x0, symName: __ZN5ImGui8LogToTTYEi, symObjAddr: 0x14EC4, symBinAddr: 0x42F04, symSize: 0x6C }
  - { offset: 0x135678, size: 0x8, addend: 0x0, symName: __ZN5ImGui8LogToTTYEi, symObjAddr: 0x14EC4, symBinAddr: 0x42F04, symSize: 0x6C }
  - { offset: 0x135680, size: 0x8, addend: 0x0, symName: __ZN5ImGui9LogToFileEiPKc, symObjAddr: 0x14F30, symBinAddr: 0x42F70, symSize: 0xB8 }
  - { offset: 0x1356FC, size: 0x8, addend: 0x0, symName: __ZN5ImGui9LogToFileEiPKc, symObjAddr: 0x14F30, symBinAddr: 0x42F70, symSize: 0xB8 }
  - { offset: 0x135704, size: 0x8, addend: 0x0, symName: __ZN5ImGui14LogToClipboardEi, symObjAddr: 0x14FE8, symBinAddr: 0x43028, symSize: 0x60 }
  - { offset: 0x1357F4, size: 0x8, addend: 0x0, symName: __ZN5ImGui14LogToClipboardEi, symObjAddr: 0x14FE8, symBinAddr: 0x43028, symSize: 0x60 }
  - { offset: 0x1357FC, size: 0x8, addend: 0x0, symName: __ZN5ImGui11LogToBufferEi, symObjAddr: 0x15048, symBinAddr: 0x43088, symSize: 0x60 }
  - { offset: 0x135878, size: 0x8, addend: 0x0, symName: __ZN5ImGui11LogToBufferEi, symObjAddr: 0x15048, symBinAddr: 0x43088, symSize: 0x60 }
  - { offset: 0x135880, size: 0x8, addend: 0x0, symName: __ZN5ImGui10LogButtonsEv, symObjAddr: 0x150A8, symBinAddr: 0x430E8, symSize: 0x26C }
  - { offset: 0x13599A, size: 0x8, addend: 0x0, symName: __ZN5ImGui10LogButtonsEv, symObjAddr: 0x150A8, symBinAddr: 0x430E8, symSize: 0x26C }
  - { offset: 0x1359A2, size: 0x8, addend: 0x0, symName: __ZN5ImGui20MarkIniSettingsDirtyEv, symObjAddr: 0x15314, symBinAddr: 0x43354, symSize: 0x20 }
  - { offset: 0x135F0F, size: 0x8, addend: 0x0, symName: __ZN5ImGui20MarkIniSettingsDirtyEv, symObjAddr: 0x15314, symBinAddr: 0x43354, symSize: 0x20 }
  - { offset: 0x135F17, size: 0x8, addend: 0x0, symName: __ZN5ImGui23CreateNewWindowSettingsEPKc, symObjAddr: 0x15334, symBinAddr: 0x43374, symSize: 0x8C }
  - { offset: 0x135F43, size: 0x8, addend: 0x0, symName: __ZN5ImGui23CreateNewWindowSettingsEPKc, symObjAddr: 0x15334, symBinAddr: 0x43374, symSize: 0x8C }
  - { offset: 0x135F4B, size: 0x8, addend: 0x0, symName: __ZN13ImChunkStreamI19ImGuiWindowSettingsE11alloc_chunkEm, symObjAddr: 0x153C0, symBinAddr: 0x43400, symSize: 0x100 }
  - { offset: 0x1360F1, size: 0x8, addend: 0x0, symName: __ZN5ImGui18FindWindowSettingsEj, symObjAddr: 0x154C0, symBinAddr: 0x43500, symSize: 0x48 }
  - { offset: 0x1360F9, size: 0x8, addend: 0x0, symName: __ZN5ImGui26FindOrCreateWindowSettingsEPKc, symObjAddr: 0x15508, symBinAddr: 0x43548, symSize: 0x78 }
  - { offset: 0x13620E, size: 0x8, addend: 0x0, symName: __ZN5ImGui26FindOrCreateWindowSettingsEPKc, symObjAddr: 0x15508, symBinAddr: 0x43548, symSize: 0x78 }
  - { offset: 0x136216, size: 0x8, addend: 0x0, symName: __ZN5ImGui19FindSettingsHandlerEPKc, symObjAddr: 0x15580, symBinAddr: 0x435C0, symSize: 0x5C }
  - { offset: 0x136389, size: 0x8, addend: 0x0, symName: __ZN5ImGui19FindSettingsHandlerEPKc, symObjAddr: 0x15580, symBinAddr: 0x435C0, symSize: 0x5C }
  - { offset: 0x136391, size: 0x8, addend: 0x0, symName: __ZN5ImGui16ClearIniSettingsEv, symObjAddr: 0x155DC, symBinAddr: 0x4361C, symSize: 0x74 }
  - { offset: 0x136414, size: 0x8, addend: 0x0, symName: __ZN5ImGui16ClearIniSettingsEv, symObjAddr: 0x155DC, symBinAddr: 0x4361C, symSize: 0x74 }
  - { offset: 0x13641C, size: 0x8, addend: 0x0, symName: __ZN5ImGui23LoadIniSettingsFromDiskEPKc, symObjAddr: 0x15650, symBinAddr: 0x43690, symSize: 0x78 }
  - { offset: 0x136498, size: 0x8, addend: 0x0, symName: __ZN5ImGui23LoadIniSettingsFromDiskEPKc, symObjAddr: 0x15650, symBinAddr: 0x43690, symSize: 0x78 }
  - { offset: 0x1364A0, size: 0x8, addend: 0x0, symName: __ZN5ImGui25LoadIniSettingsFromMemoryEPKcm, symObjAddr: 0x156C8, symBinAddr: 0x43708, symSize: 0x300 }
  - { offset: 0x136530, size: 0x8, addend: 0x0, symName: __ZN5ImGui25LoadIniSettingsFromMemoryEPKcm, symObjAddr: 0x156C8, symBinAddr: 0x43708, symSize: 0x300 }
  - { offset: 0x136538, size: 0x8, addend: 0x0, symName: __ZN5ImGui23SaveIniSettingsToMemoryEPm, symObjAddr: 0x159C8, symBinAddr: 0x43A08, symSize: 0x1D4 }
  - { offset: 0x13692B, size: 0x8, addend: 0x0, symName: __ZN5ImGui23SaveIniSettingsToMemoryEPm, symObjAddr: 0x159C8, symBinAddr: 0x43A08, symSize: 0x1D4 }
  - { offset: 0x136933, size: 0x8, addend: 0x0, symName: __ZN5ImGui28DebugRenderViewportThumbnailEP10ImDrawListP14ImGuiViewportPRK6ImRect, symObjAddr: 0x15B9C, symBinAddr: 0x43BDC, symSize: 0x3C0 }
  - { offset: 0x136BF8, size: 0x8, addend: 0x0, symName: __ZN5ImGui28DebugRenderViewportThumbnailEP10ImDrawListP14ImGuiViewportPRK6ImRect, symObjAddr: 0x15B9C, symBinAddr: 0x43BDC, symSize: 0x3C0 }
  - { offset: 0x136C00, size: 0x8, addend: 0x0, symName: __ZN5ImGui17ShowMetricsWindowEPb, symObjAddr: 0x15F5C, symBinAddr: 0x43F9C, symSize: 0x163C }
  - { offset: 0x137379, size: 0x8, addend: 0x0, symName: __ZN5ImGui20DebugNodeWindowsListEP8ImVectorIP11ImGuiWindowEPKc, symObjAddr: 0x177C0, symBinAddr: 0x45800, symSize: 0xD4 }
  - { offset: 0x137381, size: 0x8, addend: 0x0, symName: __ZN5ImGui17DebugNodeDrawListEP11ImGuiWindowPK10ImDrawListPKc, symObjAddr: 0x17894, symBinAddr: 0x458D4, symSize: 0x604 }
  - { offset: 0x1374C1, size: 0x8, addend: 0x0, symName: __ZN5ImGui17DebugNodeDrawListEP11ImGuiWindowPK10ImDrawListPKc, symObjAddr: 0x17894, symBinAddr: 0x458D4, symSize: 0x604 }
  - { offset: 0x1374C9, size: 0x8, addend: 0x0, symName: __ZN5ImGui17DebugNodeViewportEP14ImGuiViewportP, symObjAddr: 0x17E98, symBinAddr: 0x45ED8, symSize: 0x174 }
  - { offset: 0x137BF3, size: 0x8, addend: 0x0, symName: __ZN5ImGui17DebugNodeViewportEP14ImGuiViewportP, symObjAddr: 0x17E98, symBinAddr: 0x45ED8, symSize: 0x174 }
  - { offset: 0x137BFB, size: 0x8, addend: 0x0, symName: __ZN5ImGui15DebugNodeTabBarEP11ImGuiTabBarPKc, symObjAddr: 0x1800C, symBinAddr: 0x4604C, symSize: 0x36C }
  - { offset: 0x137CE5, size: 0x8, addend: 0x0, symName: __ZN5ImGui15DebugNodeTabBarEP11ImGuiTabBarPKc, symObjAddr: 0x1800C, symBinAddr: 0x4604C, symSize: 0x36C }
  - { offset: 0x137CED, size: 0x8, addend: 0x0, symName: __ZN5ImGui23DebugNodeWindowSettingsEP19ImGuiWindowSettings, symObjAddr: 0x18378, symBinAddr: 0x463B8, symSize: 0x50 }
  - { offset: 0x1382F3, size: 0x8, addend: 0x0, symName: __ZN5ImGui23DebugNodeWindowSettingsEP19ImGuiWindowSettings, symObjAddr: 0x18378, symBinAddr: 0x463B8, symSize: 0x50 }
  - { offset: 0x1382FB, size: 0x8, addend: 0x0, symName: __ZN5ImGui16DebugNodeColumnsEP15ImGuiOldColumns, symObjAddr: 0x183C8, symBinAddr: 0x46408, symSize: 0xF0 }
  - { offset: 0x138346, size: 0x8, addend: 0x0, symName: __ZN5ImGui16DebugNodeColumnsEP15ImGuiOldColumns, symObjAddr: 0x183C8, symBinAddr: 0x46408, symSize: 0xF0 }
  - { offset: 0x13834E, size: 0x8, addend: 0x0, symName: __ZN5ImGui38DebugNodeDrawCmdShowMeshAndBoundingBoxEP10ImDrawListPKS0_PK9ImDrawCmdbb, symObjAddr: 0x184B8, symBinAddr: 0x464F8, symSize: 0x1DC }
  - { offset: 0x1383CA, size: 0x8, addend: 0x0, symName: __ZN5ImGui38DebugNodeDrawCmdShowMeshAndBoundingBoxEP10ImDrawListPKS0_PK9ImDrawCmdbb, symObjAddr: 0x184B8, symBinAddr: 0x464F8, symSize: 0x1DC }
  - { offset: 0x1383D2, size: 0x8, addend: 0x0, symName: __ZN5ImGui16DebugNodeStorageEP12ImGuiStoragePKc, symObjAddr: 0x18694, symBinAddr: 0x466D4, symSize: 0xB4 }
  - { offset: 0x13863B, size: 0x8, addend: 0x0, symName: __ZN5ImGui16DebugNodeStorageEP12ImGuiStoragePKc, symObjAddr: 0x18694, symBinAddr: 0x466D4, symSize: 0xB4 }
  - { offset: 0x138643, size: 0x8, addend: 0x0, symName: __ZN5ImGui15DebugNodeWindowEP11ImGuiWindowPKc, symObjAddr: 0x18748, symBinAddr: 0x46788, symSize: 0x528 }
  - { offset: 0x138729, size: 0x8, addend: 0x0, symName: __ZN5ImGui15DebugNodeWindowEP11ImGuiWindowPKc, symObjAddr: 0x18748, symBinAddr: 0x46788, symSize: 0x528 }
  - { offset: 0x138731, size: 0x8, addend: 0x0, symName: __ZN10ImDrawListD2Ev, symObjAddr: 0x18C70, symBinAddr: 0x46CB0, symSize: 0x158 }
  - { offset: 0x138B12, size: 0x8, addend: 0x0, symName: __ZN5ImGuiL12NavScoreItemEP16ImGuiNavItemData6ImRect, symObjAddr: 0x19704, symBinAddr: 0x47744, symSize: 0x364 }
  - { offset: 0x138B1A, size: 0x8, addend: 0x0, symName: __ZN5ImGuiL15NavRestoreLayerE13ImGuiNavLayer, symObjAddr: 0x19A68, symBinAddr: 0x47AA8, symSize: 0x74 }
  - { offset: 0x139035, size: 0x8, addend: 0x0, symName: __ZN5ImGuiL15NavRestoreLayerE13ImGuiNavLayer, symObjAddr: 0x19A68, symBinAddr: 0x47AA8, symSize: 0x74 }
  - { offset: 0x13903D, size: 0x8, addend: 0x0, symName: __ZL22FindWindowNavFocusableiii, symObjAddr: 0x19ADC, symBinAddr: 0x47B1C, symSize: 0x5C }
  - { offset: 0x1399AB, size: 0x8, addend: 0x0, symName: __ZN10ImGuiStyleC2Ev, symObjAddr: 0x0, symBinAddr: 0x2E040, symSize: 0xDC }
  - { offset: 0x1399B3, size: 0x8, addend: 0x0, symName: __ZN10ImGuiStyleC1Ev, symObjAddr: 0xDC, symBinAddr: 0x2E11C, symSize: 0x4 }
  - { offset: 0x139A20, size: 0x8, addend: 0x0, symName: __ZN10ImGuiStyleC1Ev, symObjAddr: 0xDC, symBinAddr: 0x2E11C, symSize: 0x4 }
  - { offset: 0x139A28, size: 0x8, addend: 0x0, symName: __ZN10ImGuiStyle13ScaleAllSizesEf, symObjAddr: 0xE0, symBinAddr: 0x2E120, symSize: 0x130 }
  - { offset: 0x139AD1, size: 0x8, addend: 0x0, symName: __ZN10ImGuiStyle13ScaleAllSizesEf, symObjAddr: 0xE0, symBinAddr: 0x2E120, symSize: 0x130 }
  - { offset: 0x139AD9, size: 0x8, addend: 0x0, symName: __ZN7ImGuiIOC2Ev, symObjAddr: 0x210, symBinAddr: 0x2E250, symSize: 0x174 }
  - { offset: 0x139E5E, size: 0x8, addend: 0x0, symName: __ZN7ImGuiIOC2Ev, symObjAddr: 0x210, symBinAddr: 0x2E250, symSize: 0x174 }
  - { offset: 0x139E66, size: 0x8, addend: 0x0, symName: __ZL30GetClipboardTextFn_DefaultImplPv, symObjAddr: 0x384, symBinAddr: 0x2E3C4, symSize: 0x20 }
  - { offset: 0x139FB5, size: 0x8, addend: 0x0, symName: __ZL30GetClipboardTextFn_DefaultImplPv, symObjAddr: 0x384, symBinAddr: 0x2E3C4, symSize: 0x20 }
  - { offset: 0x139FBD, size: 0x8, addend: 0x0, symName: __ZL30SetClipboardTextFn_DefaultImplPvPKc, symObjAddr: 0x3A4, symBinAddr: 0x2E3E4, symSize: 0x144 }
  - { offset: 0x13A133, size: 0x8, addend: 0x0, symName: __ZL30SetClipboardTextFn_DefaultImplPvPKc, symObjAddr: 0x3A4, symBinAddr: 0x2E3E4, symSize: 0x144 }
  - { offset: 0x13A13B, size: 0x8, addend: 0x0, symName: __ZL34ImeSetInputScreenPosFn_DefaultImplii, symObjAddr: 0x4E8, symBinAddr: 0x2E528, symSize: 0x4 }
  - { offset: 0x13A356, size: 0x8, addend: 0x0, symName: __ZL34ImeSetInputScreenPosFn_DefaultImplii, symObjAddr: 0x4E8, symBinAddr: 0x2E528, symSize: 0x4 }
  - { offset: 0x13A35E, size: 0x8, addend: 0x0, symName: __ZN7ImGuiIOC1Ev, symObjAddr: 0x4EC, symBinAddr: 0x2E52C, symSize: 0x4 }
  - { offset: 0x13A390, size: 0x8, addend: 0x0, symName: __ZN7ImGuiIOC1Ev, symObjAddr: 0x4EC, symBinAddr: 0x2E52C, symSize: 0x4 }
  - { offset: 0x13A398, size: 0x8, addend: 0x0, symName: __ZN7ImGuiIO17AddInputCharacterEj, symObjAddr: 0x4F0, symBinAddr: 0x2E530, symSize: 0x10C }
  - { offset: 0x13A475, size: 0x8, addend: 0x0, symName: __ZN7ImGuiIO17AddInputCharacterEj, symObjAddr: 0x4F0, symBinAddr: 0x2E530, symSize: 0x10C }
  - { offset: 0x13A47D, size: 0x8, addend: 0x0, symName: __ZN7ImGuiIO22AddInputCharacterUTF16Et, symObjAddr: 0x5FC, symBinAddr: 0x2E63C, symSize: 0x30C }
  - { offset: 0x13A5DE, size: 0x8, addend: 0x0, symName: __ZN7ImGuiIO22AddInputCharacterUTF16Et, symObjAddr: 0x5FC, symBinAddr: 0x2E63C, symSize: 0x30C }
  - { offset: 0x13A5E6, size: 0x8, addend: 0x0, symName: __ZN7ImGuiIO22AddInputCharactersUTF8EPKc, symObjAddr: 0x908, symBinAddr: 0x2E948, symSize: 0x14C }
  - { offset: 0x13A98D, size: 0x8, addend: 0x0, symName: __ZN7ImGuiIO22AddInputCharactersUTF8EPKc, symObjAddr: 0x908, symBinAddr: 0x2E948, symSize: 0x14C }
  - { offset: 0x13A995, size: 0x8, addend: 0x0, symName: __Z18ImTextCharFromUtf8PjPKcS1_, symObjAddr: 0xA54, symBinAddr: 0x2EA94, symSize: 0x15C }
  - { offset: 0x13AB80, size: 0x8, addend: 0x0, symName: __ZN7ImGuiIO20ClearInputCharactersEv, symObjAddr: 0xBB0, symBinAddr: 0x2EBF0, symSize: 0xB0 }
  - { offset: 0x13AB88, size: 0x8, addend: 0x0, symName: __Z25ImBezierCubicClosestPointRK6ImVec2S1_S1_S1_S1_i, symObjAddr: 0xC60, symBinAddr: 0x2ECA0, symSize: 0x10C }
  - { offset: 0x13ACFB, size: 0x8, addend: 0x0, symName: __Z25ImBezierCubicClosestPointRK6ImVec2S1_S1_S1_S1_i, symObjAddr: 0xC60, symBinAddr: 0x2ECA0, symSize: 0x10C }
  - { offset: 0x13AD03, size: 0x8, addend: 0x0, symName: __Z18ImLineClosestPointRK6ImVec2S1_S1_, symObjAddr: 0xD6C, symBinAddr: 0x2EDAC, symSize: 0x64 }
  - { offset: 0x13AF11, size: 0x8, addend: 0x0, symName: __Z18ImLineClosestPointRK6ImVec2S1_S1_, symObjAddr: 0xD6C, symBinAddr: 0x2EDAC, symSize: 0x64 }
  - { offset: 0x13AF19, size: 0x8, addend: 0x0, symName: __Z34ImBezierCubicClosestPointCasteljauRK6ImVec2S1_S1_S1_S1_f, symObjAddr: 0xDD0, symBinAddr: 0x2EE10, symSize: 0x68 }
  - { offset: 0x13AFC9, size: 0x8, addend: 0x0, symName: __Z18ImLineClosestPointRK6ImVec2S1_S1_, symObjAddr: 0xD6C, symBinAddr: 0x2EDAC, symSize: 0x64 }
  - { offset: 0x13B090, size: 0x8, addend: 0x0, symName: __Z34ImBezierCubicClosestPointCasteljauRK6ImVec2S1_S1_S1_S1_f, symObjAddr: 0xDD0, symBinAddr: 0x2EE10, symSize: 0x68 }
  - { offset: 0x13B098, size: 0x8, addend: 0x0, symName: __ZL38ImBezierCubicClosestPointCasteljauStepRK6ImVec2RS_S2_Rffffffffffi, symObjAddr: 0xE38, symBinAddr: 0x2EE78, symSize: 0x1CC }
  - { offset: 0x13B236, size: 0x8, addend: 0x0, symName: __ZL38ImBezierCubicClosestPointCasteljauStepRK6ImVec2RS_S2_Rffffffffffi, symObjAddr: 0xE38, symBinAddr: 0x2EE78, symSize: 0x1CC }
  - { offset: 0x13B23E, size: 0x8, addend: 0x0, symName: __Z23ImTriangleContainsPointRK6ImVec2S1_S1_S1_, symObjAddr: 0x1004, symBinAddr: 0x2F044, symSize: 0x90 }
  - { offset: 0x13B5B4, size: 0x8, addend: 0x0, symName: __Z23ImTriangleContainsPointRK6ImVec2S1_S1_S1_, symObjAddr: 0x1004, symBinAddr: 0x2F044, symSize: 0x90 }
  - { offset: 0x13B5BC, size: 0x8, addend: 0x0, symName: __Z27ImTriangleBarycentricCoordsRK6ImVec2S1_S1_S1_RfS2_S2_, symObjAddr: 0x1094, symBinAddr: 0x2F0D4, symSize: 0x68 }
  - { offset: 0x13B65A, size: 0x8, addend: 0x0, symName: __Z27ImTriangleBarycentricCoordsRK6ImVec2S1_S1_S1_RfS2_S2_, symObjAddr: 0x1094, symBinAddr: 0x2F0D4, symSize: 0x68 }
  - { offset: 0x13B662, size: 0x8, addend: 0x0, symName: __Z22ImTriangleClosestPointRK6ImVec2S1_S1_S1_, symObjAddr: 0x10FC, symBinAddr: 0x2F13C, symSize: 0xE8 }
  - { offset: 0x13B7DF, size: 0x8, addend: 0x0, symName: __Z22ImTriangleClosestPointRK6ImVec2S1_S1_S1_, symObjAddr: 0x10FC, symBinAddr: 0x2F13C, symSize: 0xE8 }
  - { offset: 0x13B7E7, size: 0x8, addend: 0x0, symName: __Z9ImStricmpPKcS0_, symObjAddr: 0x11E4, symBinAddr: 0x2F224, symSize: 0x84 }
  - { offset: 0x13BA30, size: 0x8, addend: 0x0, symName: __Z9ImStricmpPKcS0_, symObjAddr: 0x11E4, symBinAddr: 0x2F224, symSize: 0x84 }
  - { offset: 0x13BA38, size: 0x8, addend: 0x0, symName: __Z10ImStrnicmpPKcS0_m, symObjAddr: 0x1268, symBinAddr: 0x2F2A8, symSize: 0x70 }
  - { offset: 0x13BAD2, size: 0x8, addend: 0x0, symName: __Z10ImStrnicmpPKcS0_m, symObjAddr: 0x1268, symBinAddr: 0x2F2A8, symSize: 0x70 }
  - { offset: 0x13BADA, size: 0x8, addend: 0x0, symName: __Z9ImStrncpyPcPKcm, symObjAddr: 0x12D8, symBinAddr: 0x2F318, symSize: 0x30 }
  - { offset: 0x13BB9F, size: 0x8, addend: 0x0, symName: __Z9ImStrncpyPcPKcm, symObjAddr: 0x12D8, symBinAddr: 0x2F318, symSize: 0x30 }
  - { offset: 0x13BBA7, size: 0x8, addend: 0x0, symName: __Z8ImStrdupPKc, symObjAddr: 0x1308, symBinAddr: 0x2F348, symSize: 0x5C }
  - { offset: 0x13BBE0, size: 0x8, addend: 0x0, symName: __Z8ImStrdupPKc, symObjAddr: 0x1308, symBinAddr: 0x2F348, symSize: 0x5C }
  - { offset: 0x13BBE8, size: 0x8, addend: 0x0, symName: __ZN5ImGui8MemAllocEm, symObjAddr: 0x1364, symBinAddr: 0x2F3A4, symSize: 0x2C }
  - { offset: 0x13BC76, size: 0x8, addend: 0x0, symName: __Z11ImStrdupcpyPcPmPKc, symObjAddr: 0x1390, symBinAddr: 0x2F3D0, symSize: 0xD4 }
  - { offset: 0x13BC7E, size: 0x8, addend: 0x0, symName: __ZN5ImGui7MemFreeEPv, symObjAddr: 0x1464, symBinAddr: 0x2F4A4, symSize: 0x30 }
  - { offset: 0x13BDBE, size: 0x8, addend: 0x0, symName: __Z13ImStrchrRangePKcS0_c, symObjAddr: 0x1494, symBinAddr: 0x2F4D4, symSize: 0x10 }
  - { offset: 0x13BDC6, size: 0x8, addend: 0x0, symName: __Z9ImStrlenWPKt, symObjAddr: 0x14A4, symBinAddr: 0x2F4E4, symSize: 0x2C }
  - { offset: 0x13BE17, size: 0x8, addend: 0x0, symName: __Z9ImStrlenWPKt, symObjAddr: 0x14A4, symBinAddr: 0x2F4E4, symSize: 0x2C }
  - { offset: 0x13BE47, size: 0x8, addend: 0x0, symName: __Z9ImStrlenWPKt, symObjAddr: 0x14A4, symBinAddr: 0x2F4E4, symSize: 0x2C }
  - { offset: 0x13BE4F, size: 0x8, addend: 0x0, symName: __Z13ImStreolRangePKcS0_, symObjAddr: 0x14D0, symBinAddr: 0x2F510, symSize: 0x30 }
  - { offset: 0x13BE94, size: 0x8, addend: 0x0, symName: __Z13ImStreolRangePKcS0_, symObjAddr: 0x14D0, symBinAddr: 0x2F510, symSize: 0x30 }
  - { offset: 0x13BE9C, size: 0x8, addend: 0x0, symName: __Z9ImStrbolWPKtS0_, symObjAddr: 0x1500, symBinAddr: 0x2F540, symSize: 0x24 }
  - { offset: 0x13BF16, size: 0x8, addend: 0x0, symName: __Z9ImStrbolWPKtS0_, symObjAddr: 0x1500, symBinAddr: 0x2F540, symSize: 0x24 }
  - { offset: 0x13BF1E, size: 0x8, addend: 0x0, symName: __Z9ImStristrPKcS0_S0_S0_, symObjAddr: 0x1524, symBinAddr: 0x2F564, symSize: 0xD4 }
  - { offset: 0x13BF65, size: 0x8, addend: 0x0, symName: __Z9ImStristrPKcS0_S0_S0_, symObjAddr: 0x1524, symBinAddr: 0x2F564, symSize: 0xD4 }
  - { offset: 0x13BF6D, size: 0x8, addend: 0x0, symName: __Z15ImStrTrimBlanksPc, symObjAddr: 0x15F8, symBinAddr: 0x2F638, symSize: 0xAC }
  - { offset: 0x13C0DA, size: 0x8, addend: 0x0, symName: __Z15ImStrTrimBlanksPc, symObjAddr: 0x15F8, symBinAddr: 0x2F638, symSize: 0xAC }
  - { offset: 0x13C0E2, size: 0x8, addend: 0x0, symName: __Z14ImStrSkipBlankPKc, symObjAddr: 0x16A4, symBinAddr: 0x2F6E4, symSize: 0x1C }
  - { offset: 0x13C132, size: 0x8, addend: 0x0, symName: __Z14ImStrSkipBlankPKc, symObjAddr: 0x16A4, symBinAddr: 0x2F6E4, symSize: 0x1C }
  - { offset: 0x13C13A, size: 0x8, addend: 0x0, symName: __Z14ImFormatStringPcmPKcz, symObjAddr: 0x16C0, symBinAddr: 0x2F700, symSize: 0x54 }
  - { offset: 0x13C16D, size: 0x8, addend: 0x0, symName: __Z14ImFormatStringPcmPKcz, symObjAddr: 0x16C0, symBinAddr: 0x2F700, symSize: 0x54 }
  - { offset: 0x13C175, size: 0x8, addend: 0x0, symName: __Z15ImFormatStringVPcmPKcS_, symObjAddr: 0x1714, symBinAddr: 0x2F754, symSize: 0x40 }
  - { offset: 0x13C1FB, size: 0x8, addend: 0x0, symName: __Z15ImFormatStringVPcmPKcS_, symObjAddr: 0x1714, symBinAddr: 0x2F754, symSize: 0x40 }
  - { offset: 0x13C203, size: 0x8, addend: 0x0, symName: __Z10ImHashDataPKvmj, symObjAddr: 0x1754, symBinAddr: 0x2F794, symSize: 0x38 }
  - { offset: 0x13C259, size: 0x8, addend: 0x0, symName: __Z10ImHashDataPKvmj, symObjAddr: 0x1754, symBinAddr: 0x2F794, symSize: 0x38 }
  - { offset: 0x13C261, size: 0x8, addend: 0x0, symName: __Z9ImHashStrPKcmj, symObjAddr: 0x178C, symBinAddr: 0x2F7CC, symSize: 0xD0 }
  - { offset: 0x13C2BF, size: 0x8, addend: 0x0, symName: __Z9ImHashStrPKcmj, symObjAddr: 0x178C, symBinAddr: 0x2F7CC, symSize: 0xD0 }
  - { offset: 0x13C2C7, size: 0x8, addend: 0x0, symName: __Z10ImFileOpenPKcS0_, symObjAddr: 0x185C, symBinAddr: 0x2F89C, symSize: 0x4 }
  - { offset: 0x13C394, size: 0x8, addend: 0x0, symName: __Z10ImFileOpenPKcS0_, symObjAddr: 0x185C, symBinAddr: 0x2F89C, symSize: 0x4 }
  - { offset: 0x13C39C, size: 0x8, addend: 0x0, symName: __Z11ImFileCloseP7__sFILE, symObjAddr: 0x1860, symBinAddr: 0x2F8A0, symSize: 0x1C }
  - { offset: 0x13C3C7, size: 0x8, addend: 0x0, symName: __Z11ImFileCloseP7__sFILE, symObjAddr: 0x1860, symBinAddr: 0x2F8A0, symSize: 0x1C }
  - { offset: 0x13C3CF, size: 0x8, addend: 0x0, symName: __Z13ImFileGetSizeP7__sFILE, symObjAddr: 0x187C, symBinAddr: 0x2F8BC, symSize: 0x7C }
  - { offset: 0x13C3F0, size: 0x8, addend: 0x0, symName: __Z13ImFileGetSizeP7__sFILE, symObjAddr: 0x187C, symBinAddr: 0x2F8BC, symSize: 0x7C }
  - { offset: 0x13C3F8, size: 0x8, addend: 0x0, symName: __Z10ImFileReadPvyyP7__sFILE, symObjAddr: 0x18F8, symBinAddr: 0x2F938, symSize: 0x4 }
  - { offset: 0x13C455, size: 0x8, addend: 0x0, symName: __Z10ImFileReadPvyyP7__sFILE, symObjAddr: 0x18F8, symBinAddr: 0x2F938, symSize: 0x4 }
  - { offset: 0x13C45D, size: 0x8, addend: 0x0, symName: __Z11ImFileWritePKvyyP7__sFILE, symObjAddr: 0x18FC, symBinAddr: 0x2F93C, symSize: 0x4 }
  - { offset: 0x13C49E, size: 0x8, addend: 0x0, symName: __Z11ImFileWritePKvyyP7__sFILE, symObjAddr: 0x18FC, symBinAddr: 0x2F93C, symSize: 0x4 }
  - { offset: 0x13C4A6, size: 0x8, addend: 0x0, symName: __Z18ImFileLoadToMemoryPKcS0_Pmi, symObjAddr: 0x1900, symBinAddr: 0x2F940, symSize: 0x128 }
  - { offset: 0x13C59B, size: 0x8, addend: 0x0, symName: __Z18ImFileLoadToMemoryPKcS0_Pmi, symObjAddr: 0x1900, symBinAddr: 0x2F940, symSize: 0x128 }
  - { offset: 0x13C5A3, size: 0x8, addend: 0x0, symName: __Z17ImTextStrFromUtf8PtiPKcS1_PS1_, symObjAddr: 0x1A28, symBinAddr: 0x2FA68, symSize: 0xAC }
  - { offset: 0x13C7EA, size: 0x8, addend: 0x0, symName: __Z17ImTextStrFromUtf8PtiPKcS1_PS1_, symObjAddr: 0x1A28, symBinAddr: 0x2FA68, symSize: 0xAC }
  - { offset: 0x13C7F2, size: 0x8, addend: 0x0, symName: __Z24ImTextCountCharsFromUtf8PKcS0_, symObjAddr: 0x1AD4, symBinAddr: 0x2FB14, symSize: 0x70 }
  - { offset: 0x13C8C3, size: 0x8, addend: 0x0, symName: __Z24ImTextCountCharsFromUtf8PKcS0_, symObjAddr: 0x1AD4, symBinAddr: 0x2FB14, symSize: 0x70 }
  - { offset: 0x13C8CB, size: 0x8, addend: 0x0, symName: __Z28ImTextCountUtf8BytesFromCharPKcS0_, symObjAddr: 0x1B44, symBinAddr: 0x2FB84, symSize: 0x28 }
  - { offset: 0x13C94D, size: 0x8, addend: 0x0, symName: __Z28ImTextCountUtf8BytesFromCharPKcS0_, symObjAddr: 0x1B44, symBinAddr: 0x2FB84, symSize: 0x28 }
  - { offset: 0x13C955, size: 0x8, addend: 0x0, symName: __Z15ImTextStrToUtf8PciPKtS1_, symObjAddr: 0x1B6C, symBinAddr: 0x2FBAC, symSize: 0xC4 }
  - { offset: 0x13C9D5, size: 0x8, addend: 0x0, symName: __Z15ImTextStrToUtf8PciPKtS1_, symObjAddr: 0x1B6C, symBinAddr: 0x2FBAC, symSize: 0xC4 }
  - { offset: 0x13C9DD, size: 0x8, addend: 0x0, symName: __Z27ImTextCountUtf8BytesFromStrPKtS0_, symObjAddr: 0x1C30, symBinAddr: 0x2FC70, symSize: 0x58 }
  - { offset: 0x13CACB, size: 0x8, addend: 0x0, symName: __Z27ImTextCountUtf8BytesFromStrPKtS0_, symObjAddr: 0x1C30, symBinAddr: 0x2FC70, symSize: 0x58 }
  - { offset: 0x13CAD3, size: 0x8, addend: 0x0, symName: __Z18ImAlphaBlendColorsjj, symObjAddr: 0x1C88, symBinAddr: 0x2FCC8, symSize: 0x8C }
  - { offset: 0x13CBA4, size: 0x8, addend: 0x0, symName: __Z18ImAlphaBlendColorsjj, symObjAddr: 0x1C88, symBinAddr: 0x2FCC8, symSize: 0x8C }
  - { offset: 0x13CBAC, size: 0x8, addend: 0x0, symName: __ZN5ImGui23ColorConvertU32ToFloat4Ej, symObjAddr: 0x1D14, symBinAddr: 0x2FD54, symSize: 0x54 }
  - { offset: 0x13CCCF, size: 0x8, addend: 0x0, symName: __ZN12ImGuiStorage14BuildSortByKeyEv, symObjAddr: 0x1F88, symBinAddr: 0x2FFC8, symSize: 0x24 }
  - { offset: 0x13CCD7, size: 0x8, addend: 0x0, symName: __ZZN12ImGuiStorage14BuildSortByKeyEvEN10StaticFunc15PairCompareByIDEPKvS2_, symObjAddr: 0x1FAC, symBinAddr: 0x2FFEC, symSize: 0x18 }
  - { offset: 0x13CD35, size: 0x8, addend: 0x0, symName: __ZZN12ImGuiStorage14BuildSortByKeyEvEN10StaticFunc15PairCompareByIDEPKvS2_, symObjAddr: 0x1FAC, symBinAddr: 0x2FFEC, symSize: 0x18 }
  - { offset: 0x13CD3D, size: 0x8, addend: 0x0, symName: __ZNK12ImGuiStorage6GetIntEji, symObjAddr: 0x1FC4, symBinAddr: 0x30004, symSize: 0x6C }
  - { offset: 0x13CE2C, size: 0x8, addend: 0x0, symName: __ZNK12ImGuiStorage6GetIntEji, symObjAddr: 0x1FC4, symBinAddr: 0x30004, symSize: 0x6C }
  - { offset: 0x13CE34, size: 0x8, addend: 0x0, symName: __ZNK12ImGuiStorage7GetBoolEjb, symObjAddr: 0x2030, symBinAddr: 0x30070, symSize: 0x1C }
  - { offset: 0x13CEA3, size: 0x8, addend: 0x0, symName: __ZNK12ImGuiStorage6GetIntEji, symObjAddr: 0x1FC4, symBinAddr: 0x30004, symSize: 0x6C }
  - { offset: 0x13CF3D, size: 0x8, addend: 0x0, symName: __ZNK12ImGuiStorage7GetBoolEjb, symObjAddr: 0x2030, symBinAddr: 0x30070, symSize: 0x1C }
  - { offset: 0x13CF45, size: 0x8, addend: 0x0, symName: __ZNK12ImGuiStorage8GetFloatEjf, symObjAddr: 0x204C, symBinAddr: 0x3008C, symSize: 0x68 }
  - { offset: 0x13CF97, size: 0x8, addend: 0x0, symName: __ZNK12ImGuiStorage8GetFloatEjf, symObjAddr: 0x204C, symBinAddr: 0x3008C, symSize: 0x68 }
  - { offset: 0x13CF9F, size: 0x8, addend: 0x0, symName: __ZNK12ImGuiStorage10GetVoidPtrEj, symObjAddr: 0x20B4, symBinAddr: 0x300F4, symSize: 0x70 }
  - { offset: 0x13D00D, size: 0x8, addend: 0x0, symName: __ZNK12ImGuiStorage8GetFloatEjf, symObjAddr: 0x204C, symBinAddr: 0x3008C, symSize: 0x68 }
  - { offset: 0x13D0A7, size: 0x8, addend: 0x0, symName: __ZNK12ImGuiStorage10GetVoidPtrEj, symObjAddr: 0x20B4, symBinAddr: 0x300F4, symSize: 0x70 }
  - { offset: 0x13D0AF, size: 0x8, addend: 0x0, symName: __ZN12ImGuiStorage9GetIntRefEji, symObjAddr: 0x2124, symBinAddr: 0x30164, symSize: 0x19C }
  - { offset: 0x13D10A, size: 0x8, addend: 0x0, symName: __ZNK12ImGuiStorage10GetVoidPtrEj, symObjAddr: 0x20B4, symBinAddr: 0x300F4, symSize: 0x70 }
  - { offset: 0x13D29A, size: 0x8, addend: 0x0, symName: __ZN12ImGuiStorage9GetIntRefEji, symObjAddr: 0x2124, symBinAddr: 0x30164, symSize: 0x19C }
  - { offset: 0x13D2A2, size: 0x8, addend: 0x0, symName: __ZN12ImGuiStorage10GetBoolRefEjb, symObjAddr: 0x22C0, symBinAddr: 0x30300, symSize: 0x4 }
  - { offset: 0x13D4F7, size: 0x8, addend: 0x0, symName: __ZN12ImGuiStorage10GetBoolRefEjb, symObjAddr: 0x22C0, symBinAddr: 0x30300, symSize: 0x4 }
  - { offset: 0x13D4FF, size: 0x8, addend: 0x0, symName: __ZN12ImGuiStorage11GetFloatRefEjf, symObjAddr: 0x22C4, symBinAddr: 0x30304, symSize: 0x1A4 }
  - { offset: 0x13D54F, size: 0x8, addend: 0x0, symName: __ZN12ImGuiStorage11GetFloatRefEjf, symObjAddr: 0x22C4, symBinAddr: 0x30304, symSize: 0x1A4 }
  - { offset: 0x13D557, size: 0x8, addend: 0x0, symName: __ZN12ImGuiStorage13GetVoidPtrRefEjPv, symObjAddr: 0x2468, symBinAddr: 0x304A8, symSize: 0x19C }
  - { offset: 0x13D7AC, size: 0x8, addend: 0x0, symName: __ZN12ImGuiStorage13GetVoidPtrRefEjPv, symObjAddr: 0x2468, symBinAddr: 0x304A8, symSize: 0x19C }
  - { offset: 0x13D7B4, size: 0x8, addend: 0x0, symName: __ZN12ImGuiStorage6SetIntEji, symObjAddr: 0x2604, symBinAddr: 0x30644, symSize: 0x198 }
  - { offset: 0x13DA09, size: 0x8, addend: 0x0, symName: __ZN12ImGuiStorage6SetIntEji, symObjAddr: 0x2604, symBinAddr: 0x30644, symSize: 0x198 }
  - { offset: 0x13DA11, size: 0x8, addend: 0x0, symName: __ZN12ImGuiStorage7SetBoolEjb, symObjAddr: 0x279C, symBinAddr: 0x307DC, symSize: 0x4 }
  - { offset: 0x13DC66, size: 0x8, addend: 0x0, symName: __ZN12ImGuiStorage7SetBoolEjb, symObjAddr: 0x279C, symBinAddr: 0x307DC, symSize: 0x4 }
  - { offset: 0x13DC6E, size: 0x8, addend: 0x0, symName: __ZN12ImGuiStorage8SetFloatEjf, symObjAddr: 0x27A0, symBinAddr: 0x307E0, symSize: 0x1A0 }
  - { offset: 0x13DCBE, size: 0x8, addend: 0x0, symName: __ZN12ImGuiStorage8SetFloatEjf, symObjAddr: 0x27A0, symBinAddr: 0x307E0, symSize: 0x1A0 }
  - { offset: 0x13DCC6, size: 0x8, addend: 0x0, symName: __ZN12ImGuiStorage10SetVoidPtrEjPv, symObjAddr: 0x2940, symBinAddr: 0x30980, symSize: 0x198 }
  - { offset: 0x13DF1B, size: 0x8, addend: 0x0, symName: __ZN12ImGuiStorage10SetVoidPtrEjPv, symObjAddr: 0x2940, symBinAddr: 0x30980, symSize: 0x198 }
  - { offset: 0x13DF23, size: 0x8, addend: 0x0, symName: __ZN12ImGuiStorage9SetAllIntEi, symObjAddr: 0x2AD8, symBinAddr: 0x30B18, symSize: 0x34 }
  - { offset: 0x13E1A5, size: 0x8, addend: 0x0, symName: __ZN12ImGuiStorage9SetAllIntEi, symObjAddr: 0x2AD8, symBinAddr: 0x30B18, symSize: 0x34 }
  - { offset: 0x13E1AD, size: 0x8, addend: 0x0, symName: __ZN15ImGuiTextFilterC2EPKc, symObjAddr: 0x2B0C, symBinAddr: 0x30B4C, symSize: 0x48 }
  - { offset: 0x13E1EB, size: 0x8, addend: 0x0, symName: __ZN12ImGuiStorage9SetAllIntEi, symObjAddr: 0x2AD8, symBinAddr: 0x30B18, symSize: 0x34 }
  - { offset: 0x13E2C8, size: 0x8, addend: 0x0, symName: __ZN15ImGuiTextFilterC2EPKc, symObjAddr: 0x2B0C, symBinAddr: 0x30B4C, symSize: 0x48 }
  - { offset: 0x13E2D0, size: 0x8, addend: 0x0, symName: __ZN15ImGuiTextFilter5BuildEv, symObjAddr: 0x2B54, symBinAddr: 0x30B94, symSize: 0x1A0 }
  - { offset: 0x13E4DB, size: 0x8, addend: 0x0, symName: __ZN15ImGuiTextFilter5BuildEv, symObjAddr: 0x2B54, symBinAddr: 0x30B94, symSize: 0x1A0 }
  - { offset: 0x13E4E3, size: 0x8, addend: 0x0, symName: __ZN15ImGuiTextFilterC1EPKc, symObjAddr: 0x2CF4, symBinAddr: 0x30D34, symSize: 0x4 }
  - { offset: 0x13E720, size: 0x8, addend: 0x0, symName: __ZN15ImGuiTextFilterC1EPKc, symObjAddr: 0x2CF4, symBinAddr: 0x30D34, symSize: 0x4 }
  - { offset: 0x13E728, size: 0x8, addend: 0x0, symName: __ZN15ImGuiTextFilter4DrawEPKcf, symObjAddr: 0x2CF8, symBinAddr: 0x30D38, symSize: 0x6C }
  - { offset: 0x13E775, size: 0x8, addend: 0x0, symName: __ZN15ImGuiTextFilter4DrawEPKcf, symObjAddr: 0x2CF8, symBinAddr: 0x30D38, symSize: 0x6C }
  - { offset: 0x13E77D, size: 0x8, addend: 0x0, symName: __ZN5ImGui16SetNextItemWidthEf, symObjAddr: 0x2D64, symBinAddr: 0x30DA4, symSize: 0x1C }
  - { offset: 0x13E88D, size: 0x8, addend: 0x0, symName: __ZNK15ImGuiTextFilter14ImGuiTextRange5splitEcP8ImVectorIS0_E, symObjAddr: 0x2D80, symBinAddr: 0x30DC0, symSize: 0x2A8 }
  - { offset: 0x13E895, size: 0x8, addend: 0x0, symName: __ZNK15ImGuiTextFilter10PassFilterEPKcS1_, symObjAddr: 0x3028, symBinAddr: 0x31068, symSize: 0xB4 }
  - { offset: 0x13EC87, size: 0x8, addend: 0x0, symName: __ZNK15ImGuiTextFilter10PassFilterEPKcS1_, symObjAddr: 0x3028, symBinAddr: 0x31068, symSize: 0xB4 }
  - { offset: 0x13EC8F, size: 0x8, addend: 0x0, symName: __ZN15ImGuiTextBuffer6appendEPKcS1_, symObjAddr: 0x30DC, symBinAddr: 0x3111C, symSize: 0x158 }
  - { offset: 0x13EDA2, size: 0x8, addend: 0x0, symName: __ZN15ImGuiTextBuffer6appendEPKcS1_, symObjAddr: 0x30DC, symBinAddr: 0x3111C, symSize: 0x158 }
  - { offset: 0x13EDAA, size: 0x8, addend: 0x0, symName: __ZN15ImGuiTextBuffer7appendfEPKcz, symObjAddr: 0x3234, symBinAddr: 0x31274, symSize: 0x28 }
  - { offset: 0x13EF4E, size: 0x8, addend: 0x0, symName: __ZN15ImGuiTextBuffer7appendfEPKcz, symObjAddr: 0x3234, symBinAddr: 0x31274, symSize: 0x28 }
  - { offset: 0x13EF56, size: 0x8, addend: 0x0, symName: __ZN15ImGuiTextBuffer8appendfvEPKcPc, symObjAddr: 0x325C, symBinAddr: 0x3129C, symSize: 0x188 }
  - { offset: 0x13F014, size: 0x8, addend: 0x0, symName: __ZN15ImGuiTextBuffer8appendfvEPKcPc, symObjAddr: 0x325C, symBinAddr: 0x3129C, symSize: 0x188 }
  - { offset: 0x13F01C, size: 0x8, addend: 0x0, symName: __ZN5ImGui16CalcListClippingEifPiS0_, symObjAddr: 0x33E4, symBinAddr: 0x31424, symSize: 0x124 }
  - { offset: 0x13F44B, size: 0x8, addend: 0x0, symName: __ZN16ImGuiListClipperC2Ev, symObjAddr: 0x3508, symBinAddr: 0x31548, symSize: 0x18 }
  - { offset: 0x13F453, size: 0x8, addend: 0x0, symName: __ZN16ImGuiListClipperC1Ev, symObjAddr: 0x3520, symBinAddr: 0x31560, symSize: 0x18 }
  - { offset: 0x13F4A5, size: 0x8, addend: 0x0, symName: __ZN16ImGuiListClipperC1Ev, symObjAddr: 0x3520, symBinAddr: 0x31560, symSize: 0x18 }
  - { offset: 0x13F4AD, size: 0x8, addend: 0x0, symName: __ZN16ImGuiListClipperD2Ev, symObjAddr: 0x3538, symBinAddr: 0x31578, symSize: 0x4 }
  - { offset: 0x13F4E4, size: 0x8, addend: 0x0, symName: __ZN16ImGuiListClipperC1Ev, symObjAddr: 0x3520, symBinAddr: 0x31560, symSize: 0x18 }
  - { offset: 0x13F507, size: 0x8, addend: 0x0, symName: __ZN16ImGuiListClipperD2Ev, symObjAddr: 0x3538, symBinAddr: 0x31578, symSize: 0x4 }
  - { offset: 0x13F50F, size: 0x8, addend: 0x0, symName: __ZN16ImGuiListClipperD1Ev, symObjAddr: 0x353C, symBinAddr: 0x3157C, symSize: 0x4 }
  - { offset: 0x13F540, size: 0x8, addend: 0x0, symName: __ZN16ImGuiListClipperD1Ev, symObjAddr: 0x353C, symBinAddr: 0x3157C, symSize: 0x4 }
  - { offset: 0x13F548, size: 0x8, addend: 0x0, symName: __ZN16ImGuiListClipper5BeginEif, symObjAddr: 0x3540, symBinAddr: 0x31580, symSize: 0x6C }
  - { offset: 0x13F579, size: 0x8, addend: 0x0, symName: __ZN16ImGuiListClipper5BeginEif, symObjAddr: 0x3540, symBinAddr: 0x31580, symSize: 0x6C }
  - { offset: 0x13F581, size: 0x8, addend: 0x0, symName: __ZN16ImGuiListClipper3EndEv, symObjAddr: 0x35AC, symBinAddr: 0x315EC, symSize: 0x5C }
  - { offset: 0x13F5EE, size: 0x8, addend: 0x0, symName: __ZN16ImGuiListClipper3EndEv, symObjAddr: 0x35AC, symBinAddr: 0x315EC, symSize: 0x5C }
  - { offset: 0x13F5F6, size: 0x8, addend: 0x0, symName: __ZL32SetCursorPosYAndSetupForPrevLineff, symObjAddr: 0x3608, symBinAddr: 0x31648, symSize: 0xA8 }
  - { offset: 0x13F668, size: 0x8, addend: 0x0, symName: __ZL32SetCursorPosYAndSetupForPrevLineff, symObjAddr: 0x3608, symBinAddr: 0x31648, symSize: 0xA8 }
  - { offset: 0x13F670, size: 0x8, addend: 0x0, symName: __ZN16ImGuiListClipper4StepEv, symObjAddr: 0x36B0, symBinAddr: 0x316F0, symSize: 0x1BC }
  - { offset: 0x13F77C, size: 0x8, addend: 0x0, symName: __ZN16ImGuiListClipper4StepEv, symObjAddr: 0x36B0, symBinAddr: 0x316F0, symSize: 0x1BC }
  - { offset: 0x13F784, size: 0x8, addend: 0x0, symName: __ZN5ImGui8GetStyleEv, symObjAddr: 0x386C, symBinAddr: 0x318AC, symSize: 0x14 }
  - { offset: 0x13FDE8, size: 0x8, addend: 0x0, symName: __ZN11ImGuiWindowC2EP12ImGuiContextPKc, symObjAddr: 0x4F40, symBinAddr: 0x32F80, symSize: 0x1C8 }
  - { offset: 0x13FDF0, size: 0x8, addend: 0x0, symName: __ZN11ImGuiWindow5GetIDEPKcS1_, symObjAddr: 0x5108, symBinAddr: 0x33148, symSize: 0x6C }
  - { offset: 0x14000B, size: 0x8, addend: 0x0, symName: __ZN11ImGuiWindow5GetIDEPKcS1_, symObjAddr: 0x5108, symBinAddr: 0x33148, symSize: 0x6C }
  - { offset: 0x140013, size: 0x8, addend: 0x0, symName: __ZN11ImGuiWindowC1EP12ImGuiContextPKc, symObjAddr: 0x5174, symBinAddr: 0x331B4, symSize: 0x4 }
  - { offset: 0x1400EE, size: 0x8, addend: 0x0, symName: __ZN11ImGuiWindowC1EP12ImGuiContextPKc, symObjAddr: 0x5174, symBinAddr: 0x331B4, symSize: 0x4 }
  - { offset: 0x1400F6, size: 0x8, addend: 0x0, symName: __ZN11ImGuiWindowD2Ev, symObjAddr: 0x5178, symBinAddr: 0x331B8, symSize: 0x1E8 }
  - { offset: 0x1404E0, size: 0x8, addend: 0x0, symName: __ZN11ImGuiWindowD2Ev, symObjAddr: 0x5178, symBinAddr: 0x331B8, symSize: 0x1E8 }
  - { offset: 0x1404E8, size: 0x8, addend: 0x0, symName: __ZN11ImGuiWindowD1Ev, symObjAddr: 0x5360, symBinAddr: 0x333A0, symSize: 0x4 }
  - { offset: 0x140B5B, size: 0x8, addend: 0x0, symName: __ZN11ImGuiWindowD1Ev, symObjAddr: 0x5360, symBinAddr: 0x333A0, symSize: 0x4 }
  - { offset: 0x140B63, size: 0x8, addend: 0x0, symName: __ZN5ImGui11KeepAliveIDEj, symObjAddr: 0x5364, symBinAddr: 0x333A4, symSize: 0x34 }
  - { offset: 0x140C07, size: 0x8, addend: 0x0, symName: __ZN11ImGuiWindow5GetIDEPKv, symObjAddr: 0x5398, symBinAddr: 0x333D8, symSize: 0x88 }
  - { offset: 0x140C0F, size: 0x8, addend: 0x0, symName: __ZN11ImGuiWindow5GetIDEi, symObjAddr: 0x5420, symBinAddr: 0x33460, symSize: 0x88 }
  - { offset: 0x140D2D, size: 0x8, addend: 0x0, symName: __ZN11ImGuiWindow5GetIDEi, symObjAddr: 0x5420, symBinAddr: 0x33460, symSize: 0x88 }
  - { offset: 0x140D35, size: 0x8, addend: 0x0, symName: __ZN11ImGuiWindow16GetIDNoKeepAliveEPKcS1_, symObjAddr: 0x54A8, symBinAddr: 0x334E8, symSize: 0x2C }
  - { offset: 0x140E53, size: 0x8, addend: 0x0, symName: __ZN11ImGuiWindow16GetIDNoKeepAliveEPKcS1_, symObjAddr: 0x54A8, symBinAddr: 0x334E8, symSize: 0x2C }
  - { offset: 0x140E5B, size: 0x8, addend: 0x0, symName: __ZN11ImGuiWindow16GetIDNoKeepAliveEPKv, symObjAddr: 0x54D4, symBinAddr: 0x33514, symSize: 0x58 }
  - { offset: 0x140ED8, size: 0x8, addend: 0x0, symName: __ZN11ImGuiWindow16GetIDNoKeepAliveEPKv, symObjAddr: 0x54D4, symBinAddr: 0x33514, symSize: 0x58 }
  - { offset: 0x140EE0, size: 0x8, addend: 0x0, symName: __ZN11ImGuiWindow16GetIDNoKeepAliveEi, symObjAddr: 0x552C, symBinAddr: 0x3356C, symSize: 0x58 }
  - { offset: 0x140FC8, size: 0x8, addend: 0x0, symName: __ZN11ImGuiWindow16GetIDNoKeepAliveEi, symObjAddr: 0x552C, symBinAddr: 0x3356C, symSize: 0x58 }
  - { offset: 0x140FD0, size: 0x8, addend: 0x0, symName: __ZN11ImGuiWindow18GetIDFromRectangleERK6ImRect, symObjAddr: 0x5584, symBinAddr: 0x335C4, symSize: 0xD4 }
  - { offset: 0x1410B8, size: 0x8, addend: 0x0, symName: __ZN11ImGuiWindow18GetIDFromRectangleERK6ImRect, symObjAddr: 0x5584, symBinAddr: 0x335C4, symSize: 0xD4 }
  - { offset: 0x1410C0, size: 0x8, addend: 0x0, symName: __ZN5ImGui29GcCompactTransientMiscBuffersEv, symObjAddr: 0x5658, symBinAddr: 0x33698, symSize: 0x90 }
  - { offset: 0x141827, size: 0x8, addend: 0x0, symName: __Z9IM_DELETEI12ImGuiContextEvPT_, symObjAddr: 0x6908, symBinAddr: 0x34948, symSize: 0x44 }
  - { offset: 0x14182F, size: 0x8, addend: 0x0, symName: __ZN5ImGui14AddContextHookEP12ImGuiContextPK16ImGuiContextHook, symObjAddr: 0x694C, symBinAddr: 0x3498C, symSize: 0x124 }
  - { offset: 0x141A12, size: 0x8, addend: 0x0, symName: __ZL19GetViewportDrawListP14ImGuiViewportPmPKc, symObjAddr: 0x6B78, symBinAddr: 0x34BB8, symSize: 0xF8 }
  - { offset: 0x141A1A, size: 0x8, addend: 0x0, symName: __ZN5ImGui21GetBackgroundDrawListEv, symObjAddr: 0x6C70, symBinAddr: 0x34CB0, symSize: 0x20 }
  - { offset: 0x141C7B, size: 0x8, addend: 0x0, symName: __ZNK11ImGuiWindow12TitleBarRectEv, symObjAddr: 0x7200, symBinAddr: 0x35240, symSize: 0x50 }
  - { offset: 0x141C83, size: 0x8, addend: 0x0, symName: __ZN5ImGui20GetTopMostPopupModalEv, symObjAddr: 0x7250, symBinAddr: 0x35290, symSize: 0x4C }
  - { offset: 0x142C22, size: 0x8, addend: 0x0, symName: __ZL30WindowSettingsHandler_ClearAllP12ImGuiContextP20ImGuiSettingsHandler, symObjAddr: 0xCF00, symBinAddr: 0x3AF40, symSize: 0x2C }
  - { offset: 0x142C2A, size: 0x8, addend: 0x0, symName: __ZL30WindowSettingsHandler_ReadOpenP12ImGuiContextP20ImGuiSettingsHandlerPKc, symObjAddr: 0xCF2C, symBinAddr: 0x3AF6C, symSize: 0x28 }
  - { offset: 0x142C9D, size: 0x8, addend: 0x0, symName: __ZL30WindowSettingsHandler_ReadOpenP12ImGuiContextP20ImGuiSettingsHandlerPKc, symObjAddr: 0xCF2C, symBinAddr: 0x3AF6C, symSize: 0x28 }
  - { offset: 0x142CA5, size: 0x8, addend: 0x0, symName: __ZL30WindowSettingsHandler_ReadLineP12ImGuiContextP20ImGuiSettingsHandlerPvPKc, symObjAddr: 0xCF54, symBinAddr: 0x3AF94, symSize: 0xC8 }
  - { offset: 0x142D17, size: 0x8, addend: 0x0, symName: __ZL30WindowSettingsHandler_ReadLineP12ImGuiContextP20ImGuiSettingsHandlerPvPKc, symObjAddr: 0xCF54, symBinAddr: 0x3AF94, symSize: 0xC8 }
  - { offset: 0x142D1F, size: 0x8, addend: 0x0, symName: __ZL30WindowSettingsHandler_ApplyAllP12ImGuiContextP20ImGuiSettingsHandler, symObjAddr: 0xD01C, symBinAddr: 0x3B05C, symSize: 0x90 }
  - { offset: 0x142DC2, size: 0x8, addend: 0x0, symName: __ZL30WindowSettingsHandler_ApplyAllP12ImGuiContextP20ImGuiSettingsHandler, symObjAddr: 0xD01C, symBinAddr: 0x3B05C, symSize: 0x90 }
  - { offset: 0x142DCA, size: 0x8, addend: 0x0, symName: __ZL30WindowSettingsHandler_WriteAllP12ImGuiContextP20ImGuiSettingsHandlerP15ImGuiTextBuffer, symObjAddr: 0xD0AC, symBinAddr: 0x3B0EC, symSize: 0x200 }
  - { offset: 0x142FCB, size: 0x8, addend: 0x0, symName: __ZL30WindowSettingsHandler_WriteAllP12ImGuiContextP20ImGuiSettingsHandlerP15ImGuiTextBuffer, symObjAddr: 0xD0AC, symBinAddr: 0x3B0EC, symSize: 0x200 }
  - { offset: 0x142FD3, size: 0x8, addend: 0x0, symName: __Z9IM_DELETEI11ImFontAtlasEvPT_, symObjAddr: 0xD2AC, symBinAddr: 0x3B2EC, symSize: 0x44 }
  - { offset: 0x1433A3, size: 0x8, addend: 0x0, symName: __Z9IM_DELETEI11ImFontAtlasEvPT_, symObjAddr: 0xD2AC, symBinAddr: 0x3B2EC, symSize: 0x44 }
  - { offset: 0x1433AB, size: 0x8, addend: 0x0, symName: __ZN5ImGui21SaveIniSettingsToDiskEPKc, symObjAddr: 0xD2F0, symBinAddr: 0x3B330, symSize: 0x78 }
  - { offset: 0x14349C, size: 0x8, addend: 0x0, symName: __Z9IM_DELETEI11ImGuiWindowEvPT_, symObjAddr: 0xD368, symBinAddr: 0x3B3A8, symSize: 0x44 }
  - { offset: 0x1434A4, size: 0x8, addend: 0x0, symName: __ZN12ImGuiStorage5ClearEv, symObjAddr: 0xD3AC, symBinAddr: 0x3B3EC, symSize: 0x58 }
  - { offset: 0x14355F, size: 0x8, addend: 0x0, symName: __ZN12ImGuiStorage5ClearEv, symObjAddr: 0xD3AC, symBinAddr: 0x3B3EC, symSize: 0x58 }
  - { offset: 0x143567, size: 0x8, addend: 0x0, symName: __Z9IM_DELETEI14ImGuiViewportPEvPT_, symObjAddr: 0xD404, symBinAddr: 0x3B444, symSize: 0x44 }
  - { offset: 0x143618, size: 0x8, addend: 0x0, symName: __Z9IM_DELETEI14ImGuiViewportPEvPT_, symObjAddr: 0xD404, symBinAddr: 0x3B444, symSize: 0x44 }
  - { offset: 0x143620, size: 0x8, addend: 0x0, symName: __ZN6ImPoolI11ImGuiTabBarE5ClearEv, symObjAddr: 0xD448, symBinAddr: 0x3B488, symSize: 0x120 }
  - { offset: 0x143832, size: 0x8, addend: 0x0, symName: __ZN6ImPoolI11ImGuiTabBarE5ClearEv, symObjAddr: 0xD448, symBinAddr: 0x3B488, symSize: 0x120 }
  - { offset: 0x14383A, size: 0x8, addend: 0x0, symName: __ZN6ImPoolI10ImGuiTableE5ClearEv, symObjAddr: 0xD568, symBinAddr: 0x3B5A8, symSize: 0xC0 }
  - { offset: 0x143B55, size: 0x8, addend: 0x0, symName: __ZN6ImPoolI10ImGuiTableE5ClearEv, symObjAddr: 0xD568, symBinAddr: 0x3B5A8, symSize: 0xC0 }
  - { offset: 0x143B5D, size: 0x8, addend: 0x0, symName: __ZN19ImGuiInputTextState15ClearFreeMemoryEv, symObjAddr: 0xD628, symBinAddr: 0x3B668, symSize: 0xC0 }
  - { offset: 0x143CD0, size: 0x8, addend: 0x0, symName: __ZN19ImGuiInputTextState15ClearFreeMemoryEv, symObjAddr: 0xD628, symBinAddr: 0x3B668, symSize: 0xC0 }
  - { offset: 0x143CD8, size: 0x8, addend: 0x0, symName: __ZN13ImChunkStreamI19ImGuiWindowSettingsE5clearEv, symObjAddr: 0xD6E8, symBinAddr: 0x3B728, symSize: 0x58 }
  - { offset: 0x143E2C, size: 0x8, addend: 0x0, symName: __ZN13ImChunkStreamI19ImGuiWindowSettingsE5clearEv, symObjAddr: 0xD6E8, symBinAddr: 0x3B728, symSize: 0x58 }
  - { offset: 0x143E34, size: 0x8, addend: 0x0, symName: __ZN15ImGuiTextBuffer5clearEv, symObjAddr: 0xD740, symBinAddr: 0x3B780, symSize: 0x58 }
  - { offset: 0x143EC4, size: 0x8, addend: 0x0, symName: __ZN15ImGuiTextBuffer5clearEv, symObjAddr: 0xD740, symBinAddr: 0x3B780, symSize: 0x58 }
  - { offset: 0x143ECC, size: 0x8, addend: 0x0, symName: __ZN17ImDrawDataBuilder22FlattenIntoSingleLayerEv, symObjAddr: 0xD798, symBinAddr: 0x3B7D8, symSize: 0x198 }
  - { offset: 0x14405F, size: 0x8, addend: 0x0, symName: __ZN17ImDrawDataBuilder22FlattenIntoSingleLayerEv, symObjAddr: 0xD798, symBinAddr: 0x3B7D8, symSize: 0x198 }
  - { offset: 0x144067, size: 0x8, addend: 0x0, symName: __ZN5ImGui12PushClipRectERK6ImVec2S2_b, symObjAddr: 0xD930, symBinAddr: 0x3B970, symSize: 0x5C }
  - { offset: 0x14453E, size: 0x8, addend: 0x0, symName: __ZL21AddWindowToSortBufferP8ImVectorIP11ImGuiWindowES1_, symObjAddr: 0xE3FC, symBinAddr: 0x3C43C, symSize: 0x15C }
  - { offset: 0x144546, size: 0x8, addend: 0x0, symName: __ZN5ImGui6RenderEv, symObjAddr: 0xE558, symBinAddr: 0x3C598, symSize: 0x2FC }
  - { offset: 0x1447FD, size: 0x8, addend: 0x0, symName: __ZN17ImDrawDataBuilder5ClearEv, symObjAddr: 0xE854, symBinAddr: 0x3C894, symSize: 0xEC }
  - { offset: 0x144805, size: 0x8, addend: 0x0, symName: __ZL21AddDrawListToDrawDataP8ImVectorIP10ImDrawListES1_, symObjAddr: 0xE940, symBinAddr: 0x3C980, symSize: 0x10C }
  - { offset: 0x144971, size: 0x8, addend: 0x0, symName: __ZL21AddDrawListToDrawDataP8ImVectorIP10ImDrawListES1_, symObjAddr: 0xE940, symBinAddr: 0x3C980, symSize: 0x10C }
  - { offset: 0x144979, size: 0x8, addend: 0x0, symName: __ZN5ImGui11GetKeyIndexEi, symObjAddr: 0xEA4C, symBinAddr: 0x3CA8C, symSize: 0x14 }
  - { offset: 0x144ADE, size: 0x8, addend: 0x0, symName: __ZL22CalcWindowContentSizesP11ImGuiWindowP6ImVec2S2_, symObjAddr: 0xFB80, symBinAddr: 0x3DBC0, symSize: 0xFC }
  - { offset: 0x144AE6, size: 0x8, addend: 0x0, symName: __ZL21CalcWindowAutoFitSizeP11ImGuiWindowRK6ImVec2, symObjAddr: 0xFC7C, symBinAddr: 0x3DCBC, symSize: 0x1B0 }
  - { offset: 0x144BB7, size: 0x8, addend: 0x0, symName: __ZL21CalcWindowAutoFitSizeP11ImGuiWindowRK6ImVec2, symObjAddr: 0xFC7C, symBinAddr: 0x3DCBC, symSize: 0x1B0 }
  - { offset: 0x144BBF, size: 0x8, addend: 0x0, symName: __ZL29CalcWindowSizeAfterConstraintP11ImGuiWindowRK6ImVec2, symObjAddr: 0xFE2C, symBinAddr: 0x3DE6C, symSize: 0x188 }
  - { offset: 0x144ED5, size: 0x8, addend: 0x0, symName: __ZL29CalcWindowSizeAfterConstraintP11ImGuiWindowRK6ImVec2, symObjAddr: 0xFE2C, symBinAddr: 0x3DE6C, symSize: 0x188 }
  - { offset: 0x144EDD, size: 0x8, addend: 0x0, symName: __ZN5ImGui23GetWindowResizeCornerIDEP11ImGuiWindowi, symObjAddr: 0xFFB4, symBinAddr: 0x3DFF4, symSize: 0x68 }
  - { offset: 0x145156, size: 0x8, addend: 0x0, symName: __ZN15ImGuiStackSizes17SetToCurrentStateEv, symObjAddr: 0x100F0, symBinAddr: 0x3E130, symSize: 0x48 }
  - { offset: 0x14515E, size: 0x8, addend: 0x0, symName: __ZN5ImGui13SetWindowSizeEP11ImGuiWindowRK6ImVec2i, symObjAddr: 0x10138, symBinAddr: 0x3E178, symSize: 0x78 }
  - { offset: 0x14519C, size: 0x8, addend: 0x0, symName: __ZL16SetCurrentWindowP11ImGuiWindow, symObjAddr: 0x101D4, symBinAddr: 0x3E214, symSize: 0x64 }
  - { offset: 0x1451A4, size: 0x8, addend: 0x0, symName: __ZNK11ImGuiWindow13MenuBarHeightEv, symObjAddr: 0x10238, symBinAddr: 0x3E278, symSize: 0x4C }
  - { offset: 0x145272, size: 0x8, addend: 0x0, symName: __ZNK11ImGuiWindow13MenuBarHeightEv, symObjAddr: 0x10238, symBinAddr: 0x3E278, symSize: 0x4C }
  - { offset: 0x14527A, size: 0x8, addend: 0x0, symName: __ZN5ImGui25FindBestWindowPosForPopupEP11ImGuiWindow, symObjAddr: 0x10284, symBinAddr: 0x3E2C4, symSize: 0x19C }
